///////////////////////////////////////////////////////////////////////////////
//
// IAR C/C++ Compiler V10.20.1.5333 for 8051              21/Jul/2020  15:36:27
// Copyright 2004-2018 IAR Systems AB.
// PC-locked license - IAR Embedded Workbench for 8051
//
//    Core               =  plain
//    Code model         =  banked
//    Data model         =  large
//    Calling convention =  xdata reentrant
//    Constant location  =  data_rom
//    Dptr setup         =  1,16
//                          
//    Source file        =  
//        C:\Users\TS-577\Desktop\Zigbee
//        workspace\MultiSensorDevice\Projects\zstack\HomeAutomation\MultiSensor\Source\zcl_MultiSensor.c
//    Command line       =  
//        -f C:\Users\TS-577\AppData\Local\Temp\EW55D6.tmp
//        ("C:\Users\TS-577\Desktop\Zigbee
//        workspace\MultiSensorDevice\Projects\zstack\HomeAutomation\MultiSensor\Source\zcl_MultiSensor.c"
//        -D xBDB_REPORTING -D SECURE=1 -D TC_LINKKEY_JOIN -D NV_INIT -D
//        NV_RESTORE -D ZTOOL_P1 -D xMT_TASK -D xMT_APP_FUNC -D xMT_SYS_FUNC -D
//        xMT_ZDO_FUNC -D xMT_APP_CNF_FUNC -D MULTICAST_ENABLED=FALSE -D
//        ZCL_READ -D xZCL_DISCOVER -D ZCL_WRITE -D ZCL_BASIC -D ZCL_IDENTIFY
//        -D ZCL_GROUPS -D ZCL_REPORT -D ZCL_REPORTING_DEVICE -D
//        ZCL_TEMPERATURE_MEASUREMENT -lC "C:\Users\TS-577\Desktop\Zigbee
//        workspace\MultiSensorDevice\Projects\zstack\HomeAutomation\MultiSensor\CC2530DB\CoordinatorEB\List"
//        -lA "C:\Users\TS-577\Desktop\Zigbee
//        workspace\MultiSensorDevice\Projects\zstack\HomeAutomation\MultiSensor\CC2530DB\CoordinatorEB\List"
//        --diag_suppress Pe001,Pa010 -o "C:\Users\TS-577\Desktop\Zigbee
//        workspace\MultiSensorDevice\Projects\zstack\HomeAutomation\MultiSensor\CC2530DB\CoordinatorEB\Obj"
//        -e --debug --core=plain --dptr=16,1 --data_model=large
//        --code_model=banked --calling_convention=xdata_reentrant
//        --place_constants=data_rom --nr_virtual_regs 16 -f
//        "C:\Users\TS-577\Desktop\Zigbee
//        workspace\MultiSensorDevice\Projects\zstack\HomeAutomation\MultiSensor\CC2530DB\..\..\..\Tools\CC2530DB\f8wCoord.cfg"
//        (-DCPU32MHZ -DROOT=__near_func -DMAC_CFG_APP_PENDING_QUEUE=TRUE
//        -DMAC_CFG_TX_DATA_MAX=5 -DMAC_CFG_TX_MAX=8 -DMAC_CFG_RX_MAX=5
//        -DZDO_COORDINATOR -DRTR_NWK) -f "C:\Users\TS-577\Desktop\Zigbee
//        workspace\MultiSensorDevice\Projects\zstack\HomeAutomation\MultiSensor\CC2530DB\..\..\..\Tools\CC2530DB\f8wConfig.cfg"
//        (-DZIGBEEPRO -DSECURE=1 -DZG_SECURE_DYNAMIC=0 -DREFLECTOR
//        -DDEFAULT_CHANLIST=0x00002000 -DZDAPP_CONFIG_PAN_ID=0xFFFF
//        -DNWK_START_DELAY=100 -DEXTENDED_JOINING_RANDOM_MASK=0x007F
//        -DBEACON_REQUEST_DELAY=100 -DBEACON_REQ_DELAY_MASK=0x00FF
//        -DLINK_STATUS_JITTER_MASK=0x007F -DROUTE_EXPIRY_TIME=30
//        -DAPSC_ACK_WAIT_DURATION_POLLED=3000 -DNWK_INDIRECT_MSG_TIMEOUT=7
//        -DMAX_RREQ_ENTRIES=8 -DAPSC_MAX_FRAME_RETRIES=3
//        -DNWK_MAX_DATA_RETRIES=2 -DMAX_POLL_FAILURE_RETRIES=2 -DMAX_BCAST=9
//        -DAPS_MAX_GROUPS=16 -DMAX_RTG_ENTRIES=40 -DNWK_MAX_BINDING_ENTRIES=4
//        -DMAX_BINDING_CLUSTER_IDS=4 -DDEFAULT_KEY={0}
//        -DMAC_MAX_FRAME_SIZE=116 -DZDNWKMGR_MIN_TRANSMISSIONS=20
//        "-DCONST=const __code" -DGENERIC=__generic -DRFD_RCVC_ALWAYS_ON=TRUE
//        -DPOLL_RATE=1000 -DQUEUED_POLL_RATE=100 -DRESPONSE_POLL_RATE=100
//        -DREJOIN_POLL_RATE=440 -DREJOIN_BACKOFF=900000 -DREJOIN_SCAN=900000)
//        -f "C:\Users\TS-577\Desktop\Zigbee
//        workspace\MultiSensorDevice\Projects\zstack\HomeAutomation\MultiSensor\CC2530DB\..\..\..\Tools\CC2530DB\f8wZCL.cfg"
//        -I "C:\Users\TS-577\Desktop\Zigbee
//        workspace\MultiSensorDevice\Projects\zstack\HomeAutomation\MultiSensor\CC2530DB\"
//        -I "C:\Users\TS-577\Desktop\Zigbee
//        workspace\MultiSensorDevice\Projects\zstack\HomeAutomation\MultiSensor\CC2530DB\..\Source\"
//        -I "C:\Users\TS-577\Desktop\Zigbee
//        workspace\MultiSensorDevice\Projects\zstack\HomeAutomation\MultiSensor\CC2530DB\..\..\Source\"
//        -I "C:\Users\TS-577\Desktop\Zigbee
//        workspace\MultiSensorDevice\Projects\zstack\HomeAutomation\MultiSensor\CC2530DB\..\..\..\ZMain\TI2530DB\"
//        -I "C:\Users\TS-577\Desktop\Zigbee
//        workspace\MultiSensorDevice\Projects\zstack\HomeAutomation\MultiSensor\CC2530DB\..\..\..\..\..\Components\hal\include\"
//        -I "C:\Users\TS-577\Desktop\Zigbee
//        workspace\MultiSensorDevice\Projects\zstack\HomeAutomation\MultiSensor\CC2530DB\..\..\..\..\..\Components\hal\target\CC2530EB\"
//        -I "C:\Users\TS-577\Desktop\Zigbee
//        workspace\MultiSensorDevice\Projects\zstack\HomeAutomation\MultiSensor\CC2530DB\..\..\..\..\..\Components\mac\include\"
//        -I "C:\Users\TS-577\Desktop\Zigbee
//        workspace\MultiSensorDevice\Projects\zstack\HomeAutomation\MultiSensor\CC2530DB\..\..\..\..\..\Components\mac\high_level\"
//        -I "C:\Users\TS-577\Desktop\Zigbee
//        workspace\MultiSensorDevice\Projects\zstack\HomeAutomation\MultiSensor\CC2530DB\..\..\..\..\..\Components\mac\low_level\srf04\"
//        -I "C:\Users\TS-577\Desktop\Zigbee
//        workspace\MultiSensorDevice\Projects\zstack\HomeAutomation\MultiSensor\CC2530DB\..\..\..\..\..\Components\mac\low_level\srf04\single_chip\"
//        -I "C:\Users\TS-577\Desktop\Zigbee
//        workspace\MultiSensorDevice\Projects\zstack\HomeAutomation\MultiSensor\CC2530DB\..\..\..\..\..\Components\mt\"
//        -I "C:\Users\TS-577\Desktop\Zigbee
//        workspace\MultiSensorDevice\Projects\zstack\HomeAutomation\MultiSensor\CC2530DB\..\..\..\..\..\Components\osal\include\"
//        -I "C:\Users\TS-577\Desktop\Zigbee
//        workspace\MultiSensorDevice\Projects\zstack\HomeAutomation\MultiSensor\CC2530DB\..\..\..\..\..\Components\services\saddr\"
//        -I "C:\Users\TS-577\Desktop\Zigbee
//        workspace\MultiSensorDevice\Projects\zstack\HomeAutomation\MultiSensor\CC2530DB\..\..\..\..\..\Components\services\sdata\"
//        -I "C:\Users\TS-577\Desktop\Zigbee
//        workspace\MultiSensorDevice\Projects\zstack\HomeAutomation\MultiSensor\CC2530DB\..\..\..\..\..\Components\stack\af\"
//        -I "C:\Users\TS-577\Desktop\Zigbee
//        workspace\MultiSensorDevice\Projects\zstack\HomeAutomation\MultiSensor\CC2530DB\..\..\..\..\..\Components\stack\bdb\"
//        -I "C:\Users\TS-577\Desktop\Zigbee
//        workspace\MultiSensorDevice\Projects\zstack\HomeAutomation\MultiSensor\CC2530DB\..\..\..\..\..\Components\stack\gp\"
//        -I "C:\Users\TS-577\Desktop\Zigbee
//        workspace\MultiSensorDevice\Projects\zstack\HomeAutomation\MultiSensor\CC2530DB\..\..\..\..\..\Components\stack\nwk\"
//        -I "C:\Users\TS-577\Desktop\Zigbee
//        workspace\MultiSensorDevice\Projects\zstack\HomeAutomation\MultiSensor\CC2530DB\..\..\..\..\..\Components\stack\sapi\"
//        -I "C:\Users\TS-577\Desktop\Zigbee
//        workspace\MultiSensorDevice\Projects\zstack\HomeAutomation\MultiSensor\CC2530DB\..\..\..\..\..\Components\stack\sec\"
//        -I "C:\Users\TS-577\Desktop\Zigbee
//        workspace\MultiSensorDevice\Projects\zstack\HomeAutomation\MultiSensor\CC2530DB\..\..\..\..\..\Components\stack\sys\"
//        -I "C:\Users\TS-577\Desktop\Zigbee
//        workspace\MultiSensorDevice\Projects\zstack\HomeAutomation\MultiSensor\CC2530DB\..\..\..\..\..\Components\stack\zcl\"
//        -I "C:\Users\TS-577\Desktop\Zigbee
//        workspace\MultiSensorDevice\Projects\zstack\HomeAutomation\MultiSensor\CC2530DB\..\..\..\..\..\Components\stack\zdo\"
//        -I "C:\Users\TS-577\Desktop\Zigbee
//        workspace\MultiSensorDevice\Projects\zstack\HomeAutomation\MultiSensor\CC2530DB\..\..\..\..\..\Components\zmac\"
//        -I "C:\Users\TS-577\Desktop\Zigbee
//        workspace\MultiSensorDevice\Projects\zstack\HomeAutomation\MultiSensor\CC2530DB\..\..\..\..\..\Components\zmac\f8w\"
//        -Ohz --require_prototypes)
//    Locale             =  Japanese_JPN.932
//    List file          =  
//        C:\Users\TS-577\Desktop\Zigbee
//        workspace\MultiSensorDevice\Projects\zstack\HomeAutomation\MultiSensor\CC2530DB\CoordinatorEB\List\zcl_MultiSensor.s51
//
///////////////////////////////////////////////////////////////////////////////

        NAME zcl_MultiSensor

        RTMODEL "__SystemLibrary", "CLib"
        RTMODEL "__calling_convention", "xdata_reentrant"
        RTMODEL "__code_model", "banked"
        RTMODEL "__core", "plain"
        RTMODEL "__data_model", "large"
        RTMODEL "__dptr_size", "16"
        RTMODEL "__extended_stack", "disabled"
        RTMODEL "__location_for_constants", "data"
        RTMODEL "__number_of_dptrs", "1"
        RTMODEL "__register_banks", "*"
        RTMODEL "__rt_version", "1"

        RSEG DOVERLAY:DATA:NOROOT(0)
        RSEG IOVERLAY:IDATA:NOROOT(0)
        RSEG ISTACK:IDATA:NOROOT(0)
        RSEG PSTACK:XDATA:NOROOT(0)
        RSEG XSTACK:XDATA:NOROOT(0)

        EXTERN ?V0
        EXTERN ?V1
        EXTERN ?V2
        EXTERN ?V3
        EXTERN ?V4
        EXTERN ?V6
        EXTERN ?V7
        EXTERN ?V8
        EXTERN ?V9
        EXTERN ?V10
        EXTERN ?V11
        EXTERN ?V12
        EXTERN ?V13
        EXTERN ?V14
        EXTERN ?V15
        EXTERN ?V5
        EXTERN ?ALLOC_XSTACK8
        EXTERN ?BANKED_ENTER_XDATA
        EXTERN ?BANKED_LEAVE_XDATA
        EXTERN ?BDISPATCH
        EXTERN ?BRET
        EXTERN ?DEALLOC_XSTACK8
        EXTERN ?MOVE_LONG8_XDATA_XDATA
        EXTERN ?PUSH_XSTACK8_X_FOUR
        EXTERN ?PUSH_XSTACK_I_ONE
        EXTERN ?PUSH_XSTACK_I_TWO
        EXTERN ?S_SHL
        EXTERN ?US_SWITCH_SPARSE
        EXTERN ?VB
        EXTERN ?XSP
        EXTERN ?XSTACK_DISP0_8
        EXTERN ?XSTACK_DISP100_8
        EXTERN ?XSTACK_DISP101_8
        EXTERN ?XSTACK_DISP102_8
        EXTERN __INIT_XDATA_I
        EXTERN __INIT_XDATA_Z

        PUBLIC `??uartEventApplicationCB::?relay`
        FUNCTION `??uartEventApplicationCB::?relay`,0203H
        FUNCTION `??zclMultiSensor_BasicResetCB::?relay`,0203H
        FUNCTION `??zclMultiSensor_BatteryWarningCB::?relay`,0203H
        FUNCTION `??zclMultiSensor_CheckAndSendClusterAttrReport:`,0203H
        FUNCTION `??zclMultiSensor_CheckReportConfig::?relay`,0203H
        PUBLIC `??zclMultiSensor_Init::?relay`
        FUNCTION `??zclMultiSensor_Init::?relay`,0203H
        FUNCTION `??zclMultiSensor_ProcessCommissioningStatus::?r`,0203H
        FUNCTION `??zclMultiSensor_ProcessInConfigReportCmd::?rel`,0203H
        FUNCTION `??zclMultiSensor_ProcessInReadReportCfgCmd::?re`,0203H
        FUNCTION `??zclMultiSensor_ProcessIncomingMsg::?relay`,0203H
        PUBLIC `??zclMultiSensor_event_loop::?relay`
        FUNCTION `??zclMultiSensor_event_loop::?relay`,0203H
        PUBWEAK __Constant_3e8
        PUBLIC gTimeCounter
        PUBLIC uartEventApplicationCB
        FUNCTION uartEventApplicationCB,0a1603H
        ARGFRAME XSTACK, 0, STACK
        LOCFRAME XSTACK, 25, STACK
        FUNCTION zclMultiSensor_BasicResetCB,021603H
        ARGFRAME XSTACK, 0, STACK
        LOCFRAME ISTACK, 2, STACK
        FUNCTION zclMultiSensor_BatteryWarningCB,0603H
        ARGFRAME XSTACK, 0, STACK
        FUNCTION zclMultiSensor_CheckAndSendClusterAttrReport,0a1203H
        ARGFRAME XSTACK, 17, STACK
        ARGFRAME IOVERLAY, 0, STATIC
        ARGFRAME DOVERLAY, 0, STATIC
        LOCFRAME ISTACK, 1, STACK
        LOCFRAME XSTACK, 36, STACK
        FUNCTION zclMultiSensor_CheckReportConfig,0a1203H
        ARGFRAME XSTACK, 36, STACK
        ARGFRAME IOVERLAY, 0, STATIC
        ARGFRAME DOVERLAY, 0, STATIC
        LOCFRAME XSTACK, 21, STACK
        PUBLIC zclMultiSensor_Init
        FUNCTION zclMultiSensor_Init,021203H
        ARGFRAME XSTACK, 0, STACK
        LOCFRAME XSTACK, 38, STACK
        PUBLIC zclMultiSensor_NwkState
        FUNCTION zclMultiSensor_ProcessCommissioningStatus,021603H
        ARGFRAME XSTACK, 0, STACK
        LOCFRAME ISTACK, 2, STACK
        FUNCTION zclMultiSensor_ProcessInConfigReportCmd,0a1203H
        ARGFRAME XSTACK, 24, STACK
        ARGFRAME IOVERLAY, 0, STATIC
        ARGFRAME DOVERLAY, 0, STATIC
        LOCFRAME ISTACK, 1, STACK
        LOCFRAME XSTACK, 41, STACK
        FUNCTION zclMultiSensor_ProcessInReadReportCfgCmd,0a1203H
        ARGFRAME XSTACK, 24, STACK
        ARGFRAME IOVERLAY, 0, STATIC
        ARGFRAME DOVERLAY, 0, STATIC
        LOCFRAME ISTACK, 1, STACK
        LOCFRAME XSTACK, 39, STACK
        FUNCTION zclMultiSensor_ProcessIncomingMsg,0a1203H
        ARGFRAME XSTACK, 12, STACK
        ARGFRAME IOVERLAY, 0, STATIC
        ARGFRAME DOVERLAY, 0, STATIC
        LOCFRAME XSTACK, 29, STACK
        PUBLIC zclMultiSensor_TaskID
        PUBLIC zclMultiSensor_dstAddr
        PUBLIC zclMultiSensor_event_loop
        FUNCTION zclMultiSensor_event_loop,0a1203H
        ARGFRAME XSTACK, 0, STACK
        LOCFRAME XSTACK, 12, STACK
        
          CFI Names cfiNames0
          CFI StackFrame CFA_SP SP IDATA
          CFI StackFrame CFA_PSP16 PSP16 XDATA
          CFI StackFrame CFA_XSP16 XSP16 XDATA
          CFI StaticOverlayFrame CFA_IOVERLAY IOVERLAY
          CFI StaticOverlayFrame CFA_DOVERLAY DOVERLAY
          CFI Resource `PSW.CY`:1, `B.BR0`:1, `B.BR1`:1, `B.BR2`:1, `B.BR3`:1
          CFI Resource `B.BR4`:1, `B.BR5`:1, `B.BR6`:1, `B.BR7`:1, `VB.BR8`:1
          CFI Resource `VB.BR9`:1, `VB.BR10`:1, `VB.BR11`:1, `VB.BR12`:1
          CFI Resource `VB.BR13`:1, `VB.BR14`:1, `VB.BR15`:1, VB:8, B:8, A:8
          CFI Resource PSW:8, DPL0:8, DPH0:8, R0:8, R1:8, R2:8, R3:8, R4:8, R5:8
          CFI Resource R6:8, R7:8, V0:8, V1:8, V2:8, V3:8, V4:8, V5:8, V6:8, V7:8
          CFI Resource V8:8, V9:8, V10:8, V11:8, V12:8, V13:8, V14:8, V15:8, SP:8
          CFI Resource PSPH:8, PSPL:8, PSP16:16, XSPH:8, XSPL:8, XSP16:16
          CFI VirtualResource ?RET:24
          CFI Resource ?BRET_EXT:8
          CFI VirtualResource ?RET_HIGH:8, ?RET_LOW:8
          CFI ResourceParts PSP16 PSPH, PSPL
          CFI ResourceParts XSP16 XSPH, XSPL
          CFI ResourceParts ?RET ?BRET_EXT, ?RET_HIGH, ?RET_LOW
          CFI EndNames cfiNames0
        
          CFI Common cfiCommon0 Using cfiNames0
          CFI CodeAlign 1
          CFI DataAlign -1
          CFI ReturnAddress ?RET CODE
          CFI CFA_DOVERLAY Used
          CFI CFA_IOVERLAY Used
          CFI CFA_SP SP+-3
          CFI CFA_PSP16 PSP16+0
          CFI CFA_XSP16 XSP16+0
          CFI `PSW.CY` SameValue
          CFI `B.BR0` SameValue
          CFI `B.BR1` SameValue
          CFI `B.BR2` SameValue
          CFI `B.BR3` SameValue
          CFI `B.BR4` SameValue
          CFI `B.BR5` SameValue
          CFI `B.BR6` SameValue
          CFI `B.BR7` SameValue
          CFI `VB.BR8` SameValue
          CFI `VB.BR9` SameValue
          CFI `VB.BR10` SameValue
          CFI `VB.BR11` SameValue
          CFI `VB.BR12` SameValue
          CFI `VB.BR13` SameValue
          CFI `VB.BR14` SameValue
          CFI `VB.BR15` SameValue
          CFI VB SameValue
          CFI B Undefined
          CFI A Undefined
          CFI PSW SameValue
          CFI DPL0 SameValue
          CFI DPH0 SameValue
          CFI R0 Undefined
          CFI R1 Undefined
          CFI R2 Undefined
          CFI R3 Undefined
          CFI R4 Undefined
          CFI R5 Undefined
          CFI R6 SameValue
          CFI R7 SameValue
          CFI V0 SameValue
          CFI V1 SameValue
          CFI V2 SameValue
          CFI V3 SameValue
          CFI V4 SameValue
          CFI V5 SameValue
          CFI V6 SameValue
          CFI V7 SameValue
          CFI V8 SameValue
          CFI V9 SameValue
          CFI V10 SameValue
          CFI V11 SameValue
          CFI V12 SameValue
          CFI V13 SameValue
          CFI V14 SameValue
          CFI V15 SameValue
          CFI PSPH Undefined
          CFI PSPL Undefined
          CFI XSPH Undefined
          CFI XSPL Undefined
          CFI ?RET Concat
          CFI ?BRET_EXT Frame(CFA_SP, 3)
          CFI ?RET_HIGH Frame(CFA_SP, 2)
          CFI ?RET_LOW Frame(CFA_SP, 1)
          CFI EndCommon cfiCommon0
        
        
          CFI Common cfiCommon1 Using cfiNames0
          CFI CodeAlign 1
          CFI DataAlign -1
          CFI ReturnAddress ?RET CODE
          CFI CFA_DOVERLAY Used
          CFI CFA_IOVERLAY Used
          CFI CFA_SP SP+-2
          CFI CFA_PSP16 PSP16+0
          CFI CFA_XSP16 XSP16+0
          CFI `PSW.CY` SameValue
          CFI `B.BR0` SameValue
          CFI `B.BR1` SameValue
          CFI `B.BR2` SameValue
          CFI `B.BR3` SameValue
          CFI `B.BR4` SameValue
          CFI `B.BR5` SameValue
          CFI `B.BR6` SameValue
          CFI `B.BR7` SameValue
          CFI `VB.BR8` SameValue
          CFI `VB.BR9` SameValue
          CFI `VB.BR10` SameValue
          CFI `VB.BR11` SameValue
          CFI `VB.BR12` SameValue
          CFI `VB.BR13` SameValue
          CFI `VB.BR14` SameValue
          CFI `VB.BR15` SameValue
          CFI VB SameValue
          CFI B SameValue
          CFI A SameValue
          CFI PSW SameValue
          CFI DPL0 SameValue
          CFI DPH0 SameValue
          CFI R0 SameValue
          CFI R1 SameValue
          CFI R2 SameValue
          CFI R3 SameValue
          CFI R4 SameValue
          CFI R5 SameValue
          CFI R6 SameValue
          CFI R7 SameValue
          CFI V0 SameValue
          CFI V1 SameValue
          CFI V2 SameValue
          CFI V3 SameValue
          CFI V4 SameValue
          CFI V5 SameValue
          CFI V6 SameValue
          CFI V7 SameValue
          CFI V8 SameValue
          CFI V9 SameValue
          CFI V10 SameValue
          CFI V11 SameValue
          CFI V12 SameValue
          CFI V13 SameValue
          CFI V14 SameValue
          CFI V15 SameValue
          CFI PSPH Undefined
          CFI PSPL Undefined
          CFI XSPH Undefined
          CFI XSPL Undefined
          CFI ?RET Concat
          CFI ?BRET_EXT SameValue
          CFI ?RET_HIGH Frame(CFA_SP, 2)
          CFI ?RET_LOW Frame(CFA_SP, 1)
          CFI EndCommon cfiCommon1
        
HalLedBlink         SYMBOL "HalLedBlink"
`??HalLedBlink::?relay` SYMBOL "?relay", HalLedBlink
HalUARTOpen         SYMBOL "HalUARTOpen"
`??HalUARTOpen::?relay` SYMBOL "?relay", HalUARTOpen
HalUARTRead         SYMBOL "HalUARTRead"
`??HalUARTRead::?relay` SYMBOL "?relay", HalUARTRead
Hal_UART_RxBufLen   SYMBOL "Hal_UART_RxBufLen"
`??Hal_UART_RxBufLen::?relay` SYMBOL "?relay", Hal_UART_RxBufLen
RegisterForKeys     SYMBOL "RegisterForKeys"
`??RegisterForKeys::?relay` SYMBOL "?relay", RegisterForKeys
RegisterVoltageWarningCB SYMBOL "RegisterVoltageWarningCB"
`??RegisterVoltageWarningCB::?relay` SYMBOL "?relay", RegisterVoltageWarningCB
afRegister          SYMBOL "afRegister"
`??afRegister::?relay` SYMBOL "?relay", afRegister
bdb_RegisterCommissioningStatusCB SYMBOL "bdb_RegisterCommissioningStatusCB"
`??bdb_RegisterCommissioningStatusCB::?relay` SYMBOL "?relay", bdb_RegisterCommissioningStatusCB
bdb_RegisterSimpleDescriptor SYMBOL "bdb_RegisterSimpleDescriptor"
`??bdb_RegisterSimpleDescriptor::?relay` SYMBOL "?relay", bdb_RegisterSimpleDescriptor
bdb_StartCommissioning SYMBOL "bdb_StartCommissioning"
`??bdb_StartCommissioning::?relay` SYMBOL "?relay", bdb_StartCommissioning
osal_mem_alloc      SYMBOL "osal_mem_alloc"
`??osal_mem_alloc::?relay` SYMBOL "?relay", osal_mem_alloc
osal_mem_free       SYMBOL "osal_mem_free"
`??osal_mem_free::?relay` SYMBOL "?relay", osal_mem_free
osal_memset         SYMBOL "osal_memset"
`??osal_memset::?relay` SYMBOL "?relay", osal_memset
osal_msg_allocate   SYMBOL "osal_msg_allocate"
`??osal_msg_allocate::?relay` SYMBOL "?relay", osal_msg_allocate
osal_msg_deallocate SYMBOL "osal_msg_deallocate"
`??osal_msg_deallocate::?relay` SYMBOL "?relay", osal_msg_deallocate
osal_msg_receive    SYMBOL "osal_msg_receive"
`??osal_msg_receive::?relay` SYMBOL "?relay", osal_msg_receive
osal_msg_send       SYMBOL "osal_msg_send"
`??osal_msg_send::?relay` SYMBOL "?relay", osal_msg_send
osal_start_timerEx  SYMBOL "osal_start_timerEx"
`??osal_start_timerEx::?relay` SYMBOL "?relay", osal_start_timerEx
zclFindAttrRec      SYMBOL "zclFindAttrRec"
`??zclFindAttrRec::?relay` SYMBOL "?relay", zclFindAttrRec
zclFindConfigReportRec SYMBOL "zclFindConfigReportRec"
`??zclFindConfigReportRec::?relay` SYMBOL "?relay", zclFindConfigReportRec
zclFindConfigReportRecsList SYMBOL "zclFindConfigReportRecsList"
`??zclFindConfigReportRecsList::?relay` SYMBOL "?relay", zclFindConfigReportRecsList
zclGeneral_RegisterCmdCallbacks SYMBOL "zclGeneral_RegisterCmdCallbacks"
`??zclGeneral_RegisterCmdCallbacks::?relay` SYMBOL "?relay", zclGeneral_RegisterCmdCallbacks
zclMultiSensor_ResetAttributesToDefaultValues SYMBOL "zclMultiSensor_ResetAttributesToDefaultValues"
??zclMultiSensor_ResetAttributesToDefaultValues SYMBOL "?relay", zclMultiSensor_ResetAttributesToDefaultValues
zcl_SendConfigReportRspCmd SYMBOL "zcl_SendConfigReportRspCmd"
`??zcl_SendConfigReportRspCmd::?relay` SYMBOL "?relay", zcl_SendConfigReportRspCmd
zcl_SendReadReportCfgRspCmd SYMBOL "zcl_SendReadReportCfgRspCmd"
`??zcl_SendReadReportCfgRspCmd::?relay` SYMBOL "?relay", zcl_SendReadReportCfgRspCmd
zcl_SendReportCmd   SYMBOL "zcl_SendReportCmd"
`??zcl_SendReportCmd::?relay` SYMBOL "?relay", zcl_SendReportCmd
zcl_registerAttrList SYMBOL "zcl_registerAttrList"
`??zcl_registerAttrList::?relay` SYMBOL "?relay", zcl_registerAttrList
zcl_registerConfigReportRecList SYMBOL "zcl_registerConfigReportRecList"
`??zcl_registerConfigReportRecList::?relay` SYMBOL "?relay", zcl_registerConfigReportRecList
zcl_registerForMsg  SYMBOL "zcl_registerForMsg"
`??zcl_registerForMsg::?relay` SYMBOL "?relay", zcl_registerForMsg
uartEventApplicationCB SYMBOL "uartEventApplicationCB"
`??uartEventApplicationCB::?relay` SYMBOL "?relay", uartEventApplicationCB
zclMultiSensor_Init SYMBOL "zclMultiSensor_Init"
`??zclMultiSensor_Init::?relay` SYMBOL "?relay", zclMultiSensor_Init
zclMultiSensor_event_loop SYMBOL "zclMultiSensor_event_loop"
`??zclMultiSensor_event_loop::?relay` SYMBOL "?relay", zclMultiSensor_event_loop

        EXTERN `??HalLedBlink::?relay`
        FUNCTION `??HalLedBlink::?relay`,00H
        EXTERN `??HalUARTOpen::?relay`
        FUNCTION `??HalUARTOpen::?relay`,00H
        EXTERN `??HalUARTRead::?relay`
        FUNCTION `??HalUARTRead::?relay`,00H
        EXTERN `??Hal_UART_RxBufLen::?relay`
        FUNCTION `??Hal_UART_RxBufLen::?relay`,00H
        EXTERN `??RegisterForKeys::?relay`
        FUNCTION `??RegisterForKeys::?relay`,00H
        EXTERN `??RegisterVoltageWarningCB::?relay`
        FUNCTION `??RegisterVoltageWarningCB::?relay`,00H
        EXTERN `??afRegister::?relay`
        FUNCTION `??afRegister::?relay`,00H
        EXTERN `??bdb_RegisterCommissioningStatusCB::?relay`
        FUNCTION `??bdb_RegisterCommissioningStatusCB::?relay`,00H
        EXTERN `??bdb_RegisterSimpleDescriptor::?relay`
        FUNCTION `??bdb_RegisterSimpleDescriptor::?relay`,00H
        EXTERN `??bdb_StartCommissioning::?relay`
        FUNCTION `??bdb_StartCommissioning::?relay`,00H
        EXTERN `??osal_mem_alloc::?relay`
        FUNCTION `??osal_mem_alloc::?relay`,00H
        EXTERN `??osal_mem_free::?relay`
        FUNCTION `??osal_mem_free::?relay`,00H
        EXTERN `??osal_memset::?relay`
        FUNCTION `??osal_memset::?relay`,00H
        EXTERN `??osal_msg_allocate::?relay`
        FUNCTION `??osal_msg_allocate::?relay`,00H
        EXTERN `??osal_msg_deallocate::?relay`
        FUNCTION `??osal_msg_deallocate::?relay`,00H
        EXTERN `??osal_msg_receive::?relay`
        FUNCTION `??osal_msg_receive::?relay`,00H
        EXTERN `??osal_msg_send::?relay`
        FUNCTION `??osal_msg_send::?relay`,00H
        EXTERN `??osal_start_timerEx::?relay`
        FUNCTION `??osal_start_timerEx::?relay`,00H
        EXTERN `??zclFindAttrRec::?relay`
        FUNCTION `??zclFindAttrRec::?relay`,00H
        EXTERN `??zclFindConfigReportRec::?relay`
        FUNCTION `??zclFindConfigReportRec::?relay`,00H
        EXTERN `??zclFindConfigReportRecsList::?relay`
        FUNCTION `??zclFindConfigReportRecsList::?relay`,00H
        EXTERN `??zclGeneral_RegisterCmdCallbacks::?relay`
        FUNCTION `??zclGeneral_RegisterCmdCallbacks::?relay`,00H
        EXTERN ??zclMultiSensor_ResetAttributesToDefaultValues
        FUNCTION ??zclMultiSensor_ResetAttributesToDefaultValues,00H
        EXTERN `??zcl_SendConfigReportRspCmd::?relay`
        FUNCTION `??zcl_SendConfigReportRspCmd::?relay`,00H
        EXTERN `??zcl_SendReadReportCfgRspCmd::?relay`
        FUNCTION `??zcl_SendReadReportCfgRspCmd::?relay`,00H
        EXTERN `??zcl_SendReportCmd::?relay`
        FUNCTION `??zcl_SendReportCmd::?relay`,00H
        EXTERN `??zcl_registerAttrList::?relay`
        FUNCTION `??zcl_registerAttrList::?relay`,00H
        EXTERN `??zcl_registerConfigReportRecList::?relay`
        FUNCTION `??zcl_registerConfigReportRecList::?relay`,00H
        EXTERN `??zcl_registerForMsg::?relay`
        FUNCTION `??zcl_registerForMsg::?relay`,00H
        EXTERN HalLedBlink
        FUNCTION HalLedBlink,0202H
        ARGFRAME ISTACK, 2, STACK
        ARGFRAME PSTACK, 0, STACK
        ARGFRAME XSTACK, 0, STACK
        ARGFRAME IOVERLAY, 0, STATIC
        ARGFRAME DOVERLAY, 0, STATIC
        EXTERN HalUARTOpen
        FUNCTION HalUARTOpen,0202H
        ARGFRAME ISTACK, 0, STACK
        ARGFRAME PSTACK, 0, STACK
        ARGFRAME XSTACK, 38, STACK
        ARGFRAME IOVERLAY, 0, STATIC
        ARGFRAME DOVERLAY, 0, STATIC
        EXTERN HalUARTRead
        FUNCTION HalUARTRead,0202H
        ARGFRAME ISTACK, 0, STACK
        ARGFRAME PSTACK, 0, STACK
        ARGFRAME XSTACK, 25, STACK
        ARGFRAME IOVERLAY, 0, STATIC
        ARGFRAME DOVERLAY, 0, STATIC
        EXTERN Hal_UART_RxBufLen
        FUNCTION Hal_UART_RxBufLen,0202H
        ARGFRAME ISTACK, 0, STACK
        ARGFRAME PSTACK, 0, STACK
        ARGFRAME XSTACK, 25, STACK
        ARGFRAME IOVERLAY, 0, STATIC
        ARGFRAME DOVERLAY, 0, STATIC
        EXTERN RegisterForKeys
        FUNCTION RegisterForKeys,0202H
        ARGFRAME ISTACK, 0, STACK
        ARGFRAME PSTACK, 0, STACK
        ARGFRAME XSTACK, 38, STACK
        ARGFRAME IOVERLAY, 0, STATIC
        ARGFRAME DOVERLAY, 0, STATIC
        EXTERN RegisterVoltageWarningCB
        FUNCTION RegisterVoltageWarningCB,0202H
        ARGFRAME ISTACK, 0, STACK
        ARGFRAME PSTACK, 0, STACK
        ARGFRAME XSTACK, 38, STACK
        ARGFRAME IOVERLAY, 0, STATIC
        ARGFRAME DOVERLAY, 0, STATIC
        EXTERN afRegister
        FUNCTION afRegister,0202H
        ARGFRAME ISTACK, 0, STACK
        ARGFRAME PSTACK, 0, STACK
        ARGFRAME XSTACK, 38, STACK
        ARGFRAME IOVERLAY, 0, STATIC
        ARGFRAME DOVERLAY, 0, STATIC
        EXTERN bdb_RegisterCommissioningStatusCB
        FUNCTION bdb_RegisterCommissioningStatusCB,0202H
        ARGFRAME ISTACK, 0, STACK
        ARGFRAME PSTACK, 0, STACK
        ARGFRAME XSTACK, 38, STACK
        ARGFRAME IOVERLAY, 0, STATIC
        ARGFRAME DOVERLAY, 0, STATIC
        EXTERN bdb_RegisterSimpleDescriptor
        FUNCTION bdb_RegisterSimpleDescriptor,0202H
        ARGFRAME ISTACK, 0, STACK
        ARGFRAME PSTACK, 0, STACK
        ARGFRAME XSTACK, 38, STACK
        ARGFRAME IOVERLAY, 0, STATIC
        ARGFRAME DOVERLAY, 0, STATIC
        EXTERN bdb_StartCommissioning
        FUNCTION bdb_StartCommissioning,0202H
        ARGFRAME ISTACK, 2, STACK
        ARGFRAME PSTACK, 0, STACK
        ARGFRAME XSTACK, 38, STACK
        ARGFRAME IOVERLAY, 0, STATIC
        ARGFRAME DOVERLAY, 0, STATIC
        EXTERN osal_mem_alloc
        FUNCTION osal_mem_alloc,0202H
        ARGFRAME ISTACK, 0, STACK
        ARGFRAME PSTACK, 0, STACK
        ARGFRAME XSTACK, 36, STACK
        ARGFRAME IOVERLAY, 0, STATIC
        ARGFRAME DOVERLAY, 0, STATIC
        EXTERN osal_mem_free
        FUNCTION osal_mem_free,0202H
        ARGFRAME ISTACK, 0, STACK
        ARGFRAME PSTACK, 0, STACK
        ARGFRAME XSTACK, 36, STACK
        ARGFRAME IOVERLAY, 0, STATIC
        ARGFRAME DOVERLAY, 0, STATIC
        EXTERN osal_memset
        FUNCTION osal_memset,0202H
        ARGFRAME ISTACK, 0, STACK
        ARGFRAME PSTACK, 0, STACK
        ARGFRAME XSTACK, 36, STACK
        ARGFRAME IOVERLAY, 0, STATIC
        ARGFRAME DOVERLAY, 0, STATIC
        EXTERN osal_msg_allocate
        FUNCTION osal_msg_allocate,0202H
        ARGFRAME ISTACK, 0, STACK
        ARGFRAME PSTACK, 0, STACK
        ARGFRAME XSTACK, 34, STACK
        ARGFRAME IOVERLAY, 0, STATIC
        ARGFRAME DOVERLAY, 0, STATIC
        EXTERN osal_msg_deallocate
        FUNCTION osal_msg_deallocate,0202H
        ARGFRAME ISTACK, 0, STACK
        ARGFRAME PSTACK, 0, STACK
        ARGFRAME XSTACK, 12, STACK
        ARGFRAME IOVERLAY, 0, STATIC
        ARGFRAME DOVERLAY, 0, STATIC
        EXTERN osal_msg_receive
        FUNCTION osal_msg_receive,0202H
        ARGFRAME ISTACK, 0, STACK
        ARGFRAME PSTACK, 0, STACK
        ARGFRAME XSTACK, 12, STACK
        ARGFRAME IOVERLAY, 0, STATIC
        ARGFRAME DOVERLAY, 0, STATIC
        EXTERN osal_msg_send
        FUNCTION osal_msg_send,0202H
        ARGFRAME ISTACK, 0, STACK
        ARGFRAME PSTACK, 0, STACK
        ARGFRAME XSTACK, 34, STACK
        ARGFRAME IOVERLAY, 0, STATIC
        ARGFRAME DOVERLAY, 0, STATIC
        EXTERN osal_start_timerEx
        FUNCTION osal_start_timerEx,0202H
        ARGFRAME ISTACK, 0, STACK
        ARGFRAME PSTACK, 0, STACK
        ARGFRAME XSTACK, 21, STACK
        ARGFRAME IOVERLAY, 0, STATIC
        ARGFRAME DOVERLAY, 0, STATIC
        EXTERN zclFindAttrRec
        FUNCTION zclFindAttrRec,0202H
        ARGFRAME ISTACK, 0, STACK
        ARGFRAME PSTACK, 0, STACK
        ARGFRAME XSTACK, 38, STACK
        ARGFRAME IOVERLAY, 0, STATIC
        ARGFRAME DOVERLAY, 0, STATIC
        EXTERN zclFindConfigReportRec
        FUNCTION zclFindConfigReportRec,0202H
        ARGFRAME ISTACK, 0, STACK
        ARGFRAME PSTACK, 0, STACK
        ARGFRAME XSTACK, 38, STACK
        ARGFRAME IOVERLAY, 0, STATIC
        ARGFRAME DOVERLAY, 0, STATIC
        EXTERN zclFindConfigReportRecsList
        FUNCTION zclFindConfigReportRecsList,0202H
        ARGFRAME ISTACK, 0, STACK
        ARGFRAME PSTACK, 0, STACK
        ARGFRAME XSTACK, 17, STACK
        ARGFRAME IOVERLAY, 0, STATIC
        ARGFRAME DOVERLAY, 0, STATIC
        EXTERN zclGeneral_RegisterCmdCallbacks
        FUNCTION zclGeneral_RegisterCmdCallbacks,0202H
        ARGFRAME ISTACK, 0, STACK
        ARGFRAME PSTACK, 0, STACK
        ARGFRAME XSTACK, 38, STACK
        ARGFRAME IOVERLAY, 0, STATIC
        ARGFRAME DOVERLAY, 0, STATIC
        EXTERN zclMultiSensor_Attrs
        EXTERN zclMultiSensor_CO2_MeasuredValue
        EXTERN zclMultiSensor_ConfigReportRecs
        EXTERN zclMultiSensor_Humidity_MeasuredValue
        EXTERN zclMultiSensor_Light_MeasuredValue
        EXTERN zclMultiSensor_NumAttributes
        EXTERN zclMultiSensor_NumConfigReportRecs
        EXTERN zclMultiSensor_Pir_Status
        EXTERN zclMultiSensor_ResetAttributesToDefaultValues
        FUNCTION zclMultiSensor_ResetAttributesToDefaultValues,0202H
        ARGFRAME ISTACK, 2, STACK
        ARGFRAME PSTACK, 0, STACK
        ARGFRAME XSTACK, 38, STACK
        ARGFRAME IOVERLAY, 0, STATIC
        ARGFRAME DOVERLAY, 0, STATIC
        EXTERN zclMultiSensor_SimpleDesc
        EXTERN zclMultiSensor_TVOC_MeasuredValue
        EXTERN zclMultiSensor_Temperature_MeasuredValue
        EXTERN zcl_SendConfigReportRspCmd
        FUNCTION zcl_SendConfigReportRspCmd,0202H
        ARGFRAME ISTACK, 0, STACK
        ARGFRAME PSTACK, 0, STACK
        ARGFRAME XSTACK, 41, STACK
        ARGFRAME IOVERLAY, 0, STATIC
        ARGFRAME DOVERLAY, 0, STATIC
        EXTERN zcl_SendReadReportCfgRspCmd
        FUNCTION zcl_SendReadReportCfgRspCmd,0202H
        ARGFRAME ISTACK, 0, STACK
        ARGFRAME PSTACK, 0, STACK
        ARGFRAME XSTACK, 39, STACK
        ARGFRAME IOVERLAY, 0, STATIC
        ARGFRAME DOVERLAY, 0, STATIC
        EXTERN zcl_SendReportCmd
        FUNCTION zcl_SendReportCmd,0202H
        ARGFRAME ISTACK, 0, STACK
        ARGFRAME PSTACK, 0, STACK
        ARGFRAME XSTACK, 29, STACK
        ARGFRAME IOVERLAY, 0, STATIC
        ARGFRAME DOVERLAY, 0, STATIC
        EXTERN zcl_registerAttrList
        FUNCTION zcl_registerAttrList,0202H
        ARGFRAME ISTACK, 0, STACK
        ARGFRAME PSTACK, 0, STACK
        ARGFRAME XSTACK, 38, STACK
        ARGFRAME IOVERLAY, 0, STATIC
        ARGFRAME DOVERLAY, 0, STATIC
        EXTERN zcl_registerConfigReportRecList
        FUNCTION zcl_registerConfigReportRecList,0202H
        ARGFRAME ISTACK, 0, STACK
        ARGFRAME PSTACK, 0, STACK
        ARGFRAME XSTACK, 38, STACK
        ARGFRAME IOVERLAY, 0, STATIC
        ARGFRAME DOVERLAY, 0, STATIC
        EXTERN zcl_registerForMsg
        FUNCTION zcl_registerForMsg,0202H
        ARGFRAME ISTACK, 0, STACK
        ARGFRAME PSTACK, 0, STACK
        ARGFRAME XSTACK, 38, STACK
        ARGFRAME IOVERLAY, 0, STATIC
        ARGFRAME DOVERLAY, 0, STATIC
        EXTERN zdpExternalStateTaskID

// C:\Users\TS-577\Desktop\Zigbee workspace\MultiSensorDevice\Projects\zstack\HomeAutomation\MultiSensor\Source\zcl_MultiSensor.c
//    1 /**************************************************************************************************
//    2   Filename:       zcl_sampletemperaturesensor.c
//    3   Revised:        $Date: 2014-10-24 16:04:46 -0700 (Fri, 24 Oct 2014) $
//    4   Revision:       $Revision: 40796 $
//    5 
//    6   Description:    Zigbee Cluster Library - sample device application.
//    7 
//    8 
//    9   Copyright 2013 Texas Instruments Incorporated. All rights reserved.
//   10 
//   11   IMPORTANT: Your use of this Software is limited to those specific rights
//   12   granted under the terms of a software license agreement between the user
//   13   who downloaded the software, his/her employer (which must be your employer)
//   14   and Texas Instruments Incorporated (the "License").  You may not use this
//   15   Software unless you agree to abide by the terms of the License. The License
//   16   limits your use, and you acknowledge, that the Software may not be modified,
//   17   copied or distributed unless embedded on a Texas Instruments microcontroller
//   18   or used solely and exclusively in conjunction with a Texas Instruments radio
//   19   frequency transceiver, which is integrated into your product.  Other than for
//   20   the foregoing purpose, you may not use, reproduce, copy, prepare derivative
//   21   works of, modify, distribute, perform, display or sell this Software and/or
//   22   its documentation for any purpose.
//   23 
//   24   YOU FURTHER ACKNOWLEDGE AND AGREE THAT THE SOFTWARE AND DOCUMENTATION ARE
//   25   PROVIDED "AS IS" WITHOUT WARRANTY OF ANY KIND, EITHER EXPRESS OR IMPLIED,
//   26   INCLUDING WITHOUT LIMITATION, ANY WARRANTY OF MERCHANTABILITY, TITLE,
//   27   NON-INFRINGEMENT AND FITNESS FOR A PARTICULAR PURPOSE. IN NO EVENT SHALL
//   28   TEXAS INSTRUMENTS OR ITS LICENSORS BE LIABLE OR OBLIGATED UNDER CONTRACT,
//   29   NEGLIGENCE, STRICT LIABILITY, CONTRIBUTION, BREACH OF WARRANTY, OR OTHER
//   30   LEGAL EQUITABLE THEORY ANY DIRECT OR INDIRECT DAMAGES OR EXPENSES
//   31   INCLUDING BUT NOT LIMITED TO ANY INCIDENTAL, SPECIAL, INDIRECT, PUNITIVE
//   32   OR CONSEQUENTIAL DAMAGES, LOST PROFITS OR LOST DATA, COST OF PROCUREMENT
//   33   OF SUBSTITUTE GOODS, TECHNOLOGY, SERVICES, OR ANY CLAIMS BY THIRD PARTIES
//   34   (INCLUDING BUT NOT LIMITED TO ANY DEFENSE THEREOF), OR OTHER SIMILAR COSTS.
//   35 
//   36   Should you have any questions regarding your right to use this Software,
//   37   contact Texas Instruments Incorporated at www.TI.com.
//   38 **************************************************************************************************/
//   39 
//   40 /*********************************************************************
//   41   This application implements a ZigBee Multi Sensor, based on Z-Stack 3.0.
//   42 
//   43   - MultiSensor Object includes 6 sensors:
//   44       + Illuminance Sensor - Report to linux gateway after period time
//   45       + Temperature Sensor - Report to linux gateway after change value with step 1 celcius
//   46       + Humidity Sensor - Report to linux gateway after change value with step 1%RH
//   47       + Occupancy Sensor - Report to linux gateway after change value
//   48       + TVOC Sensor - Report to linux gateway after period time
//   49       + Co2 Sensor - Report to linux gateway after period time
//   50   - Multi sensor device act as end device with always power on 
//   51   - Multi sensor device will receive date of sensors from stm32 with protocol follwed:
//   52      |XXXX,YYYY,ZZZZ,DDDD,KKKK,LLLL\r\n| : format packet
//   53 
//   54 *********************************************************************/
//   55 
//   56 /*********************************************************************
//   57  * INCLUDES
//   58  */
//   59 #include "ZComDef.h"
//   60 #include "OSAL.h"
//   61 #include "AF.h"
//   62 #include "ZDApp.h"
//   63 #include "ZDObject.h"
//   64 #include "ZDProfile.h"
//   65 
//   66 #include "zcl.h"
//   67 #include "zcl_general.h"
//   68 #include "zcl_ha.h"
//   69 #include "zcl_ms.h"
//   70 
//   71 #include "zcl_MultiSensor.h"
//   72 
//   73 #include "onboard.h"
//   74 
//   75 /* HAL */
//   76 #include "hal_led.h"
//   77 #include "hal_key.h"
//   78 #include "hal_uart.h"
//   79 
//   80 #include "bdb_interface.h"
//   81 #include "bdb_Reporting.h"
//   82    
//   83 /*********************************************************************
//   84  * MACROS
//   85  */
//   86 
//   87 #define zcl_AccessCtrlRead( a )       ( (a) & ACCESS_CONTROL_READ )
//   88 
//   89 /*********************************************************************
//   90  * CONSTANTS
//   91  */
//   92 
//   93 /*********************************************************************
//   94  * TYPEDEFS
//   95  */
//   96 
//   97 /*********************************************************************
//   98  * GLOBAL VARIABLES
//   99  */

        RSEG XDATA_Z:XDATA:NOROOT(0)
        DATA8
//  100 byte zclMultiSensor_TaskID;
zclMultiSensor_TaskID:
        DS 1
        REQUIRE __INIT_XDATA_Z

        RSEG XDATA_Z:XDATA:NOROOT(0)
        DATA8
//  101 afAddrType_t zclMultiSensor_dstAddr;
zclMultiSensor_dstAddr:
        DS 12
        REQUIRE __INIT_XDATA_Z

        RSEG XDATA_I:XDATA:NOROOT(0)
//  102 devStates_t zclMultiSensor_NwkState = DEV_INIT;
zclMultiSensor_NwkState:
        DATA8
        DS 1
        REQUIRE `?<Initializer for zclMultiSensor_NwkState>`
        REQUIRE __INIT_XDATA_I
//  103 extern int16 zdpExternalStateTaskID;
//  104 

        RSEG XDATA_Z:XDATA:NOROOT(0)
        DATA16
//  105 uint16 gTimeCounter;
gTimeCounter:
        DS 2
        REQUIRE __INIT_XDATA_Z
//  106 /*********************************************************************
//  107  * GLOBAL FUNCTIONS
//  108  */
//  109 
//  110 /*********************************************************************
//  111  * LOCAL VARIABLES
//  112  */

        RSEG XDATA_I:XDATA:NOROOT(0)
//  113 static endPointDesc_t multiSensor_Ep =
multiSensor_Ep:
        DATA8
        DS 7
        REQUIRE `?<Initializer for multiSensor_Ep>`
        REQUIRE __INIT_XDATA_I
//  114 {
//  115   MULTISENSOR_ENDPOINT,           
//  116   0,
//  117   &zclMultiSensor_TaskID,
//  118   (SimpleDescriptionFormat_t *)NULL,        // No Simple description for this test endpoint
//  119   (afNetworkLatencyReq_t)0                  // No Network Latency req
//  120 };
//  121 
//  122 /*********************************************************************
//  123  * LOCAL FUNCTIONS
//  124  */
//  125   
//  126 // Functions to process other events relate to hardware
//  127 static void zclMultiSensor_HandleKeys( byte shift, byte keys );
//  128 static void zclMultiSensor_BasicResetCB( void );
//  129 static void zclMultiSensor_BatteryWarningCB( uint8 voltLevel);
//  130 
//  131 // Function to process Commisioning
//  132 static void zclMultiSensor_ProcessCommissioningStatus(bdbCommissioningModeMsg_t* bdbCommissioningModeMsg);
//  133 
//  134 // Functions to process ZCL Foundation incoming Command/Response messages
//  135 static void zclMultiSensor_ProcessIncomingMsg( zclIncomingMsg_t *msg );
//  136 #ifdef ZCL_READ
//  137 static uint8 zclMultiSensor_ProcessInReadRspCmd( zclIncomingMsg_t *pInMsg );
//  138 #endif
//  139 #ifdef ZCL_WRITE
//  140 static uint8 zclMultiSensor_ProcessInWriteRspCmd( zclIncomingMsg_t *pInMsg );
//  141 #endif
//  142 
//  143 // Functions to process ZCL REPORT message
//  144 static void zclMultiSensor_ProcessInReportCmd( zclIncomingMsg_t *pInMsg );
//  145 static uint8 zclMultiSensor_ProcessInConfigReportCmd( zclIncomingMsg_t *pInMsg );
//  146 static uint8 zclMultiSensor_ProcessInReadReportCfgCmd( zclIncomingMsg_t *pInMsg );
//  147 static void zclMultiSensor_CheckReportConfig(void);
//  148 static uint8 SendZclAttrReport(uint8 srcEp, uint16 clusterId, zclReportCmd_t *pReportCmd, uint8 datalen);
//  149 static void zclMultiSensor_CheckAndSendClusterAttrReport( uint8 endpoint, uint16 clusterId,
//  150                                                           zclConfigReportRecsList *pConfigReportRecsList );
//  151 
//  152 static uint8 zclMultiSensor_ProcessInDefaultRspCmd( zclIncomingMsg_t *pInMsg );
//  153 
//  154 // Functions to process UART interface
//  155 static void zclMultiSensor_UART_Init(void);
//  156 void uartEventApplicationCB(uint8 port, uint8 event);
//  157 
//  158 
//  159 
//  160 
//  161 /*********************************************************************
//  162  * STATUS STRINGS
//  163  */
//  164 
//  165 /*********************************************************************
//  166  * CONSTANTS
//  167  */
//  168 
//  169 /*********************************************************************
//  170  * ZCL General Profile Callback table
//  171  */

        RSEG XDATA_I:XDATA:NOROOT(0)
//  172 static zclGeneral_AppCallbacks_t zclMultiSensor_CmdCallbacks =
zclMultiSensor_CmdCallbacks:
        DATA8
        DS 18
        REQUIRE `?<Initializer for zclMultiSensor_CmdCallbacks>`
        REQUIRE __INIT_XDATA_I
//  173 {
//  174 // ************************************ Callback List of PIR Sensor Endpoint *********************************************/  
//  175     zclMultiSensor_BasicResetCB,         // Basic Cluster Reset command
//  176     NULL,                                           // Identify Trigger Effect command
//  177     NULL,             				                      // On/Off cluster command
//  178     NULL,                                           // On/Off cluster enhanced command Off with Effect
//  179     NULL,                                           // On/Off cluster enhanced command On with Recall Global Scene
//  180     NULL,                                           // On/Off cluster enhanced command On with Timed Off
//  181   #ifdef ZCL_LEVEL_CTRL
//  182     NULL,                                           // Level Control Move to Level command
//  183     NULL,                                           // Level Control Move command
//  184     NULL,                                           // Level Control Step command
//  185     NULL,                                           // Level Control Stop command
//  186   #endif
//  187   #ifdef ZCL_GROUPS
//  188     NULL,                                           // Group Response commands
//  189   #endif
//  190   #ifdef ZCL_SCENES
//  191     NULL,                                           // Scene Store Request command
//  192     NULL,                                           // Scene Recall Request command
//  193     NULL,                                           // Scene Response command
//  194   #endif
//  195   #ifdef ZCL_ALARMS
//  196     NULL,                                           // Alarm (Response) commands
//  197   #endif
//  198   #ifdef SE_UK_EXT
//  199     NULL,                                           // Get Event Log command
//  200     NULL,                                           // Publish Event Log command
//  201   #endif
//  202     NULL,                                           // RSSI Location command
//  203     NULL                                            // RSSI Location Response command
//  204 };
//  205 
//  206 
//  207 /*********************************************************************
//  208  * @fn          zclMultiSensor_Init
//  209  *
//  210  * @brief       Initialization function for the zclGeneral layer.
//  211  *
//  212  * @param       none
//  213 *
//  214 * @return      none
//  215 */

        RSEG BANKED_CODE:HUGECODE:NOROOT(0)
//  216 void zclMultiSensor_Init( byte task_id )
zclMultiSensor_Init:
          CFI Block cfiBlock0 Using cfiCommon0
          CFI Function zclMultiSensor_Init
        CODE
//  217 {
        FUNCALL zclMultiSensor_Init, bdb_RegisterSimpleDescriptor
        LOCFRAME ISTACK, 0, STACK
        LOCFRAME PSTACK, 0, STACK
        LOCFRAME XSTACK, 38, STACK
        LOCFRAME IOVERLAY, 0, STATIC
        LOCFRAME DOVERLAY, 0, STATIC
        ARGFRAME ISTACK, 0, STACK
        ARGFRAME PSTACK, 0, STACK
        ARGFRAME XSTACK, 38, STACK
        ARGFRAME IOVERLAY, 0, STATIC
        ARGFRAME DOVERLAY, 0, STATIC
        FUNCALL zclMultiSensor_Init, zclGeneral_RegisterCmdCallbacks
        LOCFRAME ISTACK, 0, STACK
        LOCFRAME PSTACK, 0, STACK
        LOCFRAME XSTACK, 38, STACK
        LOCFRAME IOVERLAY, 0, STATIC
        LOCFRAME DOVERLAY, 0, STATIC
        ARGFRAME ISTACK, 0, STACK
        ARGFRAME PSTACK, 0, STACK
        ARGFRAME XSTACK, 38, STACK
        ARGFRAME IOVERLAY, 0, STATIC
        ARGFRAME DOVERLAY, 0, STATIC
        FUNCALL zclMultiSensor_Init, zclMultiSensor_ResetAttributesToDefaultValues
        LOCFRAME ISTACK, 0, STACK
        LOCFRAME PSTACK, 0, STACK
        LOCFRAME XSTACK, 38, STACK
        LOCFRAME IOVERLAY, 0, STATIC
        LOCFRAME DOVERLAY, 0, STATIC
        ARGFRAME ISTACK, 0, STACK
        ARGFRAME PSTACK, 0, STACK
        ARGFRAME XSTACK, 38, STACK
        ARGFRAME IOVERLAY, 0, STATIC
        ARGFRAME DOVERLAY, 0, STATIC
        FUNCALL zclMultiSensor_Init, zcl_registerAttrList
        LOCFRAME ISTACK, 0, STACK
        LOCFRAME PSTACK, 0, STACK
        LOCFRAME XSTACK, 38, STACK
        LOCFRAME IOVERLAY, 0, STATIC
        LOCFRAME DOVERLAY, 0, STATIC
        ARGFRAME ISTACK, 0, STACK
        ARGFRAME PSTACK, 0, STACK
        ARGFRAME XSTACK, 38, STACK
        ARGFRAME IOVERLAY, 0, STATIC
        ARGFRAME DOVERLAY, 0, STATIC
        FUNCALL zclMultiSensor_Init, zcl_registerForMsg
        LOCFRAME ISTACK, 0, STACK
        LOCFRAME PSTACK, 0, STACK
        LOCFRAME XSTACK, 38, STACK
        LOCFRAME IOVERLAY, 0, STATIC
        LOCFRAME DOVERLAY, 0, STATIC
        ARGFRAME ISTACK, 0, STACK
        ARGFRAME PSTACK, 0, STACK
        ARGFRAME XSTACK, 38, STACK
        ARGFRAME IOVERLAY, 0, STATIC
        ARGFRAME DOVERLAY, 0, STATIC
        FUNCALL zclMultiSensor_Init, RegisterVoltageWarningCB
        LOCFRAME ISTACK, 0, STACK
        LOCFRAME PSTACK, 0, STACK
        LOCFRAME XSTACK, 38, STACK
        LOCFRAME IOVERLAY, 0, STATIC
        LOCFRAME DOVERLAY, 0, STATIC
        ARGFRAME ISTACK, 0, STACK
        ARGFRAME PSTACK, 0, STACK
        ARGFRAME XSTACK, 38, STACK
        ARGFRAME IOVERLAY, 0, STATIC
        ARGFRAME DOVERLAY, 0, STATIC
        FUNCALL zclMultiSensor_Init, RegisterForKeys
        LOCFRAME ISTACK, 0, STACK
        LOCFRAME PSTACK, 0, STACK
        LOCFRAME XSTACK, 38, STACK
        LOCFRAME IOVERLAY, 0, STATIC
        LOCFRAME DOVERLAY, 0, STATIC
        ARGFRAME ISTACK, 0, STACK
        ARGFRAME PSTACK, 0, STACK
        ARGFRAME XSTACK, 38, STACK
        ARGFRAME IOVERLAY, 0, STATIC
        ARGFRAME DOVERLAY, 0, STATIC
        FUNCALL zclMultiSensor_Init, HalUARTOpen
        LOCFRAME ISTACK, 0, STACK
        LOCFRAME PSTACK, 0, STACK
        LOCFRAME XSTACK, 38, STACK
        LOCFRAME IOVERLAY, 0, STATIC
        LOCFRAME DOVERLAY, 0, STATIC
        ARGFRAME ISTACK, 0, STACK
        ARGFRAME PSTACK, 0, STACK
        ARGFRAME XSTACK, 38, STACK
        ARGFRAME IOVERLAY, 0, STATIC
        ARGFRAME DOVERLAY, 0, STATIC
        FUNCALL zclMultiSensor_Init, zcl_registerConfigReportRecList
        LOCFRAME ISTACK, 0, STACK
        LOCFRAME PSTACK, 0, STACK
        LOCFRAME XSTACK, 38, STACK
        LOCFRAME IOVERLAY, 0, STATIC
        LOCFRAME DOVERLAY, 0, STATIC
        ARGFRAME ISTACK, 0, STACK
        ARGFRAME PSTACK, 0, STACK
        ARGFRAME XSTACK, 38, STACK
        ARGFRAME IOVERLAY, 0, STATIC
        ARGFRAME DOVERLAY, 0, STATIC
        FUNCALL zclMultiSensor_Init, bdb_RegisterCommissioningStatusCB
        LOCFRAME ISTACK, 0, STACK
        LOCFRAME PSTACK, 0, STACK
        LOCFRAME XSTACK, 38, STACK
        LOCFRAME IOVERLAY, 0, STATIC
        LOCFRAME DOVERLAY, 0, STATIC
        ARGFRAME ISTACK, 0, STACK
        ARGFRAME PSTACK, 0, STACK
        ARGFRAME XSTACK, 38, STACK
        ARGFRAME IOVERLAY, 0, STATIC
        ARGFRAME DOVERLAY, 0, STATIC
        FUNCALL zclMultiSensor_Init, afRegister
        LOCFRAME ISTACK, 0, STACK
        LOCFRAME PSTACK, 0, STACK
        LOCFRAME XSTACK, 38, STACK
        LOCFRAME IOVERLAY, 0, STATIC
        LOCFRAME DOVERLAY, 0, STATIC
        ARGFRAME ISTACK, 0, STACK
        ARGFRAME PSTACK, 0, STACK
        ARGFRAME XSTACK, 38, STACK
        ARGFRAME IOVERLAY, 0, STATIC
        ARGFRAME DOVERLAY, 0, STATIC
        FUNCALL zclMultiSensor_Init, bdb_StartCommissioning
        LOCFRAME ISTACK, 0, STACK
        LOCFRAME PSTACK, 0, STACK
        LOCFRAME XSTACK, 38, STACK
        LOCFRAME IOVERLAY, 0, STATIC
        LOCFRAME DOVERLAY, 0, STATIC
        ARGFRAME ISTACK, 0, STACK
        ARGFRAME PSTACK, 0, STACK
        ARGFRAME XSTACK, 38, STACK
        ARGFRAME IOVERLAY, 0, STATIC
        ARGFRAME DOVERLAY, 0, STATIC
        MOV       A,#-0x9
        LCALL     ?BANKED_ENTER_XDATA
          CFI DPH0 load(1, XDATA, add(CFA_XSP16, literal(-1)))
          CFI DPL0 load(1, XDATA, add(CFA_XSP16, literal(-2)))
          CFI ?BRET_EXT load(1, XDATA, add(CFA_XSP16, literal(-3)))
          CFI ?RET_HIGH load(1, XDATA, add(CFA_XSP16, literal(-4)))
          CFI ?RET_LOW load(1, XDATA, add(CFA_XSP16, literal(-5)))
          CFI R7 load(1, XDATA, add(CFA_XSP16, literal(-6)))
          CFI V0 load(1, XDATA, add(CFA_XSP16, literal(-7)))
          CFI VB load(1, XDATA, add(CFA_XSP16, literal(-8)))
          CFI R6 load(1, XDATA, add(CFA_XSP16, literal(-9)))
          CFI CFA_SP SP+0
          CFI CFA_XSP16 add(XSP16, 9)
        ; Saved register size: 9
        ; Auto size: 29
        MOV       A,#-0x1d
        LCALL     ?ALLOC_XSTACK8
          CFI CFA_XSP16 add(XSP16, 38)
        MOV       A,R1
//  218   zclMultiSensor_TaskID = task_id;
        MOV       DPTR,#zclMultiSensor_TaskID
        MOVX      @DPTR,A
//  219   
//  220   // Set destination address of PIR Sensor to indirect
//  221   zclMultiSensor_dstAddr.addrMode = (afAddrMode_t)Addr16Bit;
        MOV       DPTR,#zclMultiSensor_dstAddr + 8
        MOV       A,#0x2
        MOVX      @DPTR,A
//  222   //zclMultiSensor_dstAddr.endPoint = COOR_ENDPOINT_PIR;
//  223   zclMultiSensor_dstAddr.addr.shortAddr = 0x0000;                //Adress of coordinator
        MOV       DPTR,#zclMultiSensor_dstAddr
        CLR       A
        MOVX      @DPTR,A
        INC       DPTR
        MOVX      @DPTR,A
//  224   
//  225   // Register the Simple Descriptor for this application
//  226   bdb_RegisterSimpleDescriptor( &zclMultiSensor_SimpleDesc );
        ; Setup parameters for call to function bdb_RegisterSimpleDescriptor
        MOV       R2,#zclMultiSensor_SimpleDesc & 0xff
        MOV       R3,#(zclMultiSensor_SimpleDesc >> 8) & 0xff
        LCALL     `??bdb_RegisterSimpleDescriptor::?relay`; Banked call to: bdb_RegisterSimpleDescriptor
//  227   
//  228   // Register the ZCL General Cluster Library callback functions
//  229   zclGeneral_RegisterCmdCallbacks( MULTISENSOR_ENDPOINT, &zclMultiSensor_CmdCallbacks );
        ; Setup parameters for call to function zclGeneral_RegisterCmdCallbacks
        MOV       R2,#zclMultiSensor_CmdCallbacks & 0xff
        MOV       R3,#(zclMultiSensor_CmdCallbacks >> 8) & 0xff
        MOV       R1,#0x8
        LCALL     `??zclGeneral_RegisterCmdCallbacks::?relay`; Banked call to: zclGeneral_RegisterCmdCallbacks
//  230 
//  231 
//  232   // Register the application's attribute list
//  233   zclMultiSensor_ResetAttributesToDefaultValues();
        ; Setup parameters for call to function zclMultiSensor_ResetAttributesToDefaultValues
        LCALL     ??zclMultiSensor_ResetAttributesToDefaultValues; Banked call to: zclMultiSensor_ResetAttributesToDefaultValues
//  234   zcl_registerAttrList( MULTISENSOR_ENDPOINT, zclMultiSensor_NumAttributes, zclMultiSensor_Attrs );    
        ; Setup parameters for call to function zcl_registerAttrList
        MOV       R4,#zclMultiSensor_Attrs & 0xff
        MOV       R5,#(zclMultiSensor_Attrs >> 8) & 0xff
        MOV       DPTR,#zclMultiSensor_NumAttributes
        CLR       A
        MOVC      A,@A+DPTR
        MOV       R2,A
        MOV       R1,#0x8
        LCALL     `??zcl_registerAttrList::?relay`; Banked call to: zcl_registerAttrList
//  235   
//  236   // Register the Application to receive the unprocessed Foundation command/response messages
//  237   zcl_registerForMsg( zclMultiSensor_TaskID );
        ; Setup parameters for call to function zcl_registerForMsg
        MOV       DPTR,#zclMultiSensor_TaskID
        MOVX      A,@DPTR
        MOV       R1,A
        LCALL     `??zcl_registerForMsg::?relay`; Banked call to: zcl_registerForMsg
//  238     
//  239   // Register low voltage NV memory protection application callback
//  240   RegisterVoltageWarningCB( zclMultiSensor_BatteryWarningCB );
        ; Setup parameters for call to function RegisterVoltageWarningCB
        MOV       R2,#`??zclMultiSensor_BatteryWarningCB::?relay` & 0xff
        MOV       R3,#(`??zclMultiSensor_BatteryWarningCB::?relay` >> 8) & 0xff
        LCALL     `??RegisterVoltageWarningCB::?relay`; Banked call to: RegisterVoltageWarningCB
//  241   
//  242   // Register for all key events - This app will handle all key events
//  243   RegisterForKeys( zclMultiSensor_TaskID );
        ; Setup parameters for call to function RegisterForKeys
        MOV       DPTR,#zclMultiSensor_TaskID
        MOVX      A,@DPTR
        MOV       R1,A
        LCALL     `??RegisterForKeys::?relay`; Banked call to: RegisterForKeys
//  244   
//  245   zclMultiSensor_UART_Init();
        MOV       DPL,?XSP + 0
        MOV       DPH,?XSP + 1
        MOV       A,#0x1
        MOVX      @DPTR,A
        LCALL     ?XSTACK_DISP0_8
        MOV       A,#0x2
        MOVX      @DPTR,A
        LCALL     ?XSTACK_DISP0_8
        CLR       A
        MOVX      @DPTR,A
        MOV       A,#0x3
        LCALL     ?XSTACK_DISP0_8
        MOV       A,#0x30
        MOVX      @DPTR,A
        INC       DPTR
        CLR       A
        MOVX      @DPTR,A
        MOV       A,#0xa
        LCALL     ?XSTACK_DISP0_8
        MOV       A,#0x4b
        MOVX      @DPTR,A
        INC       DPTR
        CLR       A
        MOVX      @DPTR,A
        MOV       A,#0x12
        LCALL     ?XSTACK_DISP0_8
        MOV       A,#0x7
        MOVX      @DPTR,A
        INC       DPTR
        CLR       A
        MOVX      @DPTR,A
        MOV       A,#0x5
        LCALL     ?XSTACK_DISP0_8
        MOV       A,#0x6
        MOVX      @DPTR,A
        MOV       A,#0x16
        LCALL     ?XSTACK_DISP0_8
        MOV       A,#0x1
        MOVX      @DPTR,A
        MOV       A,#0x1b
        LCALL     ?XSTACK_DISP0_8
        MOV       A,#`??uartEventApplicationCB::?relay` & 0xff
        MOVX      @DPTR,A
        INC       DPTR
        MOV       A,#(`??uartEventApplicationCB::?relay` >> 8) & 0xff
        MOVX      @DPTR,A
        ; Setup parameters for call to function HalUARTOpen
        MOV       R2,?XSP + 0
        MOV       R3,?XSP + 1
        MOV       R1,#0x0
        LCALL     `??HalUARTOpen::?relay`; Banked call to: HalUARTOpen
//  246    
//  247   // Register the application's config report record list
//  248   zcl_registerConfigReportRecList( MULTISENSOR_ENDPOINT,
//  249                                    zclMultiSensor_NumConfigReportRecs, zclMultiSensor_ConfigReportRecs );
        ; Setup parameters for call to function zcl_registerConfigReportRecList
        MOV       R4,#zclMultiSensor_ConfigReportRecs & 0xff
        MOV       R5,#(zclMultiSensor_ConfigReportRecs >> 8) & 0xff
        MOV       DPTR,#zclMultiSensor_NumConfigReportRecs
        CLR       A
        MOVC      A,@A+DPTR
        MOV       R2,A
        MOV       R1,#0x8
        LCALL     `??zcl_registerConfigReportRecList::?relay`; Banked call to: zcl_registerConfigReportRecList
//  250  
//  251   
//  252   // Register commissioning status callback
//  253   bdb_RegisterCommissioningStatusCB( zclMultiSensor_ProcessCommissioningStatus );
        ; Setup parameters for call to function bdb_RegisterCommissioningStatusCB
        MOV       R2,#`??zclMultiSensor_ProcessCommissioningStatus::?r` & 0xff
        MOV       R3,#(`??zclMultiSensor_ProcessCommissioningStatus::?r` >> 8) & 0xff
        LCALL     `??bdb_RegisterCommissioningStatusCB::?relay`; Banked call to: bdb_RegisterCommissioningStatusCB
//  254   
//  255   //Register for Endpoints
//  256   afRegister( &multiSensor_Ep );
        ; Setup parameters for call to function afRegister
        MOV       R2,#multiSensor_Ep & 0xff
        MOV       R3,#(multiSensor_Ep >> 8) & 0xff
        LCALL     `??afRegister::?relay`; Banked call to: afRegister
//  257 
//  258   bdb_StartCommissioning( BDB_COMMISSIONING_MODE_NWK_STEERING);
        ; Setup parameters for call to function bdb_StartCommissioning
        MOV       R1,#0x2
        LCALL     `??bdb_StartCommissioning::?relay`; Banked call to: bdb_StartCommissioning
//  259   zdpExternalStateTaskID = zclMultiSensor_TaskID;
        MOV       DPTR,#zclMultiSensor_TaskID
        MOVX      A,@DPTR
        MOV       DPTR,#zdpExternalStateTaskID
        MOVX      @DPTR,A
        INC       DPTR
        CLR       A
        MOVX      @DPTR,A
//  260   
//  261 }
        MOV       A,#0x1d
        LCALL     ?DEALLOC_XSTACK8
          CFI CFA_XSP16 add(XSP16, 9)
        MOV       R7,#0x1
        LJMP      ?BANKED_LEAVE_XDATA
          CFI EndBlock cfiBlock0
//  262 
//  263 
//  264 
//  265 /*********************************************************************
//  266  * @fn      zclMultiSensor_LcdDisplayMainMode
//  267  *
//  268  * @brief   Called to display the main screen on the LCD.
//  269  *
//  270  * @param   none
//  271  *
//  272  * @return  none
//  273  */

        RSEG BANKED_CODE:HUGECODE:NOROOT(0)
//  274 static void zclMultiSensor_ProcessCommissioningStatus(bdbCommissioningModeMsg_t* bdbCommissioningModeMsg)
zclMultiSensor_ProcessCommissioningStatus:
          CFI Block cfiBlock1 Using cfiCommon0
          CFI Function zclMultiSensor_ProcessCommissioningStatus
        CODE
//  275 {
        FUNCALL zclMultiSensor_ProcessCommissioningStatus, bdb_StartCommissioning
        LOCFRAME ISTACK, 2, STACK
        LOCFRAME PSTACK, 0, STACK
        LOCFRAME XSTACK, 0, STACK
        LOCFRAME IOVERLAY, 0, STATIC
        LOCFRAME DOVERLAY, 0, STATIC
        ARGFRAME ISTACK, 2, STACK
        ARGFRAME PSTACK, 0, STACK
        ARGFRAME XSTACK, 0, STACK
        ARGFRAME IOVERLAY, 0, STATIC
        ARGFRAME DOVERLAY, 0, STATIC
        FUNCALL zclMultiSensor_ProcessCommissioningStatus, HalLedBlink
        LOCFRAME ISTACK, 2, STACK
        LOCFRAME PSTACK, 0, STACK
        LOCFRAME XSTACK, 0, STACK
        LOCFRAME IOVERLAY, 0, STATIC
        LOCFRAME DOVERLAY, 0, STATIC
        ARGFRAME ISTACK, 2, STACK
        ARGFRAME PSTACK, 0, STACK
        ARGFRAME XSTACK, 0, STACK
        ARGFRAME IOVERLAY, 0, STATIC
        ARGFRAME DOVERLAY, 0, STATIC
        FUNCALL zclMultiSensor_ProcessCommissioningStatus, zclMultiSensor_CheckReportConfig
        LOCFRAME ISTACK, 2, STACK
        LOCFRAME PSTACK, 0, STACK
        LOCFRAME XSTACK, 0, STACK
        LOCFRAME IOVERLAY, 0, STATIC
        LOCFRAME DOVERLAY, 0, STATIC
        ARGFRAME ISTACK, 2, STACK
        ARGFRAME PSTACK, 0, STACK
        ARGFRAME XSTACK, 0, STACK
        ARGFRAME IOVERLAY, 0, STATIC
        ARGFRAME DOVERLAY, 0, STATIC
        PUSH      DPL
          CFI DPL0 Frame(CFA_SP, 4)
          CFI CFA_SP SP+-4
        PUSH      DPH
          CFI DPH0 Frame(CFA_SP, 5)
          CFI CFA_SP SP+-5
        ; Saved register size: 2
        ; Auto size: 0
//  276     switch(bdbCommissioningModeMsg->bdbCommissioningMode)
        MOV       DPL,R2
        MOV       DPH,R3
        INC       DPTR
        MOVX      A,@DPTR
        DEC       A
        JZ        ??zclMultiSensor_ProcessCommissioningStatus_0
        DEC       A
        JNZ       ??zclMultiSensor_ProcessCommissioningStatus_1
//  277     {
//  278       case BDB_COMMISSIONING_FORMATION:
//  279         if(bdbCommissioningModeMsg->bdbCommissioningStatus == BDB_COMMISSIONING_SUCCESS)
        MOV       DPL,R2
        MOV       DPH,R3
        MOVX      A,@DPTR
        JNZ       ??zclMultiSensor_ProcessCommissioningStatus_1
//  280         {
//  281           //After formation, perform nwk steering again plus the remaining commissioning modes that has not been process yet
//  282           bdb_StartCommissioning(BDB_COMMISSIONING_MODE_NWK_STEERING | bdbCommissioningModeMsg->bdbRemainingCommissioningModes);
        ; Setup parameters for call to function bdb_StartCommissioning
        INC       DPTR
        INC       DPTR
        MOVX      A,@DPTR
        ORL       A,#0x2
        MOV       R1,A
        LCALL     `??bdb_StartCommissioning::?relay`; Banked call to: bdb_StartCommissioning
        SJMP      ??zclMultiSensor_ProcessCommissioningStatus_1
//  283         }
//  284         else
//  285         {
//  286           //Want to try other channels?
//  287           //try with bdb_setChannelAttribute
//  288         }
//  289       break;
//  290     case BDB_COMMISSIONING_NWK_STEERING:
//  291       if(bdbCommissioningModeMsg->bdbCommissioningStatus == BDB_COMMISSIONING_SUCCESS)
??zclMultiSensor_ProcessCommissioningStatus_0:
        MOV       DPL,R2
        MOV       DPH,R3
        MOVX      A,@DPTR
        JNZ       ??zclMultiSensor_ProcessCommissioningStatus_1
//  292       {
//  293         //YOUR JOB:
//  294         //We are on the nwk, what now?
//  295         HalLedBlink(HAL_LED_1, 6, 50, 200);
        ; Setup parameters for call to function HalLedBlink
        MOV       R4,#-0x38
        MOV       R5,#0x0
        MOV       R3,#0x32
        MOV       R2,#0x6
        MOV       R1,#0x1
        LCALL     `??HalLedBlink::?relay`; Banked call to: HalLedBlink
//  296         zclMultiSensor_CheckReportConfig( );
        ; Setup parameters for call to function zclMultiSensor_CheckReportConfig
        LCALL     `??zclMultiSensor_CheckReportConfig::?relay`; Banked call to: zclMultiSensor_CheckReportConfig
//  297 
//  298       }
//  299         else
//  300         {
//  301           //See the possible errors for nwk steering procedure
//  302           //No suitable networks found
//  303           //Want to try other channels?
//  304           //try with bdb_setChannelAttribute
//  305             //bdb_StartCommissioning( BDB_COMMISSIONING_MODE_NWK_STEERING);
//  306 
//  307         }
//  308       break;
//  309       case BDB_COMMISSIONING_FINDING_BINDING:
//  310         if(bdbCommissioningModeMsg->bdbCommissioningStatus == BDB_COMMISSIONING_SUCCESS)
//  311         {
//  312           //YOUR JOB:
//  313         }
//  314         else
//  315         {
//  316           //YOUR JOB:
//  317           //retry?, wait for user interaction?
//  318         }
//  319       break;
//  320       case BDB_COMMISSIONING_INITIALIZATION:
//  321         //Initialization notification can only be successful. Failure on initialization 
//  322         //only happens for ZED and is notified as BDB_COMMISSIONING_PARENT_LOST notification
//  323         
//  324         //YOUR JOB:
//  325         //We are on a network, what now?
//  326         
//  327       break;
//  328 #if ZG_BUILD_ENDDEVICE_TYPE    
//  329     case BDB_COMMISSIONING_PARENT_LOST:
//  330       if(bdbCommissioningModeMsg->bdbCommissioningStatus == BDB_COMMISSIONING_NETWORK_RESTORED)
//  331       {
//  332         //We did recover from losing parent
//  333       }
//  334       else
//  335       {
//  336         //Parent not found, attempt to rejoin again after a fixed delay
//  337         osal_start_timerEx(zclMultiSensor_TaskID, MULTISENSOR_END_DEVICE_REJOIN_EVT, MULTISENSOR_END_DEVICE_REJOIN_DELAY);
//  338       }
//  339     break;
//  340 #endif 
//  341     }
//  342 }
??zclMultiSensor_ProcessCommissioningStatus_1:
          CFI EndBlock cfiBlock1
        REQUIRE ?Subroutine0
        ; // Fall through to label ?Subroutine0

        RSEG BANKED_CODE:HUGECODE:NOROOT(0)
?Subroutine0:
          CFI Block cfiBlock2 Using cfiCommon0
          CFI NoFunction
          CFI CFA_SP SP+-5
          CFI DPL0 Frame(CFA_SP, 4)
          CFI DPH0 Frame(CFA_SP, 5)
        POP       DPH
          CFI CFA_SP SP+-4
          CFI DPH0 SameValue
        POP       DPL
          CFI CFA_SP SP+-3
          CFI DPL0 SameValue
        LJMP      ?BRET
          CFI EndBlock cfiBlock2
//  343 
//  344 /*********************************************************************
//  345  * @fn          zclSample_event_loop
//  346  *
//  347  * @brief       Event Loop Processor for zclGeneral.
//  348  *
//  349  * @param       none
//  350  *
//  351  * @return      none
//  352  */

        RSEG BANKED_CODE:HUGECODE:NOROOT(0)
//  353 uint16 zclMultiSensor_event_loop( uint8 task_id, uint16 events )
zclMultiSensor_event_loop:
          CFI Block cfiBlock3 Using cfiCommon0
          CFI Function zclMultiSensor_event_loop
        CODE
//  354 {
        FUNCALL zclMultiSensor_event_loop, zclMultiSensor_CheckReportConfig
        LOCFRAME ISTACK, 0, STACK
        LOCFRAME PSTACK, 0, STACK
        LOCFRAME XSTACK, 12, STACK
        LOCFRAME IOVERLAY, 0, STATIC
        LOCFRAME DOVERLAY, 0, STATIC
        ARGFRAME ISTACK, 0, STACK
        ARGFRAME PSTACK, 0, STACK
        ARGFRAME XSTACK, 12, STACK
        ARGFRAME IOVERLAY, 0, STATIC
        ARGFRAME DOVERLAY, 0, STATIC
        FUNCALL zclMultiSensor_event_loop, zclMultiSensor_ProcessIncomingMsg
        LOCFRAME ISTACK, 0, STACK
        LOCFRAME PSTACK, 0, STACK
        LOCFRAME XSTACK, 12, STACK
        LOCFRAME IOVERLAY, 0, STATIC
        LOCFRAME DOVERLAY, 0, STATIC
        ARGFRAME ISTACK, 0, STACK
        ARGFRAME PSTACK, 0, STACK
        ARGFRAME XSTACK, 12, STACK
        ARGFRAME IOVERLAY, 0, STATIC
        ARGFRAME DOVERLAY, 0, STATIC
        FUNCALL zclMultiSensor_event_loop, osal_msg_deallocate
        LOCFRAME ISTACK, 0, STACK
        LOCFRAME PSTACK, 0, STACK
        LOCFRAME XSTACK, 12, STACK
        LOCFRAME IOVERLAY, 0, STATIC
        LOCFRAME DOVERLAY, 0, STATIC
        ARGFRAME ISTACK, 0, STACK
        ARGFRAME PSTACK, 0, STACK
        ARGFRAME XSTACK, 12, STACK
        ARGFRAME IOVERLAY, 0, STATIC
        ARGFRAME DOVERLAY, 0, STATIC
        FUNCALL zclMultiSensor_event_loop, osal_msg_receive
        LOCFRAME ISTACK, 0, STACK
        LOCFRAME PSTACK, 0, STACK
        LOCFRAME XSTACK, 12, STACK
        LOCFRAME IOVERLAY, 0, STATIC
        LOCFRAME DOVERLAY, 0, STATIC
        ARGFRAME ISTACK, 0, STACK
        ARGFRAME PSTACK, 0, STACK
        ARGFRAME XSTACK, 12, STACK
        ARGFRAME IOVERLAY, 0, STATIC
        ARGFRAME DOVERLAY, 0, STATIC
        REQUIRE ?V0
        REQUIRE ?V1
        REQUIRE ?V2
        REQUIRE ?V3
        MOV       A,#-0xc
        LCALL     ?BANKED_ENTER_XDATA
          CFI DPH0 load(1, XDATA, add(CFA_XSP16, literal(-1)))
          CFI DPL0 load(1, XDATA, add(CFA_XSP16, literal(-2)))
          CFI ?BRET_EXT load(1, XDATA, add(CFA_XSP16, literal(-3)))
          CFI ?RET_HIGH load(1, XDATA, add(CFA_XSP16, literal(-4)))
          CFI ?RET_LOW load(1, XDATA, add(CFA_XSP16, literal(-5)))
          CFI R7 load(1, XDATA, add(CFA_XSP16, literal(-6)))
          CFI V3 load(1, XDATA, add(CFA_XSP16, literal(-7)))
          CFI V2 load(1, XDATA, add(CFA_XSP16, literal(-8)))
          CFI V1 load(1, XDATA, add(CFA_XSP16, literal(-9)))
          CFI V0 load(1, XDATA, add(CFA_XSP16, literal(-10)))
          CFI VB load(1, XDATA, add(CFA_XSP16, literal(-11)))
          CFI R6 load(1, XDATA, add(CFA_XSP16, literal(-12)))
          CFI CFA_SP SP+0
          CFI CFA_XSP16 add(XSP16, 12)
        ; Saved register size: 12
        ; Auto size: 0
        MOV       ?V0,R2
        MOV       ?V1,R3
//  355   afIncomingMSGPacket_t *MSGpkt;
//  356 
//  357   (void)task_id;  // Intentionally unreferenced parameter
//  358 
//  359   if ( events & SYS_EVENT_MSG )
        MOV       A,R3
        ANL       A,#0x80
        JNZ       ??zclMultiSensor_event_loop_0
//  360   {
//  361     while ( (MSGpkt = (afIncomingMSGPacket_t *)osal_msg_receive( zclMultiSensor_TaskID )) )
//  362     {
//  363       switch ( MSGpkt->hdr.event )
//  364       {
//  365         case ZCL_INCOMING_MSG:
//  366           // Incoming ZCL Foundation command/response messages
//  367           zclMultiSensor_ProcessIncomingMsg( (zclIncomingMsg_t *)MSGpkt );
//  368           break;
//  369 
//  370         case KEY_CHANGE:
//  371           zclMultiSensor_HandleKeys( ((keyChange_t *)MSGpkt)->state, ((keyChange_t *)MSGpkt)->keys );
//  372           break;
//  373           
//  374         case ZDO_STATE_CHANGE:
//  375           break;
//  376 
//  377         default:
//  378           break;
//  379       }
//  380 
//  381       // Release the memory
//  382       osal_msg_deallocate( (uint8 *)MSGpkt );
//  383     }
//  384     
//  385     // return unprocessed events
//  386     return (events ^ SYS_EVENT_MSG);
//  387   }
//  388   
//  389 #if ZG_BUILD_ENDDEVICE_TYPE    
//  390   if ( events & MULTISENSOR_END_DEVICE_REJOIN_EVT )
//  391   {
//  392     bdb_ZedAttemptRecoverNwk();
//  393     return ( events ^ MULTISENSOR_END_DEVICE_REJOIN_EVT );
//  394   }
//  395 #endif
//  396   
//  397     if ( events & MULTISENSOR_CHECK_REPORT__EVT )
        MOV       A,R2
        ANL       A,#0x4
        JZ        ??zclMultiSensor_event_loop_1
//  398   {
//  399     zclMultiSensor_CheckReportConfig();
        ; Setup parameters for call to function zclMultiSensor_CheckReportConfig
        LCALL     `??zclMultiSensor_CheckReportConfig::?relay`; Banked call to: zclMultiSensor_CheckReportConfig
//  400     return ( events ^ MULTISENSOR_CHECK_REPORT__EVT );
        MOV       A,?V0
        XRL       A,#0x4
        MOV       R2,A
        MOV       R3,?V1
        SJMP      ??zclMultiSensor_event_loop_2
//  401   }
??zclMultiSensor_event_loop_3:
        MOV       DPL,R2
        MOV       DPH,R3
        MOVX      A,@DPTR
        XRL       A,#0x34
        JNZ       ??zclMultiSensor_event_loop_4
        ; Setup parameters for call to function zclMultiSensor_ProcessIncomingMsg
        LCALL     `??zclMultiSensor_ProcessIncomingMsg::?relay`; Banked call to: zclMultiSensor_ProcessIncomingMsg
??zclMultiSensor_event_loop_4:
        ; Setup parameters for call to function osal_msg_deallocate
        MOV       R2,?V2
        MOV       A,R7
        MOV       R3,A
        LCALL     `??osal_msg_deallocate::?relay`; Banked call to: osal_msg_deallocate
??zclMultiSensor_event_loop_0:
        ; Setup parameters for call to function osal_msg_receive
        MOV       DPTR,#zclMultiSensor_TaskID
        MOVX      A,@DPTR
        MOV       R1,A
        LCALL     `??osal_msg_receive::?relay`; Banked call to: osal_msg_receive
        MOV       ?V2,R2
        MOV       ?V3,R3
        MOV       R7,?V3
        MOV       A,R2
        ORL       A,R7
        JNZ       ??zclMultiSensor_event_loop_3
        MOV       R2,?V0
        MOV       A,?V1
        XRL       A,#0x80
        MOV       R3,A
        SJMP      ??zclMultiSensor_event_loop_2
//  402   
//  403   // Discard unknown events
//  404   return 0;
??zclMultiSensor_event_loop_1:
        MOV       R2,#0x0
        MOV       R3,#0x0
??zclMultiSensor_event_loop_2:
        SJMP      ??Subroutine36_0
//  405 }
          CFI EndBlock cfiBlock3

        RSEG BANKED_CODE:HUGECODE:NOROOT(0)
?Subroutine1:
          CFI Block cfiBlock4 Using cfiCommon0
          CFI NoFunction
          CFI CFA_SP SP+0
          CFI CFA_XSP16 add(XSP16, 24)
          CFI VB load(1, XDATA, add(CFA_XSP16, literal(-11)))
          CFI DPL0 load(1, XDATA, add(CFA_XSP16, literal(-2)))
          CFI DPH0 load(1, XDATA, add(CFA_XSP16, literal(-1)))
          CFI R6 load(1, XDATA, add(CFA_XSP16, literal(-12)))
          CFI R7 load(1, XDATA, add(CFA_XSP16, literal(-6)))
          CFI V0 load(1, XDATA, add(CFA_XSP16, literal(-10)))
          CFI V1 load(1, XDATA, add(CFA_XSP16, literal(-9)))
          CFI V2 load(1, XDATA, add(CFA_XSP16, literal(-8)))
          CFI V3 load(1, XDATA, add(CFA_XSP16, literal(-7)))
          CFI ?BRET_EXT load(1, XDATA, add(CFA_XSP16, literal(-3)))
          CFI ?RET_HIGH load(1, XDATA, add(CFA_XSP16, literal(-4)))
          CFI ?RET_LOW load(1, XDATA, add(CFA_XSP16, literal(-5)))
          CFI Invalid
        LCALL     ?DEALLOC_XSTACK8
          CFI EndBlock cfiBlock4
        REQUIRE ??Subroutine36_0
        ; // Fall through to label ??Subroutine36_0

        RSEG BANKED_CODE:HUGECODE:NOROOT(0)
??Subroutine36_0:
          CFI Block cfiBlock5 Using cfiCommon0
          CFI NoFunction
          CFI CFA_SP SP+0
          CFI CFA_XSP16 add(XSP16, 12)
          CFI VB load(1, XDATA, add(CFA_XSP16, literal(-11)))
          CFI DPL0 load(1, XDATA, add(CFA_XSP16, literal(-2)))
          CFI DPH0 load(1, XDATA, add(CFA_XSP16, literal(-1)))
          CFI R6 load(1, XDATA, add(CFA_XSP16, literal(-12)))
          CFI R7 load(1, XDATA, add(CFA_XSP16, literal(-6)))
          CFI V0 load(1, XDATA, add(CFA_XSP16, literal(-10)))
          CFI V1 load(1, XDATA, add(CFA_XSP16, literal(-9)))
          CFI V2 load(1, XDATA, add(CFA_XSP16, literal(-8)))
          CFI V3 load(1, XDATA, add(CFA_XSP16, literal(-7)))
          CFI ?BRET_EXT load(1, XDATA, add(CFA_XSP16, literal(-3)))
          CFI ?RET_HIGH load(1, XDATA, add(CFA_XSP16, literal(-4)))
          CFI ?RET_LOW load(1, XDATA, add(CFA_XSP16, literal(-5)))
        MOV       R7,#0x4
        LJMP      ?BANKED_LEAVE_XDATA
          CFI EndBlock cfiBlock5
//  406 
//  407 /*********************************************************************
//  408  * @fn      zclMultiSensor_BasicResetCB
//  409  *
//  410  * @brief   Callback from the ZCL General Cluster Library
//  411  *          to set all the Basic Cluster attributes to default values.
//  412  *
//  413  * @param   none
//  414  *
//  415  * @return  none
//  416  */

        RSEG BANKED_CODE:HUGECODE:NOROOT(0)
//  417 static void zclMultiSensor_BasicResetCB( void )
zclMultiSensor_BasicResetCB:
          CFI Block cfiBlock6 Using cfiCommon0
          CFI Function zclMultiSensor_BasicResetCB
        CODE
//  418 {
        FUNCALL zclMultiSensor_BasicResetCB, zclMultiSensor_ResetAttributesToDefaultValues
        LOCFRAME ISTACK, 2, STACK
        LOCFRAME PSTACK, 0, STACK
        LOCFRAME XSTACK, 0, STACK
        LOCFRAME IOVERLAY, 0, STATIC
        LOCFRAME DOVERLAY, 0, STATIC
        ARGFRAME ISTACK, 2, STACK
        ARGFRAME PSTACK, 0, STACK
        ARGFRAME XSTACK, 0, STACK
        ARGFRAME IOVERLAY, 0, STATIC
        ARGFRAME DOVERLAY, 0, STATIC
        PUSH      DPL
          CFI DPL0 Frame(CFA_SP, 4)
          CFI CFA_SP SP+-4
        PUSH      DPH
          CFI DPH0 Frame(CFA_SP, 5)
          CFI CFA_SP SP+-5
        ; Saved register size: 2
        ; Auto size: 0
//  419   zclMultiSensor_ResetAttributesToDefaultValues();
        ; Setup parameters for call to function zclMultiSensor_ResetAttributesToDefaultValues
        LCALL     ??zclMultiSensor_ResetAttributesToDefaultValues; Banked call to: zclMultiSensor_ResetAttributesToDefaultValues
//  420 }
        SJMP      ?Subroutine0
          CFI EndBlock cfiBlock6
//  421 
//  422 /*********************************************************************
//  423  * @fn      zclMultiSensor_BatteryWarningCB
//  424  *
//  425  * @brief   Called to handle battery-low situation.
//  426  *
//  427  * @param   voltLevel - level of severity
//  428  *
//  429  * @return  none
//  430  */

        RSEG BANKED_CODE:HUGECODE:NOROOT(0)
//  431 void zclMultiSensor_BatteryWarningCB( uint8 voltLevel )
zclMultiSensor_BatteryWarningCB:
          CFI Block cfiBlock7 Using cfiCommon0
          CFI Function zclMultiSensor_BatteryWarningCB
        CODE
//  432 {
        ; Saved register size: 0
        ; Auto size: 0
//  433   if ( voltLevel == VOLT_LEVEL_CAUTIOUS )
//  434   {
//  435     // Send warning message to the gateway and blink LED
//  436   }
//  437   else if ( voltLevel == VOLT_LEVEL_BAD )
//  438   {
//  439     // Shut down the system
//  440   }
//  441 }
        LJMP      ?BRET
          CFI EndBlock cfiBlock7
//  442 
//  443 /******************************************************************************
//  444  *
//  445  *  Functions for processing ZCL Foundation incoming Command/Response messages
//  446  *
//  447  *****************************************************************************/
//  448 
//  449 /*********************************************************************
//  450  * @fn      zclMultiSensor_ProcessIncomingMsg
//  451  *
//  452  * @brief   Process ZCL Foundation incoming message
//  453  *
//  454  * @param   pInMsg - pointer to the received message
//  455  *
//  456  * @return  none
//  457  */

        RSEG BANKED_CODE:HUGECODE:NOROOT(0)
//  458 static void zclMultiSensor_ProcessIncomingMsg( zclIncomingMsg_t *pInMsg)
zclMultiSensor_ProcessIncomingMsg:
          CFI Block cfiBlock8 Using cfiCommon0
          CFI Function zclMultiSensor_ProcessIncomingMsg
        CODE
//  459 {
        FUNCALL zclMultiSensor_ProcessIncomingMsg, zclMultiSensor_ProcessInConfigReportCmd
        LOCFRAME ISTACK, 0, STACK
        LOCFRAME PSTACK, 0, STACK
        LOCFRAME XSTACK, 24, STACK
        LOCFRAME IOVERLAY, 0, STATIC
        LOCFRAME DOVERLAY, 0, STATIC
        ARGFRAME ISTACK, 0, STACK
        ARGFRAME PSTACK, 0, STACK
        ARGFRAME XSTACK, 24, STACK
        ARGFRAME IOVERLAY, 0, STATIC
        ARGFRAME DOVERLAY, 0, STATIC
        FUNCALL zclMultiSensor_ProcessIncomingMsg, osal_mem_free
        LOCFRAME ISTACK, 0, STACK
        LOCFRAME PSTACK, 0, STACK
        LOCFRAME XSTACK, 24, STACK
        LOCFRAME IOVERLAY, 0, STATIC
        LOCFRAME DOVERLAY, 0, STATIC
        ARGFRAME ISTACK, 0, STACK
        ARGFRAME PSTACK, 0, STACK
        ARGFRAME XSTACK, 24, STACK
        ARGFRAME IOVERLAY, 0, STATIC
        ARGFRAME DOVERLAY, 0, STATIC
        FUNCALL zclMultiSensor_ProcessIncomingMsg, zclMultiSensor_ProcessInReadReportCfgCmd
        LOCFRAME ISTACK, 0, STACK
        LOCFRAME PSTACK, 0, STACK
        LOCFRAME XSTACK, 24, STACK
        LOCFRAME IOVERLAY, 0, STATIC
        LOCFRAME DOVERLAY, 0, STATIC
        ARGFRAME ISTACK, 0, STACK
        ARGFRAME PSTACK, 0, STACK
        ARGFRAME XSTACK, 24, STACK
        ARGFRAME IOVERLAY, 0, STATIC
        ARGFRAME DOVERLAY, 0, STATIC
        FUNCALL zclMultiSensor_ProcessIncomingMsg, zcl_SendReportCmd
        LOCFRAME ISTACK, 0, STACK
        LOCFRAME PSTACK, 0, STACK
        LOCFRAME XSTACK, 29, STACK
        LOCFRAME IOVERLAY, 0, STATIC
        LOCFRAME DOVERLAY, 0, STATIC
        ARGFRAME ISTACK, 0, STACK
        ARGFRAME PSTACK, 0, STACK
        ARGFRAME XSTACK, 29, STACK
        ARGFRAME IOVERLAY, 0, STATIC
        ARGFRAME DOVERLAY, 0, STATIC
        REQUIRE ?V0
        REQUIRE ?V1
        REQUIRE ?V2
        REQUIRE ?V3
        MOV       A,#-0xc
        LCALL     ?BANKED_ENTER_XDATA
          CFI DPH0 load(1, XDATA, add(CFA_XSP16, literal(-1)))
          CFI DPL0 load(1, XDATA, add(CFA_XSP16, literal(-2)))
          CFI ?BRET_EXT load(1, XDATA, add(CFA_XSP16, literal(-3)))
          CFI ?RET_HIGH load(1, XDATA, add(CFA_XSP16, literal(-4)))
          CFI ?RET_LOW load(1, XDATA, add(CFA_XSP16, literal(-5)))
          CFI R7 load(1, XDATA, add(CFA_XSP16, literal(-6)))
          CFI V3 load(1, XDATA, add(CFA_XSP16, literal(-7)))
          CFI V2 load(1, XDATA, add(CFA_XSP16, literal(-8)))
          CFI V1 load(1, XDATA, add(CFA_XSP16, literal(-9)))
          CFI V0 load(1, XDATA, add(CFA_XSP16, literal(-10)))
          CFI VB load(1, XDATA, add(CFA_XSP16, literal(-11)))
          CFI R6 load(1, XDATA, add(CFA_XSP16, literal(-12)))
          CFI CFA_SP SP+0
          CFI CFA_XSP16 add(XSP16, 12)
        ; Saved register size: 12
        ; Auto size: 12
        MOV       A,#-0xc
        LCALL     ?ALLOC_XSTACK8
          CFI CFA_XSP16 add(XSP16, 24)
//  460   switch ( pInMsg->zclHdr.commandID )
        MOV       A,R2
        ADD       A,#0x17
        MOV       R6,A
        CLR       A
        ADDC      A,R3
        MOV       R7,A
        MOV       DPL,R2
        MOV       DPH,R3
        INC       DPTR
        INC       DPTR
        INC       DPTR
        INC       DPTR
        INC       DPTR
        INC       DPTR
        INC       DPTR
        MOVX      A,@DPTR
        DEC       A
        JZ        ??zclMultiSensor_ProcessIncomingMsg_0
        ADD       A,#-0x3
        JZ        ??zclMultiSensor_ProcessIncomingMsg_1
        ADD       A,#-0x2
        JZ        ??zclMultiSensor_ProcessIncomingMsg_2
        ADD       A,#-0x2
        JZ        ??zclMultiSensor_ProcessIncomingMsg_3
        ADD       A,#-0x2
        JZ        ??zclMultiSensor_ProcessIncomingMsg_4
        SJMP      ??zclMultiSensor_ProcessIncomingMsg_5
//  461   {
//  462 #ifdef ZCL_READ
//  463     case ZCL_CMD_READ_RSP:
//  464       zclMultiSensor_ProcessInReadRspCmd( pInMsg );
??zclMultiSensor_ProcessIncomingMsg_0:
        LCALL     ?Subroutine19 & 0xFFFF
??CrossCallReturnLabel_23:
        MOVX      A,@DPTR
        MOV       R1,A
        MOV       A,R0
        CLR       C
        SUBB      A,R1
        JNC       ??zclMultiSensor_ProcessIncomingMsg_5
        INC       R0
        SJMP      ??CrossCallReturnLabel_23
//  465       break;
//  466 #endif
//  467 #ifdef ZCL_WRITE
//  468     case ZCL_CMD_WRITE_RSP:
//  469       zclMultiSensor_ProcessInWriteRspCmd( pInMsg );
??zclMultiSensor_ProcessIncomingMsg_1:
        LCALL     ?Subroutine19 & 0xFFFF
??CrossCallReturnLabel_24:
        MOVX      A,@DPTR
        MOV       R1,A
        MOV       A,R0
        CLR       C
        SUBB      A,R1
        JNC       ??zclMultiSensor_ProcessIncomingMsg_5
        INC       R0
        SJMP      ??CrossCallReturnLabel_24
//  470       break;
//  471 #endif
//  472 #ifdef ZCL_REPORT
//  473     // See ZCL Test Applicaiton (zcl_testapp.c) for sample code on Attribute Reporting
//  474     case ZCL_CMD_CONFIG_REPORT:
//  475       zclMultiSensor_ProcessInConfigReportCmd( pInMsg );
??zclMultiSensor_ProcessIncomingMsg_2:
        ; Setup parameters for call to function zclMultiSensor_ProcessInConfigReportCmd
        LCALL     `??zclMultiSensor_ProcessInConfigReportCmd::?rel`; Banked call to: zclMultiSensor_ProcessInConfigReportCmd
//  476       break;
//  477       case ZCL_CMD_READ_REPORT_CFG:
//  478       zclMultiSensor_ProcessInReadReportCfgCmd( pInMsg );
//  479       break;
//  480     case ZCL_CMD_CONFIG_REPORT_RSP:
//  481       //zclMultiSensor_ProcessInConfigReportRspCmd( pInMsg );
//  482       break;
//  483     case ZCL_CMD_READ_REPORT_CFG_RSP:
//  484       //zclMultiSensor_ProcessInReadReportCfgRspCmd( pInMsg );
//  485       break;
//  486 
//  487     case ZCL_CMD_REPORT:
//  488       zclMultiSensor_ProcessInReportCmd( pInMsg );
//  489       break;
//  490 #endif
//  491     case ZCL_CMD_DEFAULT_RSP:
//  492       zclMultiSensor_ProcessInDefaultRspCmd( pInMsg );
//  493       break;
//  494       
//  495     default:
//  496       break;
//  497   }
//  498 
//  499   if ( pInMsg->attrCmd )
??zclMultiSensor_ProcessIncomingMsg_5:
        MOV       DPL,R6
        MOV       DPH,R7
        LCALL     ??Subroutine37_0 & 0xFFFF
??CrossCallReturnLabel_45:
        MOV       A,R2
        ORL       A,R3
        JZ        ??zclMultiSensor_ProcessIncomingMsg_6
//  500   {
//  501     osal_mem_free( pInMsg->attrCmd );
        ; Setup parameters for call to function osal_mem_free
        LCALL     `??osal_mem_free::?relay`; Banked call to: osal_mem_free
//  502   }
//  503 }
??zclMultiSensor_ProcessIncomingMsg_6:
        MOV       A,#0xc
        SJMP      ?Subroutine1
??zclMultiSensor_ProcessIncomingMsg_3:
        ; Setup parameters for call to function zclMultiSensor_ProcessInReadReportCfgCmd
        LCALL     `??zclMultiSensor_ProcessInReadReportCfgCmd::?re`; Banked call to: zclMultiSensor_ProcessInReadReportCfgCmd
        SJMP      ??zclMultiSensor_ProcessIncomingMsg_5
??zclMultiSensor_ProcessIncomingMsg_4:
        MOV       DPL,R6
        MOV       DPH,R7
        MOVX      A,@DPTR
        MOV       ?V0,A
        INC       DPTR
        MOVX      A,@DPTR
        MOV       ?V1,A
        MOV       DPL,?XSP + 0
        MOV       DPH,?XSP + 1
        CLR       A
        MOVX      @DPTR,A
        INC       DPTR
        MOVX      @DPTR,A
        MOV       A,#0x8
        LCALL     ?XSTACK_DISP0_8
        MOV       A,#0x2
        MOVX      @DPTR,A
        MOV       A,R2
        ADD       A,#0x8
        MOV       R0,A
        CLR       A
        ADDC      A,R3
        MOV       R1,A
        MOV       A,R0
        MOV       R2,A
        MOV       A,R1
        MOV       DPL,R0
        MOV       DPH,A
        MOVX      A,@DPTR
        MOV       ?V2,A
        INC       DPTR
        MOVX      A,@DPTR
        MOV       ?V3,A
        MOV       R0,#?V2
        LCALL     ?US_SWITCH_SPARSE
`?<Jumptable for zclMultiSensor_ProcessIncoming_0`:
        DATA
        DATA16
        DATA
        DATA16
        DATA
        DATA16
        DW        0
        DATA
        DATA16
        DATA
        DATA16
        DATA
        DATA16
        DW        6
        DATA
        DATA16
        DATA
        DATA16
        DATA
        DATA16
        DW        1024
        DATA
        DATA16
        DATA
        DATA16
        DATA
        DATA16
        DW        ??zclMultiSensor_ProcessIncomingMsg_7
        DATA
        DATA16
        DATA
        DATA16
        DATA
        DATA16
        DW        1026
        DATA
        DATA16
        DATA
        DATA16
        DATA
        DATA16
        DW        ??zclMultiSensor_ProcessIncomingMsg_8
        DATA
        DATA16
        DATA
        DATA16
        DATA
        DATA16
        DW        1029
        DATA
        DATA16
        DATA
        DATA16
        DATA
        DATA16
        DW        ??zclMultiSensor_ProcessIncomingMsg_9
        DATA
        DATA16
        DATA
        DATA16
        DATA
        DATA16
        DW        1030
        DATA
        DATA16
        DATA
        DATA16
        DATA
        DATA16
        DW        ??zclMultiSensor_ProcessIncomingMsg_10
        DATA
        DATA16
        DATA
        DATA16
        DATA
        DATA16
        DW        3072
        DATA
        DATA16
        DATA
        DATA16
        DATA
        DATA16
        DW        ??zclMultiSensor_ProcessIncomingMsg_11
        DATA
        DATA16
        DATA
        DATA16
        DATA
        DATA16
        DW        3073
        DATA
        DATA16
        DATA
        DATA16
        DATA
        DATA16
        DW        ??zclMultiSensor_ProcessIncomingMsg_12
        DATA
        DATA16
        DATA
        DATA16
        DW        ??zclMultiSensor_ProcessIncomingMsg_13
        CODE
??zclMultiSensor_ProcessIncomingMsg_12:
        MOV       A,#0x9
        LCALL     ?XSTACK_DISP0_8
        MOV       A,#0x7
        SJMP      ??zclMultiSensor_ProcessIncomingMsg_14
??zclMultiSensor_ProcessIncomingMsg_11:
        MOV       A,#0x9
        LCALL     ?XSTACK_DISP0_8
        MOV       A,#0x6
        SJMP      ??zclMultiSensor_ProcessIncomingMsg_14
??zclMultiSensor_ProcessIncomingMsg_10:
        MOV       A,#0x9
        LCALL     ?XSTACK_DISP0_8
        MOV       A,#0x4
        SJMP      ??zclMultiSensor_ProcessIncomingMsg_14
??zclMultiSensor_ProcessIncomingMsg_9:
        MOV       A,#0x9
        LCALL     ?XSTACK_DISP0_8
        MOV       A,#0x3
        SJMP      ??zclMultiSensor_ProcessIncomingMsg_14
??zclMultiSensor_ProcessIncomingMsg_8:
        MOV       A,#0x9
        LCALL     ?XSTACK_DISP0_8
        MOV       A,#0x2
        SJMP      ??zclMultiSensor_ProcessIncomingMsg_14
??zclMultiSensor_ProcessIncomingMsg_7:
        MOV       A,#0x9
        LCALL     ?XSTACK_DISP0_8
        MOV       A,#0x1
??zclMultiSensor_ProcessIncomingMsg_14:
        MOVX      @DPTR,A
??zclMultiSensor_ProcessIncomingMsg_13:
        ; Setup parameters for call to function zcl_SendReportCmd
        MOV       ?V2,#0x0
        MOV       R0,#?V2
        LCALL     ?PUSH_XSTACK_I_ONE
          CFI CFA_XSP16 add(XSP16, 25)
        MOV       R0,#?V2
        LCALL     ?PUSH_XSTACK_I_ONE
          CFI CFA_XSP16 add(XSP16, 26)
        MOV       ?V2,#0x1
        MOV       R0,#?V2
        LCALL     ?PUSH_XSTACK_I_ONE
          CFI CFA_XSP16 add(XSP16, 27)
        MOV       R0,#?V0
        LCALL     ?PUSH_XSTACK_I_TWO
          CFI CFA_XSP16 add(XSP16, 29)
        MOV       DPL,R2
        MOV       DPH,R1
        LCALL     ??Subroutine40_0 & 0xFFFF
??CrossCallReturnLabel_49:
        MOV       A,#0x5
        LCALL     ?XSTACK_DISP101_8
        MOV       R1,#0x8
        LCALL     `??zcl_SendReportCmd::?relay`; Banked call to: zcl_SendReportCmd
        MOV       A,#0x5
        LCALL     ?DEALLOC_XSTACK8
          CFI CFA_XSP16 add(XSP16, 24)
        MOV       A,R1
        JNZ       $+5
        LJMP      ??zclMultiSensor_ProcessIncomingMsg_5 & 0xFFFF
??zclMultiSensor_ProcessIncomingMsg_15:
        SJMP      ??zclMultiSensor_ProcessIncomingMsg_15
          CFI EndBlock cfiBlock8

        RSEG BANKED_CODE:HUGECODE:NOROOT(0)
?Subroutine19:
          CFI Block cfiCond9 Using cfiCommon0
          CFI Function zclMultiSensor_ProcessIncomingMsg
          CFI Conditional ??CrossCallReturnLabel_23
          CFI R6 load(1, XDATA, add(CFA_XSP16, literal(-12)))
          CFI VB load(1, XDATA, add(CFA_XSP16, literal(-11)))
          CFI V0 load(1, XDATA, add(CFA_XSP16, literal(-10)))
          CFI V1 load(1, XDATA, add(CFA_XSP16, literal(-9)))
          CFI V2 load(1, XDATA, add(CFA_XSP16, literal(-8)))
          CFI V3 load(1, XDATA, add(CFA_XSP16, literal(-7)))
          CFI R7 load(1, XDATA, add(CFA_XSP16, literal(-6)))
          CFI ?RET_LOW load(1, XDATA, add(CFA_XSP16, literal(-5)))
          CFI ?RET_HIGH load(1, XDATA, add(CFA_XSP16, literal(-4)))
          CFI ?BRET_EXT load(1, XDATA, add(CFA_XSP16, literal(-3)))
          CFI DPL0 load(1, XDATA, add(CFA_XSP16, literal(-2)))
          CFI DPH0 load(1, XDATA, add(CFA_XSP16, literal(-1)))
          CFI CFA_SP SP+-2
          CFI CFA_XSP16 add(XSP16, 24)
          CFI Block cfiCond10 Using cfiCommon0
          CFI (cfiCond10) Function zclMultiSensor_ProcessIncomingMsg
          CFI (cfiCond10) Conditional ??CrossCallReturnLabel_24
          CFI (cfiCond10) R6 load(1, XDATA, add(CFA_XSP16, literal(-12)))
          CFI (cfiCond10) VB load(1, XDATA, add(CFA_XSP16, literal(-11)))
          CFI (cfiCond10) V0 load(1, XDATA, add(CFA_XSP16, literal(-10)))
          CFI (cfiCond10) V1 load(1, XDATA, add(CFA_XSP16, literal(-9)))
          CFI (cfiCond10) V2 load(1, XDATA, add(CFA_XSP16, literal(-8)))
          CFI (cfiCond10) V3 load(1, XDATA, add(CFA_XSP16, literal(-7)))
          CFI (cfiCond10) R7 load(1, XDATA, add(CFA_XSP16, literal(-6)))
          CFI (cfiCond10) ?RET_LOW load(1, XDATA, add(CFA_XSP16, literal(-5)))
          CFI (cfiCond10) ?RET_HIGH load(1, XDATA, add(CFA_XSP16, literal(-4)))
          CFI (cfiCond10) ?BRET_EXT load(1, XDATA, add(CFA_XSP16, literal(-3)))
          CFI (cfiCond10) DPL0 load(1, XDATA, add(CFA_XSP16, literal(-2)))
          CFI (cfiCond10) DPH0 load(1, XDATA, add(CFA_XSP16, literal(-1)))
          CFI (cfiCond10) CFA_SP SP+-2
          CFI (cfiCond10) CFA_XSP16 add(XSP16, 24)
          CFI Block cfiPicker11 Using cfiCommon1
          CFI (cfiPicker11) NoFunction
          CFI (cfiPicker11) Picker
        MOV       DPL,R6
        MOV       DPH,R7
        LCALL     ??Subroutine42_0 & 0xFFFF
??CrossCallReturnLabel_70:
        MOV       DPL,R0
        MOV       DPH,A
        MOV       R0,#0x0
        RET
          CFI EndBlock cfiCond9
          CFI EndBlock cfiCond10
          CFI EndBlock cfiPicker11
//  504 
//  505 #ifdef ZCL_READ
//  506 /*********************************************************************
//  507  * @fn      zclMultiSensor_ProcessInReadRspCmd
//  508  *
//  509  * @brief   Process the "Profile" Read Response Command
//  510  *
//  511  * @param   pInMsg - incoming message to process
//  512  *
//  513  * @return  none
//  514  */
//  515 static uint8 zclMultiSensor_ProcessInReadRspCmd( zclIncomingMsg_t *pInMsg )
//  516 {
//  517   zclReadRspCmd_t *readRspCmd;
//  518   uint8 i;
//  519 
//  520   readRspCmd = (zclReadRspCmd_t *)pInMsg->attrCmd;
//  521   for ( i = 0; i < readRspCmd->numAttr; i++ )
//  522   {
//  523     // Notify the originator of the results of the original read attributes
//  524     // attempt and, for each successfull request, the value of the requested
//  525     // attribute
//  526   }
//  527 
//  528   return ( TRUE );
//  529 }
//  530 #endif // ZCL_READ
//  531 
//  532 #ifdef ZCL_WRITE
//  533 /*********************************************************************
//  534  * @fn      zclMultiSensor_ProcessInWriteRspCmd
//  535  *
//  536  * @brief   Process the "Profile" Write Response Command
//  537  *
//  538  * @param   pInMsg - incoming message to process
//  539  *
//  540  * @return  none
//  541  */
//  542 static uint8 zclMultiSensor_ProcessInWriteRspCmd( zclIncomingMsg_t *pInMsg )
//  543 {
//  544   zclWriteRspCmd_t *writeRspCmd;
//  545   uint8 i;
//  546 
//  547   writeRspCmd = (zclWriteRspCmd_t *)pInMsg->attrCmd;
//  548   for ( i = 0; i < writeRspCmd->numAttr; i++ )
//  549   {
//  550     // Notify the device of the results of the its original write attributes
//  551     // command.
//  552   }
//  553 
//  554   return ( TRUE );
//  555 }
//  556 #endif // ZCL_WRITE
//  557 
//  558 /*********************************************************************
//  559  * @fn      zclMultiSensor_ProcessInDefaultRspCmd
//  560  *
//  561  * @brief   Process the "Profile" Default Response Command
//  562  *
//  563  * @param   pInMsg - incoming message to process
//  564  *
//  565  * @return  none
//  566  */
//  567 static uint8 zclMultiSensor_ProcessInDefaultRspCmd( zclIncomingMsg_t *pInMsg )
//  568 {
//  569   // zclDefaultRspCmd_t *defaultRspCmd = (zclDefaultRspCmd_t *)pInMsg->attrCmd;
//  570 
//  571   // Device is notified of the Default Response command.
//  572   (void)pInMsg;
//  573 
//  574   return ( TRUE );
//  575 }
//  576 
//  577 #ifdef ZCL_DISCOVER
//  578 /*********************************************************************
//  579  * @fn      zclMultiSensor_ProcessInDiscCmdsRspCmd
//  580  *
//  581  * @brief   Process the Discover Commands Response Command
//  582  *
//  583  * @param   pInMsg - incoming message to process
//  584  *
//  585  * @return  none
//  586  */
//  587 static uint8 zclMultiSensor_ProcessInDiscCmdsRspCmd( zclIncomingMsg_t *pInMsg )
//  588 {
//  589   zclDiscoverCmdsCmdRsp_t *discoverRspCmd;
//  590   uint8 i;
//  591 
//  592   discoverRspCmd = (zclDiscoverCmdsCmdRsp_t *)pInMsg->attrCmd;
//  593   for ( i = 0; i < discoverRspCmd->numCmd; i++ )
//  594   {
//  595     // Device is notified of the result of its attribute discovery command.
//  596   }
//  597 
//  598   return ( TRUE );
//  599 }
//  600 
//  601 /*********************************************************************
//  602  * @fn      zclMultiSensor_ProcessInDiscAttrsRspCmd
//  603  *
//  604  * @brief   Process the "Profile" Discover Attributes Response Command
//  605  *
//  606  * @param   pInMsg - incoming message to process
//  607  *
//  608  * @return  none
//  609  */
//  610 static uint8 zclMultiSensor_ProcessInDiscAttrsRspCmd( zclIncomingMsg_t *pInMsg )
//  611 {
//  612   zclDiscoverAttrsRspCmd_t *discoverRspCmd;
//  613   uint8 i;
//  614 
//  615   discoverRspCmd = (zclDiscoverAttrsRspCmd_t *)pInMsg->attrCmd;
//  616   for ( i = 0; i < discoverRspCmd->numAttr; i++ )
//  617   {
//  618     // Device is notified of the result of its attribute discovery command.
//  619   }
//  620 
//  621   return ( TRUE );
//  622 }
//  623 
//  624 /*********************************************************************
//  625  * @fn      zclSampleTemperatureSensor_ProcessInDiscAttrsExtRspCmd
//  626  *
//  627  * @brief   Process the "Profile" Discover Attributes Extended Response Command
//  628  *
//  629  * @param   pInMsg - incoming message to process
//  630  *
//  631  * @return  none
//  632  */
//  633 static uint8 zclMultiSensor_ProcessInDiscAttrsExtRspCmd( zclIncomingMsg_t *pInMsg )
//  634 {
//  635   zclDiscoverAttrsExtRsp_t *discoverRspCmd;
//  636   uint8 i;
//  637 
//  638   discoverRspCmd = (zclDiscoverAttrsExtRsp_t *)pInMsg->attrCmd;
//  639   for ( i = 0; i < discoverRspCmd->numAttr; i++ )
//  640   {
//  641     // Device is notified of the result of its attribute discovery command.
//  642   }
//  643 
//  644   return ( TRUE );
//  645 }
//  646 #endif // ZCL_DISCOVER
//  647 
//  648 /*********************************************************************
//  649  * @fn      zclSampleTemperatureSensor_HandleKeys
//  650  *
//  651  * @brief   Handles all key events for this device.
//  652  *
//  653  * @param   shift - true if in shift/alt.
//  654  * @param   keys - bit field for key events. Valid entries:
//  655  *                 HAL_KEY_SW_5
//  656 *                 HAL_KEY_SW_4
//  657 *                 HAL_KEY_SW_3
//  658 *                 HAL_KEY_SW_2
//  659 *                 HAL_KEY_SW_1
//  660 *
//  661 * @return  none
//  662 */
//  663 static void zclMultiSensor_HandleKeys( byte shift, byte keys )
//  664 {
//  665   if ( keys & HAL_KEY_SW_1 )
//  666   {
//  667 
//  668     
//  669 //    ZDP_EndDeviceBindReq( &dstAddr, NLME_GetShortAddr(),
//  670 //                         MULTISENSOR_ENDPOINT_PIR,
//  671 //                         ZCL_HA_PROFILE_ID,
//  672 //                         ZCLMULTISENSOR_PIR_MAX_INCLUSTERS,
//  673 //                         (cId_t *)zclMultiSensor_Pir_InClusterList,
//  674 //                         ZCLMULTISENSOR_PIR_MAX_OUTCLUSTERS,
//  675 //                         (cId_t *)zclMultiSensor_Pir_OutClusterList,
//  676 //                         FALSE );
//  677     
//  678   }
//  679 }
//  680 
//  681 static void zclMultiSensor_UART_Init(void)
//  682 {
//  683   halUARTCfg_t uartConfig;
//  684   
//  685   // configure UART
//  686   uartConfig.configured           = TRUE;
//  687   uartConfig.baudRate             = HAL_UART_BR_38400;
//  688   uartConfig.flowControl          = FALSE;
//  689   uartConfig.flowControlThreshold = 48;
//  690   uartConfig.rx.maxBufSize        = 75;
//  691   uartConfig.tx.maxBufSize        = 7;
//  692   uartConfig.idleTimeout          = 6;
//  693   uartConfig.intEnable            = TRUE;
//  694   uartConfig.callBackFunc         = uartEventApplicationCB;
//  695   
//  696   HalUARTOpen( HAL_UART_PORT_0, &uartConfig);
//  697 }
//  698 

        RSEG BANKED_CODE:HUGECODE:NOROOT(0)
//  699 void uartEventApplicationCB(uint8 port, uint8 event)
uartEventApplicationCB:
          CFI Block cfiBlock12 Using cfiCommon0
          CFI Function uartEventApplicationCB
        CODE
//  700 {
        FUNCALL uartEventApplicationCB, Hal_UART_RxBufLen
        LOCFRAME ISTACK, 0, STACK
        LOCFRAME PSTACK, 0, STACK
        LOCFRAME XSTACK, 25, STACK
        LOCFRAME IOVERLAY, 0, STATIC
        LOCFRAME DOVERLAY, 0, STATIC
        ARGFRAME ISTACK, 0, STACK
        ARGFRAME PSTACK, 0, STACK
        ARGFRAME XSTACK, 25, STACK
        ARGFRAME IOVERLAY, 0, STATIC
        ARGFRAME DOVERLAY, 0, STATIC
        FUNCALL uartEventApplicationCB, HalUARTRead
        LOCFRAME ISTACK, 0, STACK
        LOCFRAME PSTACK, 0, STACK
        LOCFRAME XSTACK, 25, STACK
        LOCFRAME IOVERLAY, 0, STATIC
        LOCFRAME DOVERLAY, 0, STATIC
        ARGFRAME ISTACK, 0, STACK
        ARGFRAME PSTACK, 0, STACK
        ARGFRAME XSTACK, 25, STACK
        ARGFRAME IOVERLAY, 0, STATIC
        ARGFRAME DOVERLAY, 0, STATIC
        REQUIRE ?V0
        REQUIRE ?V1
        REQUIRE ?V2
        REQUIRE ?V3
        MOV       A,#-0xc
        LCALL     ?BANKED_ENTER_XDATA
          CFI DPH0 load(1, XDATA, add(CFA_XSP16, literal(-1)))
          CFI DPL0 load(1, XDATA, add(CFA_XSP16, literal(-2)))
          CFI ?BRET_EXT load(1, XDATA, add(CFA_XSP16, literal(-3)))
          CFI ?RET_HIGH load(1, XDATA, add(CFA_XSP16, literal(-4)))
          CFI ?RET_LOW load(1, XDATA, add(CFA_XSP16, literal(-5)))
          CFI R7 load(1, XDATA, add(CFA_XSP16, literal(-6)))
          CFI V3 load(1, XDATA, add(CFA_XSP16, literal(-7)))
          CFI V2 load(1, XDATA, add(CFA_XSP16, literal(-8)))
          CFI V1 load(1, XDATA, add(CFA_XSP16, literal(-9)))
          CFI V0 load(1, XDATA, add(CFA_XSP16, literal(-10)))
          CFI VB load(1, XDATA, add(CFA_XSP16, literal(-11)))
          CFI R6 load(1, XDATA, add(CFA_XSP16, literal(-12)))
          CFI CFA_SP SP+0
          CFI CFA_XSP16 add(XSP16, 12)
        ; Saved register size: 12
        ; Auto size: 13
        MOV       A,#-0xd
        LCALL     ?ALLOC_XSTACK8
          CFI CFA_XSP16 add(XSP16, 25)
        MOV       ?V1,R1
//  701     int16 valueOfSensors[NUMBER_OF_SENSOR] = {0};
        MOV       DPTR,#`?<Constant {0, 0, 0, 0, 0, 0}>`
        MOV       A,#0x1
        LCALL     ?XSTACK_DISP102_8
        MOV       A,#0xc
        LCALL     ?MOVE_LONG8_XDATA_XDATA
//  702     int fieldIndex = 0;         // the current field being received
        MOV       R6,A
        MOV       R7,A
//  703 
//  704     //osal_memset(valueOfSensors, 0, NUMBER_OF_SENSOR);
//  705     
//  706     if ( event & HAL_UART_RX_TIMEOUT)
        MOV       A,R2
        MOV       C,0xE0 /* A   */.2
        JC        ??uartEventApplicationCB_0
//  707     {
//  708       while ( Hal_UART_RxBufLen(port) > 0 )
//  709       {
//  710         uint8 ch;
//  711         HalUARTRead(port, &ch, 1);
//  712         if (ch >= '0' && ch <= '9')     // is this an ascii digit between 0 and 9 ?
//  713         {
//  714           //yes, accumulate the value
//  715           valueOfSensors[fieldIndex] = (valueOfSensors[fieldIndex] * 10) + (ch - '0');
//  716         }
//  717         else if (ch == ',')     // comma is our separator, so move on to the next field
//  718         {
//  719           if (fieldIndex < NUMBER_OF_SENSOR - 1)
//  720             fieldIndex++;       // increment field index
//  721         }
//  722         else
//  723         {
//  724           // any character not a digit or comma ends the acquisition of fields
//  725           // In this project, it's the newline character sent by the STM32 MCU
//  726           zclMultiSensor_Light_MeasuredValue = valueOfSensors[INDEX_LIGHT] ;
//  727           zclMultiSensor_Temperature_MeasuredValue = valueOfSensors[INDEX_TEMPERATURE];  
//  728           zclMultiSensor_Humidity_MeasuredValue = valueOfSensors[INDEX_HUMIDITY];
//  729           zclMultiSensor_Pir_Status = (uint8)valueOfSensors[INDEX_PIR];
//  730           zclMultiSensor_TVOC_MeasuredValue = valueOfSensors[INDEX_TVOC];
//  731           zclMultiSensor_CO2_MeasuredValue = valueOfSensors[INDEX_CO2];
//  732 
//  733         }
//  734       }
//  735     }
//  736 }
??uartEventApplicationCB_1:
        MOV       A,#0xd
        LJMP      ?Subroutine1 & 0xFFFF
??uartEventApplicationCB_2:
        MOV       A,R6
        MOV       R0,A
        MOV       A,R7
        MOV       R1,A
        MOV       A,R0
        ADD       A,R0
        MOV       R0,A
        MOV       A,R1
        RLC       A
        MOV       R1,A
        MOV       A,#0x1
        LCALL     ?XSTACK_DISP0_8
        MOV       A,DPL
        ADD       A,R0
        MOV       R0,A
        MOV       A,DPH
        ADDC      A,R1
        MOV       R1,A
        LCALL     ?Subroutine21 & 0xFFFF
??CrossCallReturnLabel_47:
        MOV       A,R2
        MOV       B,#0xa
        MUL       AB
        MOV       R2,A
        MOV       R4,B
        MOV       B,#0xa
        MOV       A,R3
        MUL       AB
        ADD       A,R4
        MOV       R3,A
        MOV       DPL,?XSP + 0
        MOV       DPH,?XSP + 1
        MOVX      A,@DPTR
        MOV       R4,A
        MOV       A,R2
        ADD       A,R4
        MOV       R2,A
        CLR       A
        ADDC      A,R3
        MOV       R3,A
        MOV       A,R2
        ADD       A,#-0x30
        MOV       R2,A
        MOV       A,R3
        ADDC      A,#-0x1
        MOV       R3,A
        MOV       DPL,R0
        MOV       DPH,R1
        MOV       A,R2
        MOVX      @DPTR,A
        INC       DPTR
        MOV       A,R3
??uartEventApplicationCB_3:
        MOVX      @DPTR,A
??uartEventApplicationCB_0:
        ; Setup parameters for call to function Hal_UART_RxBufLen
        MOV       R1,?V1
        LCALL     `??Hal_UART_RxBufLen::?relay`; Banked call to: Hal_UART_RxBufLen
        MOV       A,R2
        ORL       A,R3
        JZ        ??uartEventApplicationCB_1
        ; Setup parameters for call to function HalUARTRead
        MOV       R4,#0x1
        MOV       R5,#0x0
        MOV       R2,?XSP + 0
        MOV       R3,?XSP + 1
        MOV       R1,?V1
        LCALL     `??HalUARTRead::?relay`; Banked call to: HalUARTRead
        MOV       DPL,?XSP + 0
        MOV       DPH,?XSP + 1
        MOVX      A,@DPTR
        ADD       A,#-0x30
        CLR       C
        SUBB      A,#0xa
        JC        ??uartEventApplicationCB_2
        MOVX      A,@DPTR
        XRL       A,#0x2c
        JNZ       ??uartEventApplicationCB_4
        CLR       C
        MOV       A,R6
        SUBB      A,#0x5
        MOV       A,R7
        SUBB      A,#0x0
        MOV       C,0xD0 /* PSW */.2
        XRL       A,PSW
        RLC       A
        JNC       ??uartEventApplicationCB_0
        INC       R6
        MOV       A,R6
        JNZ       ??uartEventApplicationCB_0
        INC       R7
        SJMP      ??uartEventApplicationCB_0
??uartEventApplicationCB_4:
        MOV       A,#0x1
        LCALL     ?XSTACK_DISP0_8
        LCALL     ??Subroutine41_0 & 0xFFFF
??CrossCallReturnLabel_54:
        MOV       DPTR,#zclMultiSensor_Light_MeasuredValue
        LCALL     ??Subroutine45_0 & 0xFFFF
??CrossCallReturnLabel_81:
        MOV       A,#0x3
        LCALL     ?XSTACK_DISP0_8
        LCALL     ??Subroutine41_0 & 0xFFFF
??CrossCallReturnLabel_55:
        MOV       DPTR,#zclMultiSensor_Temperature_MeasuredValue
        LCALL     ??Subroutine45_0 & 0xFFFF
??CrossCallReturnLabel_82:
        MOV       A,#0x5
        LCALL     ?XSTACK_DISP0_8
        LCALL     ??Subroutine41_0 & 0xFFFF
??CrossCallReturnLabel_56:
        MOV       DPTR,#zclMultiSensor_Humidity_MeasuredValue
        LCALL     ??Subroutine45_0 & 0xFFFF
??CrossCallReturnLabel_83:
        MOV       A,#0x7
        LCALL     ?XSTACK_DISP0_8
        MOVX      A,@DPTR
        MOV       DPTR,#zclMultiSensor_Pir_Status
        MOVX      @DPTR,A
        MOV       A,#0x9
        LCALL     ?XSTACK_DISP0_8
        LCALL     ??Subroutine41_0 & 0xFFFF
??CrossCallReturnLabel_57:
        MOV       DPTR,#zclMultiSensor_TVOC_MeasuredValue
        LCALL     ??Subroutine45_0 & 0xFFFF
??CrossCallReturnLabel_84:
        MOV       A,#0xb
        LCALL     ?XSTACK_DISP0_8
        LCALL     ??Subroutine41_0 & 0xFFFF
??CrossCallReturnLabel_58:
        MOV       DPTR,#zclMultiSensor_CO2_MeasuredValue
        MOV       A,R0
        MOVX      @DPTR,A
        INC       DPTR
        MOV       A,R1
        LJMP      ??uartEventApplicationCB_3 & 0xFFFF
          CFI EndBlock cfiBlock12

        RSEG BANKED_CODE:HUGECODE:NOROOT(0)
?Subroutine21:
          CFI Block cfiCond13 Using cfiCommon0
          CFI Function uartEventApplicationCB
          CFI Conditional ??CrossCallReturnLabel_47
          CFI R6 load(1, XDATA, add(CFA_XSP16, literal(-12)))
          CFI VB load(1, XDATA, add(CFA_XSP16, literal(-11)))
          CFI V0 load(1, XDATA, add(CFA_XSP16, literal(-10)))
          CFI V1 load(1, XDATA, add(CFA_XSP16, literal(-9)))
          CFI V2 load(1, XDATA, add(CFA_XSP16, literal(-8)))
          CFI V3 load(1, XDATA, add(CFA_XSP16, literal(-7)))
          CFI R7 load(1, XDATA, add(CFA_XSP16, literal(-6)))
          CFI ?RET_LOW load(1, XDATA, add(CFA_XSP16, literal(-5)))
          CFI ?RET_HIGH load(1, XDATA, add(CFA_XSP16, literal(-4)))
          CFI ?BRET_EXT load(1, XDATA, add(CFA_XSP16, literal(-3)))
          CFI DPL0 load(1, XDATA, add(CFA_XSP16, literal(-2)))
          CFI DPH0 load(1, XDATA, add(CFA_XSP16, literal(-1)))
          CFI CFA_SP SP+-2
          CFI CFA_XSP16 add(XSP16, 25)
          CFI Block cfiCond14 Using cfiCommon0
          CFI (cfiCond14) Function zclMultiSensor_CheckReportConfig
          CFI (cfiCond14) Conditional ??CrossCallReturnLabel_48
          CFI (cfiCond14) R6 load(1, XDATA, add(CFA_XSP16, literal(-17)))
          CFI (cfiCond14) VB load(1, XDATA, add(CFA_XSP16, literal(-16)))
          CFI (cfiCond14) V0 load(1, XDATA, add(CFA_XSP16, literal(-15)))
          CFI (cfiCond14) V1 load(1, XDATA, add(CFA_XSP16, literal(-14)))
          CFI (cfiCond14) V2 load(1, XDATA, add(CFA_XSP16, literal(-13)))
          CFI (cfiCond14) V3 load(1, XDATA, add(CFA_XSP16, literal(-12)))
          CFI (cfiCond14) V4 load(1, XDATA, add(CFA_XSP16, literal(-11)))
          CFI (cfiCond14) V5 load(1, XDATA, add(CFA_XSP16, literal(-10)))
          CFI (cfiCond14) V6 load(1, XDATA, add(CFA_XSP16, literal(-9)))
          CFI (cfiCond14) V7 load(1, XDATA, add(CFA_XSP16, literal(-8)))
          CFI (cfiCond14) V8 load(1, XDATA, add(CFA_XSP16, literal(-7)))
          CFI (cfiCond14) R7 load(1, XDATA, add(CFA_XSP16, literal(-6)))
          CFI (cfiCond14) ?RET_LOW load(1, XDATA, add(CFA_XSP16, literal(-5)))
          CFI (cfiCond14) ?RET_HIGH load(1, XDATA, add(CFA_XSP16, literal(-4)))
          CFI (cfiCond14) ?BRET_EXT load(1, XDATA, add(CFA_XSP16, literal(-3)))
          CFI (cfiCond14) DPL0 load(1, XDATA, add(CFA_XSP16, literal(-2)))
          CFI (cfiCond14) DPH0 load(1, XDATA, add(CFA_XSP16, literal(-1)))
          CFI (cfiCond14) CFA_SP SP+-2
          CFI (cfiCond14) CFA_XSP16 add(XSP16, 17)
          CFI Block cfiPicker15 Using cfiCommon1
          CFI (cfiPicker15) NoFunction
          CFI (cfiPicker15) Picker
        MOV       DPL,R0
        MOV       DPH,A
          CFI EndBlock cfiCond13
          CFI EndBlock cfiCond14
          CFI EndBlock cfiPicker15
        REQUIRE ??Subroutine37_0
        ; // Fall through to label ??Subroutine37_0

        RSEG BANKED_CODE:HUGECODE:NOROOT(0)
??Subroutine37_0:
          CFI Block cfiCond16 Using cfiCommon0
          CFI Function zclMultiSensor_ProcessIncomingMsg
          CFI Conditional ??CrossCallReturnLabel_45
          CFI R6 load(1, XDATA, add(CFA_XSP16, literal(-12)))
          CFI VB load(1, XDATA, add(CFA_XSP16, literal(-11)))
          CFI V0 load(1, XDATA, add(CFA_XSP16, literal(-10)))
          CFI V1 load(1, XDATA, add(CFA_XSP16, literal(-9)))
          CFI V2 load(1, XDATA, add(CFA_XSP16, literal(-8)))
          CFI V3 load(1, XDATA, add(CFA_XSP16, literal(-7)))
          CFI R7 load(1, XDATA, add(CFA_XSP16, literal(-6)))
          CFI ?RET_LOW load(1, XDATA, add(CFA_XSP16, literal(-5)))
          CFI ?RET_HIGH load(1, XDATA, add(CFA_XSP16, literal(-4)))
          CFI ?BRET_EXT load(1, XDATA, add(CFA_XSP16, literal(-3)))
          CFI DPL0 load(1, XDATA, add(CFA_XSP16, literal(-2)))
          CFI DPH0 load(1, XDATA, add(CFA_XSP16, literal(-1)))
          CFI CFA_SP SP+-2
          CFI CFA_XSP16 add(XSP16, 24)
          CFI Block cfiCond17 Using cfiCommon0
          CFI (cfiCond17) Function zclMultiSensor_CheckAndSendClusterAttrReport
          CFI (cfiCond17) Conditional ??CrossCallReturnLabel_46
          CFI (cfiCond17) R6 load(1, XDATA, add(CFA_XSP16, literal(-24)))
          CFI (cfiCond17) VB load(1, XDATA, add(CFA_XSP16, literal(-23)))
          CFI (cfiCond17) V0 load(1, XDATA, add(CFA_XSP16, literal(-22)))
          CFI (cfiCond17) V1 load(1, XDATA, add(CFA_XSP16, literal(-21)))
          CFI (cfiCond17) V2 load(1, XDATA, add(CFA_XSP16, literal(-20)))
          CFI (cfiCond17) V3 load(1, XDATA, add(CFA_XSP16, literal(-19)))
          CFI (cfiCond17) V4 load(1, XDATA, add(CFA_XSP16, literal(-18)))
          CFI (cfiCond17) V5 load(1, XDATA, add(CFA_XSP16, literal(-17)))
          CFI (cfiCond17) V6 load(1, XDATA, add(CFA_XSP16, literal(-16)))
          CFI (cfiCond17) V7 load(1, XDATA, add(CFA_XSP16, literal(-15)))
          CFI (cfiCond17) V8 load(1, XDATA, add(CFA_XSP16, literal(-14)))
          CFI (cfiCond17) V9 load(1, XDATA, add(CFA_XSP16, literal(-13)))
          CFI (cfiCond17) V10 load(1, XDATA, add(CFA_XSP16, literal(-12)))
          CFI (cfiCond17) V11 load(1, XDATA, add(CFA_XSP16, literal(-11)))
          CFI (cfiCond17) V12 load(1, XDATA, add(CFA_XSP16, literal(-10)))
          CFI (cfiCond17) V13 load(1, XDATA, add(CFA_XSP16, literal(-9)))
          CFI (cfiCond17) V14 load(1, XDATA, add(CFA_XSP16, literal(-8)))
          CFI (cfiCond17) V15 load(1, XDATA, add(CFA_XSP16, literal(-7)))
          CFI (cfiCond17) R7 load(1, XDATA, add(CFA_XSP16, literal(-6)))
          CFI (cfiCond17) ?RET_LOW load(1, XDATA, add(CFA_XSP16, literal(-5)))
          CFI (cfiCond17) ?RET_HIGH load(1, XDATA, add(CFA_XSP16, literal(-4)))
          CFI (cfiCond17) ?BRET_EXT load(1, XDATA, add(CFA_XSP16, literal(-3)))
          CFI (cfiCond17) DPL0 load(1, XDATA, add(CFA_XSP16, literal(-2)))
          CFI (cfiCond17) DPH0 load(1, XDATA, add(CFA_XSP16, literal(-1)))
          CFI (cfiCond17) CFA_SP SP+-2
          CFI (cfiCond17) CFA_XSP16 add(XSP16, 36)
          CFI Block cfiCond18 Using cfiCommon0
          CFI (cfiCond18) Function uartEventApplicationCB
          CFI (cfiCond18) Conditional ??CrossCallReturnLabel_47
          CFI (cfiCond18) R6 load(1, XDATA, add(CFA_XSP16, literal(-12)))
          CFI (cfiCond18) VB load(1, XDATA, add(CFA_XSP16, literal(-11)))
          CFI (cfiCond18) V0 load(1, XDATA, add(CFA_XSP16, literal(-10)))
          CFI (cfiCond18) V1 load(1, XDATA, add(CFA_XSP16, literal(-9)))
          CFI (cfiCond18) V2 load(1, XDATA, add(CFA_XSP16, literal(-8)))
          CFI (cfiCond18) V3 load(1, XDATA, add(CFA_XSP16, literal(-7)))
          CFI (cfiCond18) R7 load(1, XDATA, add(CFA_XSP16, literal(-6)))
          CFI (cfiCond18) ?RET_LOW load(1, XDATA, add(CFA_XSP16, literal(-5)))
          CFI (cfiCond18) ?RET_HIGH load(1, XDATA, add(CFA_XSP16, literal(-4)))
          CFI (cfiCond18) ?BRET_EXT load(1, XDATA, add(CFA_XSP16, literal(-3)))
          CFI (cfiCond18) DPL0 load(1, XDATA, add(CFA_XSP16, literal(-2)))
          CFI (cfiCond18) DPH0 load(1, XDATA, add(CFA_XSP16, literal(-1)))
          CFI (cfiCond18) CFA_SP SP+-2
          CFI (cfiCond18) CFA_XSP16 add(XSP16, 25)
          CFI Block cfiCond19 Using cfiCommon0
          CFI (cfiCond19) Function zclMultiSensor_CheckReportConfig
          CFI (cfiCond19) Conditional ??CrossCallReturnLabel_48
          CFI (cfiCond19) R6 load(1, XDATA, add(CFA_XSP16, literal(-17)))
          CFI (cfiCond19) VB load(1, XDATA, add(CFA_XSP16, literal(-16)))
          CFI (cfiCond19) V0 load(1, XDATA, add(CFA_XSP16, literal(-15)))
          CFI (cfiCond19) V1 load(1, XDATA, add(CFA_XSP16, literal(-14)))
          CFI (cfiCond19) V2 load(1, XDATA, add(CFA_XSP16, literal(-13)))
          CFI (cfiCond19) V3 load(1, XDATA, add(CFA_XSP16, literal(-12)))
          CFI (cfiCond19) V4 load(1, XDATA, add(CFA_XSP16, literal(-11)))
          CFI (cfiCond19) V5 load(1, XDATA, add(CFA_XSP16, literal(-10)))
          CFI (cfiCond19) V6 load(1, XDATA, add(CFA_XSP16, literal(-9)))
          CFI (cfiCond19) V7 load(1, XDATA, add(CFA_XSP16, literal(-8)))
          CFI (cfiCond19) V8 load(1, XDATA, add(CFA_XSP16, literal(-7)))
          CFI (cfiCond19) R7 load(1, XDATA, add(CFA_XSP16, literal(-6)))
          CFI (cfiCond19) ?RET_LOW load(1, XDATA, add(CFA_XSP16, literal(-5)))
          CFI (cfiCond19) ?RET_HIGH load(1, XDATA, add(CFA_XSP16, literal(-4)))
          CFI (cfiCond19) ?BRET_EXT load(1, XDATA, add(CFA_XSP16, literal(-3)))
          CFI (cfiCond19) DPL0 load(1, XDATA, add(CFA_XSP16, literal(-2)))
          CFI (cfiCond19) DPH0 load(1, XDATA, add(CFA_XSP16, literal(-1)))
          CFI (cfiCond19) CFA_SP SP+-2
          CFI (cfiCond19) CFA_XSP16 add(XSP16, 17)
          CFI Block cfiPicker20 Using cfiCommon1
          CFI (cfiPicker20) NoFunction
          CFI (cfiPicker20) Picker
        LCALL     ??Subroutine44_0 & 0xFFFF
??CrossCallReturnLabel_79:
        RET
          CFI EndBlock cfiCond16
          CFI EndBlock cfiCond17
          CFI EndBlock cfiCond18
          CFI EndBlock cfiCond19
          CFI EndBlock cfiPicker20
//  737 
//  738 /*********************************************************************
//  739 * @fn      zclMultiSensor_CheckAndSendClusterAttrReport
//  740 *
//  741 * @brief   Check if there is a reportable attribute in all cluster is timeout to report
//  742 *
//  743 * @param   none
//  744 *
//  745 * @return  none
//  746 */

        RSEG BANKED_CODE:HUGECODE:NOROOT(0)
//  747 static void zclMultiSensor_CheckAndSendClusterAttrReport( uint8 endpoint, uint16 clusterId,
zclMultiSensor_CheckAndSendClusterAttrReport:
          CFI Block cfiBlock21 Using cfiCommon0
          CFI Function zclMultiSensor_CheckAndSendClusterAttrReport
        CODE
//  748                                                                      zclConfigReportRecsList *pConfigReportRecsList )
//  749 {
        FUNCALL zclMultiSensor_CheckAndSendClusterAttrReport, osal_mem_alloc
        LOCFRAME ISTACK, 0, STACK
        LOCFRAME PSTACK, 0, STACK
        LOCFRAME XSTACK, 34, STACK
        LOCFRAME IOVERLAY, 0, STATIC
        LOCFRAME DOVERLAY, 0, STATIC
        ARGFRAME ISTACK, 0, STACK
        ARGFRAME PSTACK, 0, STACK
        ARGFRAME XSTACK, 34, STACK
        ARGFRAME IOVERLAY, 0, STATIC
        ARGFRAME DOVERLAY, 0, STATIC
        FUNCALL zclMultiSensor_CheckAndSendClusterAttrReport, osal_memset
        LOCFRAME ISTACK, 0, STACK
        LOCFRAME PSTACK, 0, STACK
        LOCFRAME XSTACK, 34, STACK
        LOCFRAME IOVERLAY, 0, STATIC
        LOCFRAME DOVERLAY, 0, STATIC
        ARGFRAME ISTACK, 0, STACK
        ARGFRAME PSTACK, 0, STACK
        ARGFRAME XSTACK, 34, STACK
        ARGFRAME IOVERLAY, 0, STATIC
        ARGFRAME DOVERLAY, 0, STATIC
        FUNCALL zclMultiSensor_CheckAndSendClusterAttrReport, zclFindAttrRec
        LOCFRAME ISTACK, 0, STACK
        LOCFRAME PSTACK, 0, STACK
        LOCFRAME XSTACK, 36, STACK
        LOCFRAME IOVERLAY, 0, STATIC
        LOCFRAME DOVERLAY, 0, STATIC
        ARGFRAME ISTACK, 0, STACK
        ARGFRAME PSTACK, 0, STACK
        ARGFRAME XSTACK, 36, STACK
        ARGFRAME IOVERLAY, 0, STATIC
        ARGFRAME DOVERLAY, 0, STATIC
        FUNCALL zclMultiSensor_CheckAndSendClusterAttrReport, osal_msg_allocate
        LOCFRAME ISTACK, 0, STACK
        LOCFRAME PSTACK, 0, STACK
        LOCFRAME XSTACK, 34, STACK
        LOCFRAME IOVERLAY, 0, STATIC
        LOCFRAME DOVERLAY, 0, STATIC
        ARGFRAME ISTACK, 0, STACK
        ARGFRAME PSTACK, 0, STACK
        ARGFRAME XSTACK, 34, STACK
        ARGFRAME IOVERLAY, 0, STATIC
        ARGFRAME DOVERLAY, 0, STATIC
        FUNCALL zclMultiSensor_CheckAndSendClusterAttrReport, osal_msg_send
        LOCFRAME ISTACK, 0, STACK
        LOCFRAME PSTACK, 0, STACK
        LOCFRAME XSTACK, 34, STACK
        LOCFRAME IOVERLAY, 0, STATIC
        LOCFRAME DOVERLAY, 0, STATIC
        ARGFRAME ISTACK, 0, STACK
        ARGFRAME PSTACK, 0, STACK
        ARGFRAME XSTACK, 34, STACK
        ARGFRAME IOVERLAY, 0, STATIC
        ARGFRAME DOVERLAY, 0, STATIC
        REQUIRE ?V0
        REQUIRE ?V1
        REQUIRE ?V2
        REQUIRE ?V3
        REQUIRE ?V4
        REQUIRE ?V6
        REQUIRE ?V7
        REQUIRE ?V8
        REQUIRE ?V9
        REQUIRE ?V10
        REQUIRE ?V11
        REQUIRE ?V12
        REQUIRE ?V13
        REQUIRE ?V14
        REQUIRE ?V15
        MOV       A,#-0x18
        LCALL     ?BANKED_ENTER_XDATA
          CFI DPH0 load(1, XDATA, add(CFA_XSP16, literal(-1)))
          CFI DPL0 load(1, XDATA, add(CFA_XSP16, literal(-2)))
          CFI ?BRET_EXT load(1, XDATA, add(CFA_XSP16, literal(-3)))
          CFI ?RET_HIGH load(1, XDATA, add(CFA_XSP16, literal(-4)))
          CFI ?RET_LOW load(1, XDATA, add(CFA_XSP16, literal(-5)))
          CFI R7 load(1, XDATA, add(CFA_XSP16, literal(-6)))
          CFI V15 load(1, XDATA, add(CFA_XSP16, literal(-7)))
          CFI V14 load(1, XDATA, add(CFA_XSP16, literal(-8)))
          CFI V13 load(1, XDATA, add(CFA_XSP16, literal(-9)))
          CFI V12 load(1, XDATA, add(CFA_XSP16, literal(-10)))
          CFI V11 load(1, XDATA, add(CFA_XSP16, literal(-11)))
          CFI V10 load(1, XDATA, add(CFA_XSP16, literal(-12)))
          CFI V9 load(1, XDATA, add(CFA_XSP16, literal(-13)))
          CFI V8 load(1, XDATA, add(CFA_XSP16, literal(-14)))
          CFI V7 load(1, XDATA, add(CFA_XSP16, literal(-15)))
          CFI V6 load(1, XDATA, add(CFA_XSP16, literal(-16)))
          CFI V5 load(1, XDATA, add(CFA_XSP16, literal(-17)))
          CFI V4 load(1, XDATA, add(CFA_XSP16, literal(-18)))
          CFI V3 load(1, XDATA, add(CFA_XSP16, literal(-19)))
          CFI V2 load(1, XDATA, add(CFA_XSP16, literal(-20)))
          CFI V1 load(1, XDATA, add(CFA_XSP16, literal(-21)))
          CFI V0 load(1, XDATA, add(CFA_XSP16, literal(-22)))
          CFI VB load(1, XDATA, add(CFA_XSP16, literal(-23)))
          CFI R6 load(1, XDATA, add(CFA_XSP16, literal(-24)))
          CFI CFA_SP SP+0
          CFI CFA_XSP16 add(XSP16, 24)
        ; Saved register size: 24
        ; Auto size: 10
        MOV       A,#-0xa
        LCALL     ?ALLOC_XSTACK8
          CFI CFA_XSP16 add(XSP16, 34)
        MOV       ?V4,R1
        MOV       ?V12,R2
        MOV       ?V13,R3
        MOV       ?V8,R4
        MOV       ?V9,R5
//  750   uint8 numAttr = 0;
        MOV       ?V0,#0x0
//  751   uint8 x;
//  752   uint16 len;
//  753   zclReportCmd_t *pReportCmd;
//  754   zclConfigReportRec_t *pConfigReportRec = NULL;
//  755   zclAttrRec_t attrRec;
//  756   
//  757   for (x = 0; x < pConfigReportRecsList->numConfigReportRec; x++)
        MOV       ?V1,#0x0
        SJMP      ??zclMultiSensor_CheckAndSendClusterAttrReport_0
//  758   {
//  759     pConfigReportRec = &(pConfigReportRecsList->configReportRecs[x]);
??zclMultiSensor_CheckAndSendClusterAttrReport_1:
        MOV       A,?V1
        MOV       B,#0x12
        MUL       AB
        MOV       R0,A
        MOV       R1,B
        MOV       DPL,R4
        MOV       DPH,R5
        LCALL     ?Subroutine13 & 0xFFFF
//  760     
//  761     if (pConfigReportRec->clusterId == clusterId &&
//  762         pConfigReportRec->cfgReportRec.maxReportInt != 0xFFFF)
??CrossCallReturnLabel_14:
        XRL       A,R2
        JNZ       ??zclMultiSensor_CheckAndSendClusterAttrReport_2
        INC       DPTR
        MOVX      A,@DPTR
        XRL       A,R3
??zclMultiSensor_CheckAndSendClusterAttrReport_2:
        JNZ       ??zclMultiSensor_CheckAndSendClusterAttrReport_3
        LCALL     ?Subroutine25 & 0xFFFF
??CrossCallReturnLabel_31:
        JNZ       ??zclMultiSensor_CheckAndSendClusterAttrReport_4
        INC       DPTR
        MOVX      A,@DPTR
        CPL       A
??zclMultiSensor_CheckAndSendClusterAttrReport_4:
        JZ        ??zclMultiSensor_CheckAndSendClusterAttrReport_3
//  763     {
//  764       if (pConfigReportRec->timeup == 0xFFFF || pConfigReportRec->timeup == gTimeCounter)
        MOV       DPL,?V2
        MOV       DPH,?V3
        INC       DPTR
        INC       DPTR
        LCALL     ?Subroutine23 & 0xFFFF
??CrossCallReturnLabel_29:
        JNZ       ??zclMultiSensor_CheckAndSendClusterAttrReport_5
        MOV       A,#-0x1
        XRL       A,R1
??zclMultiSensor_CheckAndSendClusterAttrReport_5:
        JZ        ??zclMultiSensor_CheckAndSendClusterAttrReport_6
        MOV       DPTR,#gTimeCounter
        MOVX      A,@DPTR
        XRL       A,R0
        JNZ       ??zclMultiSensor_CheckAndSendClusterAttrReport_7
        INC       DPTR
        MOVX      A,@DPTR
        XRL       A,R1
??zclMultiSensor_CheckAndSendClusterAttrReport_7:
        JNZ       ??zclMultiSensor_CheckAndSendClusterAttrReport_3
//  765       {
//  766         numAttr++;
??zclMultiSensor_CheckAndSendClusterAttrReport_6:
        INC       ?V0
//  767       }
//  768     }
//  769   }
??zclMultiSensor_CheckAndSendClusterAttrReport_3:
        INC       ?V1
??zclMultiSensor_CheckAndSendClusterAttrReport_0:
        MOV       DPL,R4
        MOV       DPH,R5
        INC       DPTR
        INC       DPTR
        INC       DPTR
        MOVX      A,@DPTR
        MOV       R0,A
        MOV       A,?V1
        CLR       C
        SUBB      A,R0
        JC        ??zclMultiSensor_CheckAndSendClusterAttrReport_1
//  770   
//  771   if (numAttr != 0)
        MOV       A,?V0
        JZ        ??zclMultiSensor_CheckAndSendClusterAttrReport_8
//  772   {
//  773     // we need to send a report - allocate space for it
//  774     len = sizeof(zclReportCmd_t) + (numAttr * sizeof(zclReport_t));
        MOV       B,#0x5
        MUL       AB
        MOV       R1,B
        ADD       A,#0x1
        MOV       R6,A
        CLR       A
        ADDC      A,R1
        MOV       R7,A
//  775     pReportCmd = (zclReportCmd_t *)zcl_mem_alloc( len );
        ; Setup parameters for call to function osal_mem_alloc
        MOV       A,R6
        MOV       R2,A
        MOV       A,R7
        MOV       R3,A
        LCALL     `??osal_mem_alloc::?relay`; Banked call to: osal_mem_alloc
        MOV       DPL,?XSP + 0
        MOV       DPH,?XSP + 1
        LCALL     ?Subroutine4 & 0xFFFF
//  776     pReportCmd->numAttr = numAttr;
//  777   }
??CrossCallReturnLabel_0:
        MOV       A,?V0
        MOVX      @DPTR,A
//  778   
//  779   numAttr = 0;
??zclMultiSensor_CheckAndSendClusterAttrReport_8:
        MOV       ?V0,#0x0
//  780   
//  781   for (x = 0; x < pConfigReportRecsList->numConfigReportRec; x++ )
        MOV       ?V1,#0x0
        SJMP      ??zclMultiSensor_CheckAndSendClusterAttrReport_9
//  782   {
//  783     zclReport_t *reportRec;
//  784     pConfigReportRec = &(pConfigReportRecsList->configReportRecs[x]);
//  785     
//  786     if (pConfigReportRec->clusterId == clusterId && pConfigReportRec->cfgReportRec.maxReportInt != 0xFFFF)      // need report
//  787     {
//  788       if (pConfigReportRec->timeup == 0xFFFF || pConfigReportRec->timeup == gTimeCounter)       //timeup to report
//  789       {
//  790         // fill the record in *pReportCmd
//  791         reportRec = &(pReportCmd->attrList[numAttr]);
//  792         zcl_memset( reportRec, 0, sizeof(zclReport_t));
//  793         numAttr++;
//  794         zclFindAttrRec(endpoint, pConfigReportRec->clusterId, pConfigReportRec->cfgReportRec.attrID, &attrRec);
//  795         
//  796         reportRec->attrID = attrRec.attr.attrId;
//  797         reportRec->dataType = attrRec.attr.dataType;
//  798         reportRec->attrData = attrRec.attr.dataPtr;
//  799         
//  800         if (pConfigReportRec->cfgReportRec.minReportInt == 0)
//  801           pConfigReportRec->timeup = gTimeCounter + pConfigReportRec->cfgReportRec.maxReportInt;
//  802         else
//  803           pConfigReportRec->timeup = gTimeCounter + pConfigReportRec->cfgReportRec.minReportInt;
??zclMultiSensor_CheckAndSendClusterAttrReport_10:
        MOVX      A,@DPTR
        ADD       A,R0
        MOV       R0,A
        INC       DPTR
        MOVX      A,@DPTR
        ADDC      A,R1
        MOV       R1,A
        MOV       DPL,?V14
        MOV       DPH,?V15
        LCALL     ??Subroutine45_0 & 0xFFFF
??CrossCallReturnLabel_85:
        INC       ?V1
??zclMultiSensor_CheckAndSendClusterAttrReport_9:
        MOV       DPL,?V8
        MOV       DPH,?V9
        INC       DPTR
        INC       DPTR
        INC       DPTR
        MOVX      A,@DPTR
        MOV       R0,A
        MOV       A,?V1
        CLR       C
        SUBB      A,R0
        JC        $+5
        LJMP      ??zclMultiSensor_CheckAndSendClusterAttrReport_11 & 0xFFFF
        MOV       A,?V1
        MOV       B,#0x12
        MUL       AB
        MOV       R0,A
        MOV       R1,B
        MOV       DPL,?V8
        MOV       DPH,?V9
        LCALL     ?Subroutine13 & 0xFFFF
??CrossCallReturnLabel_15:
        XRL       A,?V12
        JNZ       ??zclMultiSensor_CheckAndSendClusterAttrReport_12
        INC       DPTR
        MOVX      A,@DPTR
        XRL       A,?V13
??zclMultiSensor_CheckAndSendClusterAttrReport_12:
        JNZ       ??CrossCallReturnLabel_85
        LCALL     ?Subroutine25 & 0xFFFF
??CrossCallReturnLabel_32:
        JNZ       ??zclMultiSensor_CheckAndSendClusterAttrReport_13
        INC       DPTR
        MOVX      A,@DPTR
        CPL       A
??zclMultiSensor_CheckAndSendClusterAttrReport_13:
        JZ        ??CrossCallReturnLabel_85
        MOV       A,?V2
        ADD       A,#0x2
        MOV       ?V14,A
        CLR       A
        ADDC      A,?V3
        MOV       ?V15,A
        MOV       DPL,?V14
        MOV       DPH,A
        LCALL     ?Subroutine23 & 0xFFFF
??CrossCallReturnLabel_30:
        JNZ       ??zclMultiSensor_CheckAndSendClusterAttrReport_14
        MOV       A,#-0x1
        XRL       A,R1
??zclMultiSensor_CheckAndSendClusterAttrReport_14:
        JZ        ??zclMultiSensor_CheckAndSendClusterAttrReport_15
        MOV       DPTR,#gTimeCounter
        MOVX      A,@DPTR
        XRL       A,R0
        JNZ       ??zclMultiSensor_CheckAndSendClusterAttrReport_16
        INC       DPTR
        MOVX      A,@DPTR
        XRL       A,R1
??zclMultiSensor_CheckAndSendClusterAttrReport_16:
        JNZ       ??CrossCallReturnLabel_85
??zclMultiSensor_CheckAndSendClusterAttrReport_15:
        MOV       A,?V0
        MOV       B,#0x5
        MUL       AB
        MOV       R0,A
        MOV       R1,B
        MOV       DPL,?XSP + 0
        MOV       DPH,?XSP + 1
        MOVX      A,@DPTR
        ADD       A,R0
        MOV       R2,A
        INC       DPTR
        MOVX      A,@DPTR
        ADDC      A,R1
        MOV       DPL,R2
        MOV       DPH,A
        INC       DPTR
        MOV       ?V6,DPL
        MOV       ?V7,DPH
        ; Setup parameters for call to function osal_memset
        MOV       R4,#0x5
        MOV       R5,#0x0
        MOV       R1,#0x0
        MOV       R2,?V6
        MOV       R3,?V7
        LCALL     `??osal_memset::?relay`; Banked call to: osal_memset
        INC       ?V0
        ; Setup parameters for call to function zclFindAttrRec
        MOV       A,#0x2
        LCALL     ?XSTACK_DISP100_8
        MOV       ?V10,R0
        MOV       ?V11,R1
        MOV       R0,#?V10
        LCALL     ?PUSH_XSTACK_I_TWO
          CFI CFA_XSP16 add(XSP16, 36)
        MOV       DPL,?V2
        MOV       DPH,?V3
        LCALL     ??Subroutine39_0 & 0xFFFF
??CrossCallReturnLabel_51:
        MOV       DPL,?V2
        MOV       DPH,?V3
        LCALL     ??Subroutine37_0 & 0xFFFF
??CrossCallReturnLabel_46:
        MOV       R1,?V4
        LCALL     `??zclFindAttrRec::?relay`; Banked call to: zclFindAttrRec
        MOV       A,#0x2
        LCALL     ?DEALLOC_XSTACK8
          CFI CFA_XSP16 add(XSP16, 34)
        MOV       A,#0x4
        LCALL     ?XSTACK_DISP0_8
        LCALL     ?Subroutine17 & 0xFFFF
??CrossCallReturnLabel_21:
        LCALL     ??Subroutine45_0 & 0xFFFF
??CrossCallReturnLabel_86:
        MOV       A,#0x6
        LCALL     ?XSTACK_DISP0_8
        MOVX      A,@DPTR
        MOV       DPL,?V6
        MOV       DPH,?V7
        INC       DPTR
        INC       DPTR
        MOVX      @DPTR,A
        MOV       A,#0x8
        LCALL     ?XSTACK_DISP0_8
        LCALL     ?Subroutine17 & 0xFFFF
??CrossCallReturnLabel_22:
        INC       DPTR
        LCALL     ?Subroutine7 & 0xFFFF
??CrossCallReturnLabel_90:
        MOV       DPL,?V2
        MOV       DPH,?V3
        INC       DPTR
        INC       DPTR
        INC       DPTR
        INC       DPTR
        INC       DPTR
        INC       DPTR
        INC       DPTR
        INC       DPTR
        INC       DPTR
        INC       DPTR
        LCALL     ??Subroutine41_0 & 0xFFFF
??CrossCallReturnLabel_59:
        MOV       A,R0
        ORL       A,R1
        MOV       DPTR,#gTimeCounter
        JZ        $+5
        LJMP      ??zclMultiSensor_CheckAndSendClusterAttrReport_10 & 0xFFFF
        LCALL     ??Subroutine41_0 & 0xFFFF
//  804       }
//  805     }
//  806   }
??CrossCallReturnLabel_60:
        MOV       A,?V2
        ADD       A,#0xc
        MOV       DPL,A
        CLR       A
        ADDC      A,?V3
        MOV       DPH,A
        LJMP      ??zclMultiSensor_CheckAndSendClusterAttrReport_10 & 0xFFFF
//  807   
//  808   if (numAttr != 0)
??zclMultiSensor_CheckAndSendClusterAttrReport_11:
        MOV       A,?V0
        JNZ       $+5
        LJMP      ??zclMultiSensor_CheckAndSendClusterAttrReport_17 & 0xFFFF
//  809   {
//  810     SendZclAttrReport( endpoint, clusterId, pReportCmd, len);
        ; Setup parameters for call to function osal_msg_allocate
        MOV       A,R6
        ADD       A,#0x19
        MOV       R2,A
        CLR       A
        ADDC      A,#0x0
        MOV       R3,A
        LCALL     `??osal_msg_allocate::?relay`; Banked call to: osal_msg_allocate
        MOV       A,R2
        ORL       A,R3
        JZ        ??zclMultiSensor_CheckAndSendClusterAttrReport_17
        MOV       DPL,R2
        MOV       DPH,R3
        MOV       A,#0x34
        MOVX      @DPTR,A
        INC       DPTR
        CLR       A
        LCALL     ?Subroutine35 & 0xFFFF
//  811   }
??CrossCallReturnLabel_43:
        MOVX      @DPTR,A
        INC       DPTR
        LCALL     ?Subroutine9 & 0xFFFF
??CrossCallReturnLabel_8:
        LCALL     ?Subroutine9 & 0xFFFF
??CrossCallReturnLabel_9:
        INC       DPTR
        MOV       A,#0xa
        LCALL     ?Subroutine8 & 0xFFFF
??CrossCallReturnLabel_6:
        MOV       A,?V12
        MOVX      @DPTR,A
        INC       DPTR
        MOV       A,?V13
        MOVX      @DPTR,A
        MOV       A,R2
        ADD       A,#0x12
        MOV       DPL,A
        CLR       A
        ADDC      A,R3
        MOV       DPH,A
        MOV       A,#0x2
        LCALL     ?Subroutine8 & 0xFFFF
??CrossCallReturnLabel_7:
        INC       DPTR
        INC       DPTR
        CLR       A
        MOVX      @DPTR,A
        INC       DPTR
        MOVX      @DPTR,A
        MOV       A,R2
        ADD       A,#0x14
        MOV       DPL,A
        CLR       A
        ADDC      A,R3
        MOV       DPH,A
        CLR       A
        MOVX      @DPTR,A
        INC       DPTR
        MOVX      @DPTR,A
        MOV       A,R2
        ADD       A,#0x13
        MOV       DPL,A
        CLR       A
        ADDC      A,R3
        MOV       DPH,A
        MOV       A,?V4
        MOVX      @DPTR,A
        MOV       A,R2
        ADD       A,#0x16
        MOV       DPL,A
        CLR       A
        ADDC      A,R3
        MOV       DPH,A
        MOV       A,?V4
        MOVX      @DPTR,A
        MOV       DPL,?XSP + 0
        MOV       DPH,?XSP + 1
        LCALL     ??Subroutine41_0 & 0xFFFF
??CrossCallReturnLabel_61:
        MOV       A,R2
        ADD       A,#0x17
        MOV       DPL,A
        CLR       A
        ADDC      A,R3
        MOV       DPH,A
        LCALL     ??Subroutine45_0 & 0xFFFF
??CrossCallReturnLabel_87:
        ; Setup parameters for call to function osal_msg_send
        MOV       DPTR,#zclMultiSensor_TaskID
        MOVX      A,@DPTR
        MOV       R1,A
        LCALL     `??osal_msg_send::?relay`; Banked call to: osal_msg_send
//  812 }
??zclMultiSensor_CheckAndSendClusterAttrReport_17:
          CFI EndBlock cfiBlock21
        REQUIRE ?Subroutine2
        ; // Fall through to label ?Subroutine2

        RSEG BANKED_CODE:HUGECODE:NOROOT(0)
?Subroutine2:
          CFI Block cfiBlock22 Using cfiCommon0
          CFI NoFunction
          CFI CFA_SP SP+0
          CFI CFA_XSP16 add(XSP16, 34)
          CFI VB load(1, XDATA, add(CFA_XSP16, literal(-23)))
          CFI DPL0 load(1, XDATA, add(CFA_XSP16, literal(-2)))
          CFI DPH0 load(1, XDATA, add(CFA_XSP16, literal(-1)))
          CFI R6 load(1, XDATA, add(CFA_XSP16, literal(-24)))
          CFI R7 load(1, XDATA, add(CFA_XSP16, literal(-6)))
          CFI V0 load(1, XDATA, add(CFA_XSP16, literal(-22)))
          CFI V1 load(1, XDATA, add(CFA_XSP16, literal(-21)))
          CFI V2 load(1, XDATA, add(CFA_XSP16, literal(-20)))
          CFI V3 load(1, XDATA, add(CFA_XSP16, literal(-19)))
          CFI V4 load(1, XDATA, add(CFA_XSP16, literal(-18)))
          CFI V5 load(1, XDATA, add(CFA_XSP16, literal(-17)))
          CFI V6 load(1, XDATA, add(CFA_XSP16, literal(-16)))
          CFI V7 load(1, XDATA, add(CFA_XSP16, literal(-15)))
          CFI V8 load(1, XDATA, add(CFA_XSP16, literal(-14)))
          CFI V9 load(1, XDATA, add(CFA_XSP16, literal(-13)))
          CFI V10 load(1, XDATA, add(CFA_XSP16, literal(-12)))
          CFI V11 load(1, XDATA, add(CFA_XSP16, literal(-11)))
          CFI V12 load(1, XDATA, add(CFA_XSP16, literal(-10)))
          CFI V13 load(1, XDATA, add(CFA_XSP16, literal(-9)))
          CFI V14 load(1, XDATA, add(CFA_XSP16, literal(-8)))
          CFI V15 load(1, XDATA, add(CFA_XSP16, literal(-7)))
          CFI ?BRET_EXT load(1, XDATA, add(CFA_XSP16, literal(-3)))
          CFI ?RET_HIGH load(1, XDATA, add(CFA_XSP16, literal(-4)))
          CFI ?RET_LOW load(1, XDATA, add(CFA_XSP16, literal(-5)))
        MOV       A,#0xa
          CFI EndBlock cfiBlock22
        REQUIRE ??Subroutine38_0
        ; // Fall through to label ??Subroutine38_0

        RSEG BANKED_CODE:HUGECODE:NOROOT(0)
??Subroutine38_0:
          CFI Block cfiBlock23 Using cfiCommon0
          CFI NoFunction
          CFI CFA_SP SP+0
          CFI CFA_XSP16 add(XSP16, 36)
          CFI VB load(1, XDATA, add(CFA_XSP16, literal(-23)))
          CFI DPL0 load(1, XDATA, add(CFA_XSP16, literal(-2)))
          CFI DPH0 load(1, XDATA, add(CFA_XSP16, literal(-1)))
          CFI R6 load(1, XDATA, add(CFA_XSP16, literal(-24)))
          CFI R7 load(1, XDATA, add(CFA_XSP16, literal(-6)))
          CFI V0 load(1, XDATA, add(CFA_XSP16, literal(-22)))
          CFI V1 load(1, XDATA, add(CFA_XSP16, literal(-21)))
          CFI V2 load(1, XDATA, add(CFA_XSP16, literal(-20)))
          CFI V3 load(1, XDATA, add(CFA_XSP16, literal(-19)))
          CFI V4 load(1, XDATA, add(CFA_XSP16, literal(-18)))
          CFI V5 load(1, XDATA, add(CFA_XSP16, literal(-17)))
          CFI V6 load(1, XDATA, add(CFA_XSP16, literal(-16)))
          CFI V7 load(1, XDATA, add(CFA_XSP16, literal(-15)))
          CFI V8 load(1, XDATA, add(CFA_XSP16, literal(-14)))
          CFI V9 load(1, XDATA, add(CFA_XSP16, literal(-13)))
          CFI V10 load(1, XDATA, add(CFA_XSP16, literal(-12)))
          CFI V11 load(1, XDATA, add(CFA_XSP16, literal(-11)))
          CFI V12 load(1, XDATA, add(CFA_XSP16, literal(-10)))
          CFI V13 load(1, XDATA, add(CFA_XSP16, literal(-9)))
          CFI V14 load(1, XDATA, add(CFA_XSP16, literal(-8)))
          CFI V15 load(1, XDATA, add(CFA_XSP16, literal(-7)))
          CFI ?BRET_EXT load(1, XDATA, add(CFA_XSP16, literal(-3)))
          CFI ?RET_HIGH load(1, XDATA, add(CFA_XSP16, literal(-4)))
          CFI ?RET_LOW load(1, XDATA, add(CFA_XSP16, literal(-5)))
          CFI Invalid
        LCALL     ?DEALLOC_XSTACK8
          CFI CFA_XSP16 add(XSP16, 24)
          CFI Valid
        MOV       R7,#0x10
        LJMP      ?BANKED_LEAVE_XDATA
          CFI EndBlock cfiBlock23

        RSEG BANKED_CODE:HUGECODE:NOROOT(0)
?Subroutine25:
          CFI Block cfiCond24 Using cfiCommon0
          CFI Function zclMultiSensor_CheckAndSendClusterAttrReport
          CFI Conditional ??CrossCallReturnLabel_31
          CFI R6 load(1, XDATA, add(CFA_XSP16, literal(-24)))
          CFI VB load(1, XDATA, add(CFA_XSP16, literal(-23)))
          CFI V0 load(1, XDATA, add(CFA_XSP16, literal(-22)))
          CFI V1 load(1, XDATA, add(CFA_XSP16, literal(-21)))
          CFI V2 load(1, XDATA, add(CFA_XSP16, literal(-20)))
          CFI V3 load(1, XDATA, add(CFA_XSP16, literal(-19)))
          CFI V4 load(1, XDATA, add(CFA_XSP16, literal(-18)))
          CFI V5 load(1, XDATA, add(CFA_XSP16, literal(-17)))
          CFI V6 load(1, XDATA, add(CFA_XSP16, literal(-16)))
          CFI V7 load(1, XDATA, add(CFA_XSP16, literal(-15)))
          CFI V8 load(1, XDATA, add(CFA_XSP16, literal(-14)))
          CFI V9 load(1, XDATA, add(CFA_XSP16, literal(-13)))
          CFI V10 load(1, XDATA, add(CFA_XSP16, literal(-12)))
          CFI V11 load(1, XDATA, add(CFA_XSP16, literal(-11)))
          CFI V12 load(1, XDATA, add(CFA_XSP16, literal(-10)))
          CFI V13 load(1, XDATA, add(CFA_XSP16, literal(-9)))
          CFI V14 load(1, XDATA, add(CFA_XSP16, literal(-8)))
          CFI V15 load(1, XDATA, add(CFA_XSP16, literal(-7)))
          CFI R7 load(1, XDATA, add(CFA_XSP16, literal(-6)))
          CFI ?RET_LOW load(1, XDATA, add(CFA_XSP16, literal(-5)))
          CFI ?RET_HIGH load(1, XDATA, add(CFA_XSP16, literal(-4)))
          CFI ?BRET_EXT load(1, XDATA, add(CFA_XSP16, literal(-3)))
          CFI DPL0 load(1, XDATA, add(CFA_XSP16, literal(-2)))
          CFI DPH0 load(1, XDATA, add(CFA_XSP16, literal(-1)))
          CFI CFA_SP SP+-2
          CFI CFA_XSP16 add(XSP16, 34)
          CFI Block cfiCond25 Using cfiCommon0
          CFI (cfiCond25) Function zclMultiSensor_CheckAndSendClusterAttrReport
          CFI (cfiCond25) Conditional ??CrossCallReturnLabel_32
          CFI (cfiCond25) R6 load(1, XDATA, add(CFA_XSP16, literal(-24)))
          CFI (cfiCond25) VB load(1, XDATA, add(CFA_XSP16, literal(-23)))
          CFI (cfiCond25) V0 load(1, XDATA, add(CFA_XSP16, literal(-22)))
          CFI (cfiCond25) V1 load(1, XDATA, add(CFA_XSP16, literal(-21)))
          CFI (cfiCond25) V2 load(1, XDATA, add(CFA_XSP16, literal(-20)))
          CFI (cfiCond25) V3 load(1, XDATA, add(CFA_XSP16, literal(-19)))
          CFI (cfiCond25) V4 load(1, XDATA, add(CFA_XSP16, literal(-18)))
          CFI (cfiCond25) V5 load(1, XDATA, add(CFA_XSP16, literal(-17)))
          CFI (cfiCond25) V6 load(1, XDATA, add(CFA_XSP16, literal(-16)))
          CFI (cfiCond25) V7 load(1, XDATA, add(CFA_XSP16, literal(-15)))
          CFI (cfiCond25) V8 load(1, XDATA, add(CFA_XSP16, literal(-14)))
          CFI (cfiCond25) V9 load(1, XDATA, add(CFA_XSP16, literal(-13)))
          CFI (cfiCond25) V10 load(1, XDATA, add(CFA_XSP16, literal(-12)))
          CFI (cfiCond25) V11 load(1, XDATA, add(CFA_XSP16, literal(-11)))
          CFI (cfiCond25) V12 load(1, XDATA, add(CFA_XSP16, literal(-10)))
          CFI (cfiCond25) V13 load(1, XDATA, add(CFA_XSP16, literal(-9)))
          CFI (cfiCond25) V14 load(1, XDATA, add(CFA_XSP16, literal(-8)))
          CFI (cfiCond25) V15 load(1, XDATA, add(CFA_XSP16, literal(-7)))
          CFI (cfiCond25) R7 load(1, XDATA, add(CFA_XSP16, literal(-6)))
          CFI (cfiCond25) ?RET_LOW load(1, XDATA, add(CFA_XSP16, literal(-5)))
          CFI (cfiCond25) ?RET_HIGH load(1, XDATA, add(CFA_XSP16, literal(-4)))
          CFI (cfiCond25) ?BRET_EXT load(1, XDATA, add(CFA_XSP16, literal(-3)))
          CFI (cfiCond25) DPL0 load(1, XDATA, add(CFA_XSP16, literal(-2)))
          CFI (cfiCond25) DPH0 load(1, XDATA, add(CFA_XSP16, literal(-1)))
          CFI (cfiCond25) CFA_SP SP+-2
          CFI (cfiCond25) CFA_XSP16 add(XSP16, 34)
          CFI Block cfiPicker26 Using cfiCommon1
          CFI (cfiPicker26) NoFunction
          CFI (cfiPicker26) Picker
        MOV       A,?V2
        ADD       A,#0xc
        LCALL     ??Subroutine46_0 & 0xFFFF
??CrossCallReturnLabel_93:
        CPL       A
        RET
          CFI EndBlock cfiCond24
          CFI EndBlock cfiCond25
          CFI EndBlock cfiPicker26

        RSEG BANKED_CODE:HUGECODE:NOROOT(0)
?Subroutine23:
          CFI Block cfiCond27 Using cfiCommon0
          CFI Function zclMultiSensor_CheckAndSendClusterAttrReport
          CFI Conditional ??CrossCallReturnLabel_29
          CFI R6 load(1, XDATA, add(CFA_XSP16, literal(-24)))
          CFI VB load(1, XDATA, add(CFA_XSP16, literal(-23)))
          CFI V0 load(1, XDATA, add(CFA_XSP16, literal(-22)))
          CFI V1 load(1, XDATA, add(CFA_XSP16, literal(-21)))
          CFI V2 load(1, XDATA, add(CFA_XSP16, literal(-20)))
          CFI V3 load(1, XDATA, add(CFA_XSP16, literal(-19)))
          CFI V4 load(1, XDATA, add(CFA_XSP16, literal(-18)))
          CFI V5 load(1, XDATA, add(CFA_XSP16, literal(-17)))
          CFI V6 load(1, XDATA, add(CFA_XSP16, literal(-16)))
          CFI V7 load(1, XDATA, add(CFA_XSP16, literal(-15)))
          CFI V8 load(1, XDATA, add(CFA_XSP16, literal(-14)))
          CFI V9 load(1, XDATA, add(CFA_XSP16, literal(-13)))
          CFI V10 load(1, XDATA, add(CFA_XSP16, literal(-12)))
          CFI V11 load(1, XDATA, add(CFA_XSP16, literal(-11)))
          CFI V12 load(1, XDATA, add(CFA_XSP16, literal(-10)))
          CFI V13 load(1, XDATA, add(CFA_XSP16, literal(-9)))
          CFI V14 load(1, XDATA, add(CFA_XSP16, literal(-8)))
          CFI V15 load(1, XDATA, add(CFA_XSP16, literal(-7)))
          CFI R7 load(1, XDATA, add(CFA_XSP16, literal(-6)))
          CFI ?RET_LOW load(1, XDATA, add(CFA_XSP16, literal(-5)))
          CFI ?RET_HIGH load(1, XDATA, add(CFA_XSP16, literal(-4)))
          CFI ?BRET_EXT load(1, XDATA, add(CFA_XSP16, literal(-3)))
          CFI DPL0 load(1, XDATA, add(CFA_XSP16, literal(-2)))
          CFI DPH0 load(1, XDATA, add(CFA_XSP16, literal(-1)))
          CFI CFA_SP SP+-2
          CFI CFA_XSP16 add(XSP16, 34)
          CFI Block cfiCond28 Using cfiCommon0
          CFI (cfiCond28) Function zclMultiSensor_CheckAndSendClusterAttrReport
          CFI (cfiCond28) Conditional ??CrossCallReturnLabel_30
          CFI (cfiCond28) R6 load(1, XDATA, add(CFA_XSP16, literal(-24)))
          CFI (cfiCond28) VB load(1, XDATA, add(CFA_XSP16, literal(-23)))
          CFI (cfiCond28) V0 load(1, XDATA, add(CFA_XSP16, literal(-22)))
          CFI (cfiCond28) V1 load(1, XDATA, add(CFA_XSP16, literal(-21)))
          CFI (cfiCond28) V2 load(1, XDATA, add(CFA_XSP16, literal(-20)))
          CFI (cfiCond28) V3 load(1, XDATA, add(CFA_XSP16, literal(-19)))
          CFI (cfiCond28) V4 load(1, XDATA, add(CFA_XSP16, literal(-18)))
          CFI (cfiCond28) V5 load(1, XDATA, add(CFA_XSP16, literal(-17)))
          CFI (cfiCond28) V6 load(1, XDATA, add(CFA_XSP16, literal(-16)))
          CFI (cfiCond28) V7 load(1, XDATA, add(CFA_XSP16, literal(-15)))
          CFI (cfiCond28) V8 load(1, XDATA, add(CFA_XSP16, literal(-14)))
          CFI (cfiCond28) V9 load(1, XDATA, add(CFA_XSP16, literal(-13)))
          CFI (cfiCond28) V10 load(1, XDATA, add(CFA_XSP16, literal(-12)))
          CFI (cfiCond28) V11 load(1, XDATA, add(CFA_XSP16, literal(-11)))
          CFI (cfiCond28) V12 load(1, XDATA, add(CFA_XSP16, literal(-10)))
          CFI (cfiCond28) V13 load(1, XDATA, add(CFA_XSP16, literal(-9)))
          CFI (cfiCond28) V14 load(1, XDATA, add(CFA_XSP16, literal(-8)))
          CFI (cfiCond28) V15 load(1, XDATA, add(CFA_XSP16, literal(-7)))
          CFI (cfiCond28) R7 load(1, XDATA, add(CFA_XSP16, literal(-6)))
          CFI (cfiCond28) ?RET_LOW load(1, XDATA, add(CFA_XSP16, literal(-5)))
          CFI (cfiCond28) ?RET_HIGH load(1, XDATA, add(CFA_XSP16, literal(-4)))
          CFI (cfiCond28) ?BRET_EXT load(1, XDATA, add(CFA_XSP16, literal(-3)))
          CFI (cfiCond28) DPL0 load(1, XDATA, add(CFA_XSP16, literal(-2)))
          CFI (cfiCond28) DPH0 load(1, XDATA, add(CFA_XSP16, literal(-1)))
          CFI (cfiCond28) CFA_SP SP+-2
          CFI (cfiCond28) CFA_XSP16 add(XSP16, 34)
          CFI Block cfiPicker29 Using cfiCommon1
          CFI (cfiPicker29) NoFunction
          CFI (cfiPicker29) Picker
        LCALL     ??Subroutine42_0 & 0xFFFF
??CrossCallReturnLabel_72:
        MOV       R1,A
        MOV       A,#-0x1
        XRL       A,R0
        RET
          CFI EndBlock cfiCond27
          CFI EndBlock cfiCond28
          CFI EndBlock cfiPicker29
//  813 
//  814 /*********************************************************************
//  815 * @fn      SendZclAttrReport
//  816 *
//  817 * @brief   Send the attr report. Let ZCL_CMD_REPORT event handler handle this
//  818 *
//  819 * @param   srcEp - source endpoint
//  820 *          clusterID - cluster id
//  821 *          pReportCmd - pointer to the report command packet
//  822 *          dataLen - data length of the report command
//  823 *
//  824 * @return  none
//  825 */
//  826 static uint8 SendZclAttrReport(uint8 srcEp, uint16 clusterId, zclReportCmd_t *pReportCmd,
//  827                                uint8 datalen)
//  828 {
//  829   // this is for the inner-app osal msg, not OTA msg, thus some fields are not important
//  830   zclIncomingMsg_t *pMsg;       
//  831   
//  832   // pMsg will be released by zclMultiSensor_event_loop()
//  833   pMsg = (zclIncomingMsg_t *)osal_msg_allocate(sizeof(zclIncomingMsg_t) + (datalen));
//  834   
//  835   if (pMsg == NULL)
//  836   {
//  837     return FALSE;
//  838   }
//  839   
//  840   if (pMsg)
//  841   {
//  842       pMsg->hdr.event = ZCL_INCOMING_MSG;
//  843       pMsg->hdr.status = 0;
//  844       //pMsg->zclHdr.fc = NULL;         // not important
//  845       pMsg->zclHdr.manuCode = 0;        // not important
//  846       pMsg->zclHdr.transSeqNum = 0;     // not important
//  847       pMsg->zclHdr.commandID = ZCL_CMD_REPORT;
//  848       pMsg->clusterId = clusterId;
//  849       pMsg->srcAddr.addrMode = (afAddrMode_t)Addr16Bit;
//  850       pMsg->srcAddr.addr.shortAddr = 0; // not important
//  851       pMsg->srcAddr.panId = 0;          // inner-PAN, not important
//  852       pMsg->srcAddr.endPoint = srcEp;   // src ep, SAMPLELIGHT_ENDPOINT send to himself
//  853       pMsg->endPoint = srcEp;           // dest ep, send to SAMPLELIGHT_ENDPOINT himself
//  854       pMsg->attrCmd = (zclReportCmd_t *)pReportCmd;
//  855   }
//  856   
//  857   osal_msg_send( zclMultiSensor_TaskID, (uint8 *)pMsg);
//  858   return TRUE;
//  859 }
//  860 
//  861 static void zclMultiSensor_ProcessInReportCmd( zclIncomingMsg_t *pInMsg )
//  862 {
//  863   zclReportCmd_t *pReportCmd;                           // numAttr, attrList[] : (zclReport_t) attrID, dataType, *attrData
//  864   pReportCmd = (zclReportCmd_t *)pInMsg->attrCmd;       // *pReportCmd will be free by handle
//  865   afAddrType_t dstAddr;
//  866   
//  867   dstAddr.addr.shortAddr = 0x0000;
//  868   dstAddr.addrMode = (afAddrMode_t)Addr16Bit;
//  869   switch ( pInMsg->clusterId )
//  870   {
//  871   case ZCL_CLUSTER_ID_MS_ILLUMINANCE_MEASUREMENT:
//  872     dstAddr.endPoint = 1;
//  873     break;
//  874   case ZCL_CLUSTER_ID_MS_TEMPERATURE_MEASUREMENT:
//  875     dstAddr.endPoint = 2;
//  876     break;
//  877   case ZCL_CLUSTER_ID_MS_RELATIVE_HUMIDITY:
//  878     dstAddr.endPoint = 3;
//  879     break;
//  880   case ZCL_CLUSTER_ID_MS_OCCUPANCY_SENSING:
//  881     dstAddr.endPoint = 4;
//  882     break;
//  883   case ZCL_CLUSTER_ID_MS_TVOC_MEASUREMENT:
//  884     dstAddr.endPoint = 6;
//  885     break;
//  886   case ZCL_CLUSTER_ID_MS_CO2_MEASUREMENT:
//  887     dstAddr.endPoint = 7;
//  888     break;
//  889   default:
//  890     break;
//  891   }
//  892   
//  893   if( zcl_SendReportCmd( MULTISENSOR_ENDPOINT, &dstAddr, pInMsg->clusterId, pReportCmd, ZCL_REPORT_RECEIVE, FALSE, NULL) != ZSuccess )
//  894   {
//  895     while(1);
//  896   }  
//  897 }
//  898 

        RSEG BANKED_CODE:HUGECODE:NOROOT(0)
?Subroutine18:
          CFI Block cfiCond30 Using cfiCommon0
          CFI Function zclMultiSensor_ProcessInConfigReportCmd
          CFI Conditional ??CrossCallReturnLabel_52
          CFI R6 load(1, XDATA, add(CFA_XSP16, literal(-24)))
          CFI VB load(1, XDATA, add(CFA_XSP16, literal(-23)))
          CFI V0 load(1, XDATA, add(CFA_XSP16, literal(-22)))
          CFI V1 load(1, XDATA, add(CFA_XSP16, literal(-21)))
          CFI V2 load(1, XDATA, add(CFA_XSP16, literal(-20)))
          CFI V3 load(1, XDATA, add(CFA_XSP16, literal(-19)))
          CFI V4 load(1, XDATA, add(CFA_XSP16, literal(-18)))
          CFI V5 load(1, XDATA, add(CFA_XSP16, literal(-17)))
          CFI V6 load(1, XDATA, add(CFA_XSP16, literal(-16)))
          CFI V7 load(1, XDATA, add(CFA_XSP16, literal(-15)))
          CFI V8 load(1, XDATA, add(CFA_XSP16, literal(-14)))
          CFI V9 load(1, XDATA, add(CFA_XSP16, literal(-13)))
          CFI V10 load(1, XDATA, add(CFA_XSP16, literal(-12)))
          CFI V11 load(1, XDATA, add(CFA_XSP16, literal(-11)))
          CFI V12 load(1, XDATA, add(CFA_XSP16, literal(-10)))
          CFI V13 load(1, XDATA, add(CFA_XSP16, literal(-9)))
          CFI V14 load(1, XDATA, add(CFA_XSP16, literal(-8)))
          CFI V15 load(1, XDATA, add(CFA_XSP16, literal(-7)))
          CFI R7 load(1, XDATA, add(CFA_XSP16, literal(-6)))
          CFI ?RET_LOW load(1, XDATA, add(CFA_XSP16, literal(-5)))
          CFI ?RET_HIGH load(1, XDATA, add(CFA_XSP16, literal(-4)))
          CFI ?BRET_EXT load(1, XDATA, add(CFA_XSP16, literal(-3)))
          CFI DPL0 load(1, XDATA, add(CFA_XSP16, literal(-2)))
          CFI DPH0 load(1, XDATA, add(CFA_XSP16, literal(-1)))
          CFI CFA_SP SP+-2
          CFI CFA_XSP16 add(XSP16, 41)
          CFI Block cfiCond31 Using cfiCommon0
          CFI (cfiCond31) Function zclMultiSensor_ProcessInReadReportCfgCmd
          CFI (cfiCond31) Conditional ??CrossCallReturnLabel_53
          CFI (cfiCond31) R6 load(1, XDATA, add(CFA_XSP16, literal(-24)))
          CFI (cfiCond31) VB load(1, XDATA, add(CFA_XSP16, literal(-23)))
          CFI (cfiCond31) V0 load(1, XDATA, add(CFA_XSP16, literal(-22)))
          CFI (cfiCond31) V1 load(1, XDATA, add(CFA_XSP16, literal(-21)))
          CFI (cfiCond31) V2 load(1, XDATA, add(CFA_XSP16, literal(-20)))
          CFI (cfiCond31) V3 load(1, XDATA, add(CFA_XSP16, literal(-19)))
          CFI (cfiCond31) V4 load(1, XDATA, add(CFA_XSP16, literal(-18)))
          CFI (cfiCond31) V5 load(1, XDATA, add(CFA_XSP16, literal(-17)))
          CFI (cfiCond31) V6 load(1, XDATA, add(CFA_XSP16, literal(-16)))
          CFI (cfiCond31) V7 load(1, XDATA, add(CFA_XSP16, literal(-15)))
          CFI (cfiCond31) V8 load(1, XDATA, add(CFA_XSP16, literal(-14)))
          CFI (cfiCond31) V9 load(1, XDATA, add(CFA_XSP16, literal(-13)))
          CFI (cfiCond31) V10 load(1, XDATA, add(CFA_XSP16, literal(-12)))
          CFI (cfiCond31) V11 load(1, XDATA, add(CFA_XSP16, literal(-11)))
          CFI (cfiCond31) V12 load(1, XDATA, add(CFA_XSP16, literal(-10)))
          CFI (cfiCond31) V13 load(1, XDATA, add(CFA_XSP16, literal(-9)))
          CFI (cfiCond31) V14 load(1, XDATA, add(CFA_XSP16, literal(-8)))
          CFI (cfiCond31) V15 load(1, XDATA, add(CFA_XSP16, literal(-7)))
          CFI (cfiCond31) R7 load(1, XDATA, add(CFA_XSP16, literal(-6)))
          CFI (cfiCond31) ?RET_LOW load(1, XDATA, add(CFA_XSP16, literal(-5)))
          CFI (cfiCond31) ?RET_HIGH load(1, XDATA, add(CFA_XSP16, literal(-4)))
          CFI (cfiCond31) ?BRET_EXT load(1, XDATA, add(CFA_XSP16, literal(-3)))
          CFI (cfiCond31) DPL0 load(1, XDATA, add(CFA_XSP16, literal(-2)))
          CFI (cfiCond31) DPH0 load(1, XDATA, add(CFA_XSP16, literal(-1)))
          CFI (cfiCond31) CFA_SP SP+-2
          CFI (cfiCond31) CFA_XSP16 add(XSP16, 39)
          CFI Block cfiPicker32 Using cfiCommon1
          CFI (cfiPicker32) NoFunction
          CFI (cfiPicker32) Picker
        INC       DPTR
          CFI EndBlock cfiCond30
          CFI EndBlock cfiCond31
          CFI EndBlock cfiPicker32
        REQUIRE ??Subroutine39_0
        ; // Fall through to label ??Subroutine39_0

        RSEG BANKED_CODE:HUGECODE:NOROOT(0)
??Subroutine39_0:
          CFI Block cfiCond33 Using cfiCommon0
          CFI Function zclMultiSensor_CheckAndSendClusterAttrReport
          CFI Conditional ??CrossCallReturnLabel_51
          CFI R6 load(1, XDATA, add(CFA_XSP16, literal(-24)))
          CFI VB load(1, XDATA, add(CFA_XSP16, literal(-23)))
          CFI V0 load(1, XDATA, add(CFA_XSP16, literal(-22)))
          CFI V1 load(1, XDATA, add(CFA_XSP16, literal(-21)))
          CFI V2 load(1, XDATA, add(CFA_XSP16, literal(-20)))
          CFI V3 load(1, XDATA, add(CFA_XSP16, literal(-19)))
          CFI V4 load(1, XDATA, add(CFA_XSP16, literal(-18)))
          CFI V5 load(1, XDATA, add(CFA_XSP16, literal(-17)))
          CFI V6 load(1, XDATA, add(CFA_XSP16, literal(-16)))
          CFI V7 load(1, XDATA, add(CFA_XSP16, literal(-15)))
          CFI V8 load(1, XDATA, add(CFA_XSP16, literal(-14)))
          CFI V9 load(1, XDATA, add(CFA_XSP16, literal(-13)))
          CFI V10 load(1, XDATA, add(CFA_XSP16, literal(-12)))
          CFI V11 load(1, XDATA, add(CFA_XSP16, literal(-11)))
          CFI V12 load(1, XDATA, add(CFA_XSP16, literal(-10)))
          CFI V13 load(1, XDATA, add(CFA_XSP16, literal(-9)))
          CFI V14 load(1, XDATA, add(CFA_XSP16, literal(-8)))
          CFI V15 load(1, XDATA, add(CFA_XSP16, literal(-7)))
          CFI R7 load(1, XDATA, add(CFA_XSP16, literal(-6)))
          CFI ?RET_LOW load(1, XDATA, add(CFA_XSP16, literal(-5)))
          CFI ?RET_HIGH load(1, XDATA, add(CFA_XSP16, literal(-4)))
          CFI ?BRET_EXT load(1, XDATA, add(CFA_XSP16, literal(-3)))
          CFI DPL0 load(1, XDATA, add(CFA_XSP16, literal(-2)))
          CFI DPH0 load(1, XDATA, add(CFA_XSP16, literal(-1)))
          CFI CFA_SP SP+-2
          CFI CFA_XSP16 add(XSP16, 36)
          CFI Block cfiCond34 Using cfiCommon0
          CFI (cfiCond34) Function zclMultiSensor_ProcessInConfigReportCmd
          CFI (cfiCond34) Conditional ??CrossCallReturnLabel_52
          CFI (cfiCond34) R6 load(1, XDATA, add(CFA_XSP16, literal(-24)))
          CFI (cfiCond34) VB load(1, XDATA, add(CFA_XSP16, literal(-23)))
          CFI (cfiCond34) V0 load(1, XDATA, add(CFA_XSP16, literal(-22)))
          CFI (cfiCond34) V1 load(1, XDATA, add(CFA_XSP16, literal(-21)))
          CFI (cfiCond34) V2 load(1, XDATA, add(CFA_XSP16, literal(-20)))
          CFI (cfiCond34) V3 load(1, XDATA, add(CFA_XSP16, literal(-19)))
          CFI (cfiCond34) V4 load(1, XDATA, add(CFA_XSP16, literal(-18)))
          CFI (cfiCond34) V5 load(1, XDATA, add(CFA_XSP16, literal(-17)))
          CFI (cfiCond34) V6 load(1, XDATA, add(CFA_XSP16, literal(-16)))
          CFI (cfiCond34) V7 load(1, XDATA, add(CFA_XSP16, literal(-15)))
          CFI (cfiCond34) V8 load(1, XDATA, add(CFA_XSP16, literal(-14)))
          CFI (cfiCond34) V9 load(1, XDATA, add(CFA_XSP16, literal(-13)))
          CFI (cfiCond34) V10 load(1, XDATA, add(CFA_XSP16, literal(-12)))
          CFI (cfiCond34) V11 load(1, XDATA, add(CFA_XSP16, literal(-11)))
          CFI (cfiCond34) V12 load(1, XDATA, add(CFA_XSP16, literal(-10)))
          CFI (cfiCond34) V13 load(1, XDATA, add(CFA_XSP16, literal(-9)))
          CFI (cfiCond34) V14 load(1, XDATA, add(CFA_XSP16, literal(-8)))
          CFI (cfiCond34) V15 load(1, XDATA, add(CFA_XSP16, literal(-7)))
          CFI (cfiCond34) R7 load(1, XDATA, add(CFA_XSP16, literal(-6)))
          CFI (cfiCond34) ?RET_LOW load(1, XDATA, add(CFA_XSP16, literal(-5)))
          CFI (cfiCond34) ?RET_HIGH load(1, XDATA, add(CFA_XSP16, literal(-4)))
          CFI (cfiCond34) ?BRET_EXT load(1, XDATA, add(CFA_XSP16, literal(-3)))
          CFI (cfiCond34) DPL0 load(1, XDATA, add(CFA_XSP16, literal(-2)))
          CFI (cfiCond34) DPH0 load(1, XDATA, add(CFA_XSP16, literal(-1)))
          CFI (cfiCond34) CFA_SP SP+-2
          CFI (cfiCond34) CFA_XSP16 add(XSP16, 41)
          CFI Block cfiCond35 Using cfiCommon0
          CFI (cfiCond35) Function zclMultiSensor_ProcessInReadReportCfgCmd
          CFI (cfiCond35) Conditional ??CrossCallReturnLabel_53
          CFI (cfiCond35) R6 load(1, XDATA, add(CFA_XSP16, literal(-24)))
          CFI (cfiCond35) VB load(1, XDATA, add(CFA_XSP16, literal(-23)))
          CFI (cfiCond35) V0 load(1, XDATA, add(CFA_XSP16, literal(-22)))
          CFI (cfiCond35) V1 load(1, XDATA, add(CFA_XSP16, literal(-21)))
          CFI (cfiCond35) V2 load(1, XDATA, add(CFA_XSP16, literal(-20)))
          CFI (cfiCond35) V3 load(1, XDATA, add(CFA_XSP16, literal(-19)))
          CFI (cfiCond35) V4 load(1, XDATA, add(CFA_XSP16, literal(-18)))
          CFI (cfiCond35) V5 load(1, XDATA, add(CFA_XSP16, literal(-17)))
          CFI (cfiCond35) V6 load(1, XDATA, add(CFA_XSP16, literal(-16)))
          CFI (cfiCond35) V7 load(1, XDATA, add(CFA_XSP16, literal(-15)))
          CFI (cfiCond35) V8 load(1, XDATA, add(CFA_XSP16, literal(-14)))
          CFI (cfiCond35) V9 load(1, XDATA, add(CFA_XSP16, literal(-13)))
          CFI (cfiCond35) V10 load(1, XDATA, add(CFA_XSP16, literal(-12)))
          CFI (cfiCond35) V11 load(1, XDATA, add(CFA_XSP16, literal(-11)))
          CFI (cfiCond35) V12 load(1, XDATA, add(CFA_XSP16, literal(-10)))
          CFI (cfiCond35) V13 load(1, XDATA, add(CFA_XSP16, literal(-9)))
          CFI (cfiCond35) V14 load(1, XDATA, add(CFA_XSP16, literal(-8)))
          CFI (cfiCond35) V15 load(1, XDATA, add(CFA_XSP16, literal(-7)))
          CFI (cfiCond35) R7 load(1, XDATA, add(CFA_XSP16, literal(-6)))
          CFI (cfiCond35) ?RET_LOW load(1, XDATA, add(CFA_XSP16, literal(-5)))
          CFI (cfiCond35) ?RET_HIGH load(1, XDATA, add(CFA_XSP16, literal(-4)))
          CFI (cfiCond35) ?BRET_EXT load(1, XDATA, add(CFA_XSP16, literal(-3)))
          CFI (cfiCond35) DPL0 load(1, XDATA, add(CFA_XSP16, literal(-2)))
          CFI (cfiCond35) DPH0 load(1, XDATA, add(CFA_XSP16, literal(-1)))
          CFI (cfiCond35) CFA_SP SP+-2
          CFI (cfiCond35) CFA_XSP16 add(XSP16, 39)
          CFI Block cfiPicker36 Using cfiCommon1
          CFI (cfiPicker36) NoFunction
          CFI (cfiPicker36) Picker
        INC       DPTR
        INC       DPTR
        INC       DPTR
        INC       DPTR
        INC       DPTR
        INC       DPTR
        INC       DPTR
          CFI EndBlock cfiCond33
          CFI EndBlock cfiCond34
          CFI EndBlock cfiCond35
          CFI EndBlock cfiPicker36
        REQUIRE ??Subroutine40_0
        ; // Fall through to label ??Subroutine40_0

        RSEG BANKED_CODE:HUGECODE:NOROOT(0)
??Subroutine40_0:
          CFI Block cfiCond37 Using cfiCommon0
          CFI Function zclMultiSensor_ProcessIncomingMsg
          CFI Conditional ??CrossCallReturnLabel_49
          CFI R6 load(1, XDATA, add(CFA_XSP16, literal(-12)))
          CFI VB load(1, XDATA, add(CFA_XSP16, literal(-11)))
          CFI V0 load(1, XDATA, add(CFA_XSP16, literal(-10)))
          CFI V1 load(1, XDATA, add(CFA_XSP16, literal(-9)))
          CFI V2 load(1, XDATA, add(CFA_XSP16, literal(-8)))
          CFI V3 load(1, XDATA, add(CFA_XSP16, literal(-7)))
          CFI R7 load(1, XDATA, add(CFA_XSP16, literal(-6)))
          CFI ?RET_LOW load(1, XDATA, add(CFA_XSP16, literal(-5)))
          CFI ?RET_HIGH load(1, XDATA, add(CFA_XSP16, literal(-4)))
          CFI ?BRET_EXT load(1, XDATA, add(CFA_XSP16, literal(-3)))
          CFI DPL0 load(1, XDATA, add(CFA_XSP16, literal(-2)))
          CFI DPH0 load(1, XDATA, add(CFA_XSP16, literal(-1)))
          CFI CFA_SP SP+-2
          CFI CFA_XSP16 add(XSP16, 29)
          CFI Block cfiCond38 Using cfiCommon0
          CFI (cfiCond38) Function zclMultiSensor_CheckReportConfig
          CFI (cfiCond38) Conditional ??CrossCallReturnLabel_50
          CFI (cfiCond38) R6 load(1, XDATA, add(CFA_XSP16, literal(-17)))
          CFI (cfiCond38) VB load(1, XDATA, add(CFA_XSP16, literal(-16)))
          CFI (cfiCond38) V0 load(1, XDATA, add(CFA_XSP16, literal(-15)))
          CFI (cfiCond38) V1 load(1, XDATA, add(CFA_XSP16, literal(-14)))
          CFI (cfiCond38) V2 load(1, XDATA, add(CFA_XSP16, literal(-13)))
          CFI (cfiCond38) V3 load(1, XDATA, add(CFA_XSP16, literal(-12)))
          CFI (cfiCond38) V4 load(1, XDATA, add(CFA_XSP16, literal(-11)))
          CFI (cfiCond38) V5 load(1, XDATA, add(CFA_XSP16, literal(-10)))
          CFI (cfiCond38) V6 load(1, XDATA, add(CFA_XSP16, literal(-9)))
          CFI (cfiCond38) V7 load(1, XDATA, add(CFA_XSP16, literal(-8)))
          CFI (cfiCond38) V8 load(1, XDATA, add(CFA_XSP16, literal(-7)))
          CFI (cfiCond38) R7 load(1, XDATA, add(CFA_XSP16, literal(-6)))
          CFI (cfiCond38) ?RET_LOW load(1, XDATA, add(CFA_XSP16, literal(-5)))
          CFI (cfiCond38) ?RET_HIGH load(1, XDATA, add(CFA_XSP16, literal(-4)))
          CFI (cfiCond38) ?BRET_EXT load(1, XDATA, add(CFA_XSP16, literal(-3)))
          CFI (cfiCond38) DPL0 load(1, XDATA, add(CFA_XSP16, literal(-2)))
          CFI (cfiCond38) DPH0 load(1, XDATA, add(CFA_XSP16, literal(-1)))
          CFI (cfiCond38) CFA_SP SP+-2
          CFI (cfiCond38) CFA_XSP16 add(XSP16, 17)
          CFI Block cfiCond39 Using cfiCommon0
          CFI (cfiCond39) Function zclMultiSensor_CheckAndSendClusterAttrReport
          CFI (cfiCond39) Conditional ??CrossCallReturnLabel_51
          CFI (cfiCond39) R6 load(1, XDATA, add(CFA_XSP16, literal(-24)))
          CFI (cfiCond39) VB load(1, XDATA, add(CFA_XSP16, literal(-23)))
          CFI (cfiCond39) V0 load(1, XDATA, add(CFA_XSP16, literal(-22)))
          CFI (cfiCond39) V1 load(1, XDATA, add(CFA_XSP16, literal(-21)))
          CFI (cfiCond39) V2 load(1, XDATA, add(CFA_XSP16, literal(-20)))
          CFI (cfiCond39) V3 load(1, XDATA, add(CFA_XSP16, literal(-19)))
          CFI (cfiCond39) V4 load(1, XDATA, add(CFA_XSP16, literal(-18)))
          CFI (cfiCond39) V5 load(1, XDATA, add(CFA_XSP16, literal(-17)))
          CFI (cfiCond39) V6 load(1, XDATA, add(CFA_XSP16, literal(-16)))
          CFI (cfiCond39) V7 load(1, XDATA, add(CFA_XSP16, literal(-15)))
          CFI (cfiCond39) V8 load(1, XDATA, add(CFA_XSP16, literal(-14)))
          CFI (cfiCond39) V9 load(1, XDATA, add(CFA_XSP16, literal(-13)))
          CFI (cfiCond39) V10 load(1, XDATA, add(CFA_XSP16, literal(-12)))
          CFI (cfiCond39) V11 load(1, XDATA, add(CFA_XSP16, literal(-11)))
          CFI (cfiCond39) V12 load(1, XDATA, add(CFA_XSP16, literal(-10)))
          CFI (cfiCond39) V13 load(1, XDATA, add(CFA_XSP16, literal(-9)))
          CFI (cfiCond39) V14 load(1, XDATA, add(CFA_XSP16, literal(-8)))
          CFI (cfiCond39) V15 load(1, XDATA, add(CFA_XSP16, literal(-7)))
          CFI (cfiCond39) R7 load(1, XDATA, add(CFA_XSP16, literal(-6)))
          CFI (cfiCond39) ?RET_LOW load(1, XDATA, add(CFA_XSP16, literal(-5)))
          CFI (cfiCond39) ?RET_HIGH load(1, XDATA, add(CFA_XSP16, literal(-4)))
          CFI (cfiCond39) ?BRET_EXT load(1, XDATA, add(CFA_XSP16, literal(-3)))
          CFI (cfiCond39) DPL0 load(1, XDATA, add(CFA_XSP16, literal(-2)))
          CFI (cfiCond39) DPH0 load(1, XDATA, add(CFA_XSP16, literal(-1)))
          CFI (cfiCond39) CFA_SP SP+-2
          CFI (cfiCond39) CFA_XSP16 add(XSP16, 36)
          CFI Block cfiCond40 Using cfiCommon0
          CFI (cfiCond40) Function zclMultiSensor_ProcessInConfigReportCmd
          CFI (cfiCond40) Conditional ??CrossCallReturnLabel_52
          CFI (cfiCond40) R6 load(1, XDATA, add(CFA_XSP16, literal(-24)))
          CFI (cfiCond40) VB load(1, XDATA, add(CFA_XSP16, literal(-23)))
          CFI (cfiCond40) V0 load(1, XDATA, add(CFA_XSP16, literal(-22)))
          CFI (cfiCond40) V1 load(1, XDATA, add(CFA_XSP16, literal(-21)))
          CFI (cfiCond40) V2 load(1, XDATA, add(CFA_XSP16, literal(-20)))
          CFI (cfiCond40) V3 load(1, XDATA, add(CFA_XSP16, literal(-19)))
          CFI (cfiCond40) V4 load(1, XDATA, add(CFA_XSP16, literal(-18)))
          CFI (cfiCond40) V5 load(1, XDATA, add(CFA_XSP16, literal(-17)))
          CFI (cfiCond40) V6 load(1, XDATA, add(CFA_XSP16, literal(-16)))
          CFI (cfiCond40) V7 load(1, XDATA, add(CFA_XSP16, literal(-15)))
          CFI (cfiCond40) V8 load(1, XDATA, add(CFA_XSP16, literal(-14)))
          CFI (cfiCond40) V9 load(1, XDATA, add(CFA_XSP16, literal(-13)))
          CFI (cfiCond40) V10 load(1, XDATA, add(CFA_XSP16, literal(-12)))
          CFI (cfiCond40) V11 load(1, XDATA, add(CFA_XSP16, literal(-11)))
          CFI (cfiCond40) V12 load(1, XDATA, add(CFA_XSP16, literal(-10)))
          CFI (cfiCond40) V13 load(1, XDATA, add(CFA_XSP16, literal(-9)))
          CFI (cfiCond40) V14 load(1, XDATA, add(CFA_XSP16, literal(-8)))
          CFI (cfiCond40) V15 load(1, XDATA, add(CFA_XSP16, literal(-7)))
          CFI (cfiCond40) R7 load(1, XDATA, add(CFA_XSP16, literal(-6)))
          CFI (cfiCond40) ?RET_LOW load(1, XDATA, add(CFA_XSP16, literal(-5)))
          CFI (cfiCond40) ?RET_HIGH load(1, XDATA, add(CFA_XSP16, literal(-4)))
          CFI (cfiCond40) ?BRET_EXT load(1, XDATA, add(CFA_XSP16, literal(-3)))
          CFI (cfiCond40) DPL0 load(1, XDATA, add(CFA_XSP16, literal(-2)))
          CFI (cfiCond40) DPH0 load(1, XDATA, add(CFA_XSP16, literal(-1)))
          CFI (cfiCond40) CFA_SP SP+-2
          CFI (cfiCond40) CFA_XSP16 add(XSP16, 41)
          CFI Block cfiCond41 Using cfiCommon0
          CFI (cfiCond41) Function zclMultiSensor_ProcessInReadReportCfgCmd
          CFI (cfiCond41) Conditional ??CrossCallReturnLabel_53
          CFI (cfiCond41) R6 load(1, XDATA, add(CFA_XSP16, literal(-24)))
          CFI (cfiCond41) VB load(1, XDATA, add(CFA_XSP16, literal(-23)))
          CFI (cfiCond41) V0 load(1, XDATA, add(CFA_XSP16, literal(-22)))
          CFI (cfiCond41) V1 load(1, XDATA, add(CFA_XSP16, literal(-21)))
          CFI (cfiCond41) V2 load(1, XDATA, add(CFA_XSP16, literal(-20)))
          CFI (cfiCond41) V3 load(1, XDATA, add(CFA_XSP16, literal(-19)))
          CFI (cfiCond41) V4 load(1, XDATA, add(CFA_XSP16, literal(-18)))
          CFI (cfiCond41) V5 load(1, XDATA, add(CFA_XSP16, literal(-17)))
          CFI (cfiCond41) V6 load(1, XDATA, add(CFA_XSP16, literal(-16)))
          CFI (cfiCond41) V7 load(1, XDATA, add(CFA_XSP16, literal(-15)))
          CFI (cfiCond41) V8 load(1, XDATA, add(CFA_XSP16, literal(-14)))
          CFI (cfiCond41) V9 load(1, XDATA, add(CFA_XSP16, literal(-13)))
          CFI (cfiCond41) V10 load(1, XDATA, add(CFA_XSP16, literal(-12)))
          CFI (cfiCond41) V11 load(1, XDATA, add(CFA_XSP16, literal(-11)))
          CFI (cfiCond41) V12 load(1, XDATA, add(CFA_XSP16, literal(-10)))
          CFI (cfiCond41) V13 load(1, XDATA, add(CFA_XSP16, literal(-9)))
          CFI (cfiCond41) V14 load(1, XDATA, add(CFA_XSP16, literal(-8)))
          CFI (cfiCond41) V15 load(1, XDATA, add(CFA_XSP16, literal(-7)))
          CFI (cfiCond41) R7 load(1, XDATA, add(CFA_XSP16, literal(-6)))
          CFI (cfiCond41) ?RET_LOW load(1, XDATA, add(CFA_XSP16, literal(-5)))
          CFI (cfiCond41) ?RET_HIGH load(1, XDATA, add(CFA_XSP16, literal(-4)))
          CFI (cfiCond41) ?BRET_EXT load(1, XDATA, add(CFA_XSP16, literal(-3)))
          CFI (cfiCond41) DPL0 load(1, XDATA, add(CFA_XSP16, literal(-2)))
          CFI (cfiCond41) DPH0 load(1, XDATA, add(CFA_XSP16, literal(-1)))
          CFI (cfiCond41) CFA_SP SP+-2
          CFI (cfiCond41) CFA_XSP16 add(XSP16, 39)
          CFI Block cfiPicker42 Using cfiCommon1
          CFI (cfiPicker42) NoFunction
          CFI (cfiPicker42) Picker
        MOVX      A,@DPTR
        MOV       R4,A
        INC       DPTR
        MOVX      A,@DPTR
        MOV       R5,A
        RET
          CFI EndBlock cfiCond37
          CFI EndBlock cfiCond38
          CFI EndBlock cfiCond39
          CFI EndBlock cfiCond40
          CFI EndBlock cfiCond41
          CFI EndBlock cfiPicker42

        RSEG BANKED_CODE:HUGECODE:NOROOT(0)
?Subroutine17:
          CFI Block cfiCond43 Using cfiCommon0
          CFI Function zclMultiSensor_CheckAndSendClusterAttrReport
          CFI Conditional ??CrossCallReturnLabel_21
          CFI R6 load(1, XDATA, add(CFA_XSP16, literal(-24)))
          CFI VB load(1, XDATA, add(CFA_XSP16, literal(-23)))
          CFI V0 load(1, XDATA, add(CFA_XSP16, literal(-22)))
          CFI V1 load(1, XDATA, add(CFA_XSP16, literal(-21)))
          CFI V2 load(1, XDATA, add(CFA_XSP16, literal(-20)))
          CFI V3 load(1, XDATA, add(CFA_XSP16, literal(-19)))
          CFI V4 load(1, XDATA, add(CFA_XSP16, literal(-18)))
          CFI V5 load(1, XDATA, add(CFA_XSP16, literal(-17)))
          CFI V6 load(1, XDATA, add(CFA_XSP16, literal(-16)))
          CFI V7 load(1, XDATA, add(CFA_XSP16, literal(-15)))
          CFI V8 load(1, XDATA, add(CFA_XSP16, literal(-14)))
          CFI V9 load(1, XDATA, add(CFA_XSP16, literal(-13)))
          CFI V10 load(1, XDATA, add(CFA_XSP16, literal(-12)))
          CFI V11 load(1, XDATA, add(CFA_XSP16, literal(-11)))
          CFI V12 load(1, XDATA, add(CFA_XSP16, literal(-10)))
          CFI V13 load(1, XDATA, add(CFA_XSP16, literal(-9)))
          CFI V14 load(1, XDATA, add(CFA_XSP16, literal(-8)))
          CFI V15 load(1, XDATA, add(CFA_XSP16, literal(-7)))
          CFI R7 load(1, XDATA, add(CFA_XSP16, literal(-6)))
          CFI ?RET_LOW load(1, XDATA, add(CFA_XSP16, literal(-5)))
          CFI ?RET_HIGH load(1, XDATA, add(CFA_XSP16, literal(-4)))
          CFI ?BRET_EXT load(1, XDATA, add(CFA_XSP16, literal(-3)))
          CFI DPL0 load(1, XDATA, add(CFA_XSP16, literal(-2)))
          CFI DPH0 load(1, XDATA, add(CFA_XSP16, literal(-1)))
          CFI CFA_SP SP+-2
          CFI CFA_XSP16 add(XSP16, 34)
          CFI Block cfiCond44 Using cfiCommon0
          CFI (cfiCond44) Function zclMultiSensor_CheckAndSendClusterAttrReport
          CFI (cfiCond44) Conditional ??CrossCallReturnLabel_22
          CFI (cfiCond44) R6 load(1, XDATA, add(CFA_XSP16, literal(-24)))
          CFI (cfiCond44) VB load(1, XDATA, add(CFA_XSP16, literal(-23)))
          CFI (cfiCond44) V0 load(1, XDATA, add(CFA_XSP16, literal(-22)))
          CFI (cfiCond44) V1 load(1, XDATA, add(CFA_XSP16, literal(-21)))
          CFI (cfiCond44) V2 load(1, XDATA, add(CFA_XSP16, literal(-20)))
          CFI (cfiCond44) V3 load(1, XDATA, add(CFA_XSP16, literal(-19)))
          CFI (cfiCond44) V4 load(1, XDATA, add(CFA_XSP16, literal(-18)))
          CFI (cfiCond44) V5 load(1, XDATA, add(CFA_XSP16, literal(-17)))
          CFI (cfiCond44) V6 load(1, XDATA, add(CFA_XSP16, literal(-16)))
          CFI (cfiCond44) V7 load(1, XDATA, add(CFA_XSP16, literal(-15)))
          CFI (cfiCond44) V8 load(1, XDATA, add(CFA_XSP16, literal(-14)))
          CFI (cfiCond44) V9 load(1, XDATA, add(CFA_XSP16, literal(-13)))
          CFI (cfiCond44) V10 load(1, XDATA, add(CFA_XSP16, literal(-12)))
          CFI (cfiCond44) V11 load(1, XDATA, add(CFA_XSP16, literal(-11)))
          CFI (cfiCond44) V12 load(1, XDATA, add(CFA_XSP16, literal(-10)))
          CFI (cfiCond44) V13 load(1, XDATA, add(CFA_XSP16, literal(-9)))
          CFI (cfiCond44) V14 load(1, XDATA, add(CFA_XSP16, literal(-8)))
          CFI (cfiCond44) V15 load(1, XDATA, add(CFA_XSP16, literal(-7)))
          CFI (cfiCond44) R7 load(1, XDATA, add(CFA_XSP16, literal(-6)))
          CFI (cfiCond44) ?RET_LOW load(1, XDATA, add(CFA_XSP16, literal(-5)))
          CFI (cfiCond44) ?RET_HIGH load(1, XDATA, add(CFA_XSP16, literal(-4)))
          CFI (cfiCond44) ?BRET_EXT load(1, XDATA, add(CFA_XSP16, literal(-3)))
          CFI (cfiCond44) DPL0 load(1, XDATA, add(CFA_XSP16, literal(-2)))
          CFI (cfiCond44) DPH0 load(1, XDATA, add(CFA_XSP16, literal(-1)))
          CFI (cfiCond44) CFA_SP SP+-2
          CFI (cfiCond44) CFA_XSP16 add(XSP16, 34)
          CFI Block cfiPicker45 Using cfiCommon1
          CFI (cfiPicker45) NoFunction
          CFI (cfiPicker45) Picker
        LCALL     ??Subroutine42_0 & 0xFFFF
??CrossCallReturnLabel_69:
        MOV       R1,A
        MOV       DPL,?V6
        MOV       DPH,?V7
        RET
          CFI EndBlock cfiCond43
          CFI EndBlock cfiCond44
          CFI EndBlock cfiPicker45

        RSEG BANKED_CODE:HUGECODE:NOROOT(0)
?Subroutine13:
          CFI Block cfiCond46 Using cfiCommon0
          CFI Function zclMultiSensor_CheckAndSendClusterAttrReport
          CFI Conditional ??CrossCallReturnLabel_14
          CFI R6 load(1, XDATA, add(CFA_XSP16, literal(-24)))
          CFI VB load(1, XDATA, add(CFA_XSP16, literal(-23)))
          CFI V0 load(1, XDATA, add(CFA_XSP16, literal(-22)))
          CFI V1 load(1, XDATA, add(CFA_XSP16, literal(-21)))
          CFI V2 load(1, XDATA, add(CFA_XSP16, literal(-20)))
          CFI V3 load(1, XDATA, add(CFA_XSP16, literal(-19)))
          CFI V4 load(1, XDATA, add(CFA_XSP16, literal(-18)))
          CFI V5 load(1, XDATA, add(CFA_XSP16, literal(-17)))
          CFI V6 load(1, XDATA, add(CFA_XSP16, literal(-16)))
          CFI V7 load(1, XDATA, add(CFA_XSP16, literal(-15)))
          CFI V8 load(1, XDATA, add(CFA_XSP16, literal(-14)))
          CFI V9 load(1, XDATA, add(CFA_XSP16, literal(-13)))
          CFI V10 load(1, XDATA, add(CFA_XSP16, literal(-12)))
          CFI V11 load(1, XDATA, add(CFA_XSP16, literal(-11)))
          CFI V12 load(1, XDATA, add(CFA_XSP16, literal(-10)))
          CFI V13 load(1, XDATA, add(CFA_XSP16, literal(-9)))
          CFI V14 load(1, XDATA, add(CFA_XSP16, literal(-8)))
          CFI V15 load(1, XDATA, add(CFA_XSP16, literal(-7)))
          CFI R7 load(1, XDATA, add(CFA_XSP16, literal(-6)))
          CFI ?RET_LOW load(1, XDATA, add(CFA_XSP16, literal(-5)))
          CFI ?RET_HIGH load(1, XDATA, add(CFA_XSP16, literal(-4)))
          CFI ?BRET_EXT load(1, XDATA, add(CFA_XSP16, literal(-3)))
          CFI DPL0 load(1, XDATA, add(CFA_XSP16, literal(-2)))
          CFI DPH0 load(1, XDATA, add(CFA_XSP16, literal(-1)))
          CFI CFA_SP SP+-2
          CFI CFA_XSP16 add(XSP16, 34)
          CFI Block cfiCond47 Using cfiCommon0
          CFI (cfiCond47) Function zclMultiSensor_CheckAndSendClusterAttrReport
          CFI (cfiCond47) Conditional ??CrossCallReturnLabel_15
          CFI (cfiCond47) R6 load(1, XDATA, add(CFA_XSP16, literal(-24)))
          CFI (cfiCond47) VB load(1, XDATA, add(CFA_XSP16, literal(-23)))
          CFI (cfiCond47) V0 load(1, XDATA, add(CFA_XSP16, literal(-22)))
          CFI (cfiCond47) V1 load(1, XDATA, add(CFA_XSP16, literal(-21)))
          CFI (cfiCond47) V2 load(1, XDATA, add(CFA_XSP16, literal(-20)))
          CFI (cfiCond47) V3 load(1, XDATA, add(CFA_XSP16, literal(-19)))
          CFI (cfiCond47) V4 load(1, XDATA, add(CFA_XSP16, literal(-18)))
          CFI (cfiCond47) V5 load(1, XDATA, add(CFA_XSP16, literal(-17)))
          CFI (cfiCond47) V6 load(1, XDATA, add(CFA_XSP16, literal(-16)))
          CFI (cfiCond47) V7 load(1, XDATA, add(CFA_XSP16, literal(-15)))
          CFI (cfiCond47) V8 load(1, XDATA, add(CFA_XSP16, literal(-14)))
          CFI (cfiCond47) V9 load(1, XDATA, add(CFA_XSP16, literal(-13)))
          CFI (cfiCond47) V10 load(1, XDATA, add(CFA_XSP16, literal(-12)))
          CFI (cfiCond47) V11 load(1, XDATA, add(CFA_XSP16, literal(-11)))
          CFI (cfiCond47) V12 load(1, XDATA, add(CFA_XSP16, literal(-10)))
          CFI (cfiCond47) V13 load(1, XDATA, add(CFA_XSP16, literal(-9)))
          CFI (cfiCond47) V14 load(1, XDATA, add(CFA_XSP16, literal(-8)))
          CFI (cfiCond47) V15 load(1, XDATA, add(CFA_XSP16, literal(-7)))
          CFI (cfiCond47) R7 load(1, XDATA, add(CFA_XSP16, literal(-6)))
          CFI (cfiCond47) ?RET_LOW load(1, XDATA, add(CFA_XSP16, literal(-5)))
          CFI (cfiCond47) ?RET_HIGH load(1, XDATA, add(CFA_XSP16, literal(-4)))
          CFI (cfiCond47) ?BRET_EXT load(1, XDATA, add(CFA_XSP16, literal(-3)))
          CFI (cfiCond47) DPL0 load(1, XDATA, add(CFA_XSP16, literal(-2)))
          CFI (cfiCond47) DPH0 load(1, XDATA, add(CFA_XSP16, literal(-1)))
          CFI (cfiCond47) CFA_SP SP+-2
          CFI (cfiCond47) CFA_XSP16 add(XSP16, 34)
          CFI Block cfiPicker48 Using cfiCommon1
          CFI (cfiPicker48) NoFunction
          CFI (cfiPicker48) Picker
        INC       DPTR
        INC       DPTR
        INC       DPTR
        INC       DPTR
        MOVX      A,@DPTR
        ADD       A,R0
        MOV       ?V2,A
        INC       DPTR
        MOVX      A,@DPTR
        ADDC      A,R1
        MOV       ?V3,A
        MOV       DPL,?V2
        MOV       DPH,A
        MOVX      A,@DPTR
        RET
          CFI EndBlock cfiCond46
          CFI EndBlock cfiCond47
          CFI EndBlock cfiPicker48

        RSEG BANKED_CODE:HUGECODE:NOROOT(0)
?Subroutine9:
          CFI Block cfiCond49 Using cfiCommon0
          CFI Function zclMultiSensor_CheckAndSendClusterAttrReport
          CFI Conditional ??CrossCallReturnLabel_8
          CFI R6 load(1, XDATA, add(CFA_XSP16, literal(-24)))
          CFI VB load(1, XDATA, add(CFA_XSP16, literal(-23)))
          CFI V0 load(1, XDATA, add(CFA_XSP16, literal(-22)))
          CFI V1 load(1, XDATA, add(CFA_XSP16, literal(-21)))
          CFI V2 load(1, XDATA, add(CFA_XSP16, literal(-20)))
          CFI V3 load(1, XDATA, add(CFA_XSP16, literal(-19)))
          CFI V4 load(1, XDATA, add(CFA_XSP16, literal(-18)))
          CFI V5 load(1, XDATA, add(CFA_XSP16, literal(-17)))
          CFI V6 load(1, XDATA, add(CFA_XSP16, literal(-16)))
          CFI V7 load(1, XDATA, add(CFA_XSP16, literal(-15)))
          CFI V8 load(1, XDATA, add(CFA_XSP16, literal(-14)))
          CFI V9 load(1, XDATA, add(CFA_XSP16, literal(-13)))
          CFI V10 load(1, XDATA, add(CFA_XSP16, literal(-12)))
          CFI V11 load(1, XDATA, add(CFA_XSP16, literal(-11)))
          CFI V12 load(1, XDATA, add(CFA_XSP16, literal(-10)))
          CFI V13 load(1, XDATA, add(CFA_XSP16, literal(-9)))
          CFI V14 load(1, XDATA, add(CFA_XSP16, literal(-8)))
          CFI V15 load(1, XDATA, add(CFA_XSP16, literal(-7)))
          CFI R7 load(1, XDATA, add(CFA_XSP16, literal(-6)))
          CFI ?RET_LOW load(1, XDATA, add(CFA_XSP16, literal(-5)))
          CFI ?RET_HIGH load(1, XDATA, add(CFA_XSP16, literal(-4)))
          CFI ?BRET_EXT load(1, XDATA, add(CFA_XSP16, literal(-3)))
          CFI DPL0 load(1, XDATA, add(CFA_XSP16, literal(-2)))
          CFI DPH0 load(1, XDATA, add(CFA_XSP16, literal(-1)))
          CFI CFA_SP SP+-2
          CFI CFA_XSP16 add(XSP16, 34)
          CFI Block cfiCond50 Using cfiCommon0
          CFI (cfiCond50) Function zclMultiSensor_CheckAndSendClusterAttrReport
          CFI (cfiCond50) Conditional ??CrossCallReturnLabel_9
          CFI (cfiCond50) R6 load(1, XDATA, add(CFA_XSP16, literal(-24)))
          CFI (cfiCond50) VB load(1, XDATA, add(CFA_XSP16, literal(-23)))
          CFI (cfiCond50) V0 load(1, XDATA, add(CFA_XSP16, literal(-22)))
          CFI (cfiCond50) V1 load(1, XDATA, add(CFA_XSP16, literal(-21)))
          CFI (cfiCond50) V2 load(1, XDATA, add(CFA_XSP16, literal(-20)))
          CFI (cfiCond50) V3 load(1, XDATA, add(CFA_XSP16, literal(-19)))
          CFI (cfiCond50) V4 load(1, XDATA, add(CFA_XSP16, literal(-18)))
          CFI (cfiCond50) V5 load(1, XDATA, add(CFA_XSP16, literal(-17)))
          CFI (cfiCond50) V6 load(1, XDATA, add(CFA_XSP16, literal(-16)))
          CFI (cfiCond50) V7 load(1, XDATA, add(CFA_XSP16, literal(-15)))
          CFI (cfiCond50) V8 load(1, XDATA, add(CFA_XSP16, literal(-14)))
          CFI (cfiCond50) V9 load(1, XDATA, add(CFA_XSP16, literal(-13)))
          CFI (cfiCond50) V10 load(1, XDATA, add(CFA_XSP16, literal(-12)))
          CFI (cfiCond50) V11 load(1, XDATA, add(CFA_XSP16, literal(-11)))
          CFI (cfiCond50) V12 load(1, XDATA, add(CFA_XSP16, literal(-10)))
          CFI (cfiCond50) V13 load(1, XDATA, add(CFA_XSP16, literal(-9)))
          CFI (cfiCond50) V14 load(1, XDATA, add(CFA_XSP16, literal(-8)))
          CFI (cfiCond50) V15 load(1, XDATA, add(CFA_XSP16, literal(-7)))
          CFI (cfiCond50) R7 load(1, XDATA, add(CFA_XSP16, literal(-6)))
          CFI (cfiCond50) ?RET_LOW load(1, XDATA, add(CFA_XSP16, literal(-5)))
          CFI (cfiCond50) ?RET_HIGH load(1, XDATA, add(CFA_XSP16, literal(-4)))
          CFI (cfiCond50) ?BRET_EXT load(1, XDATA, add(CFA_XSP16, literal(-3)))
          CFI (cfiCond50) DPL0 load(1, XDATA, add(CFA_XSP16, literal(-2)))
          CFI (cfiCond50) DPH0 load(1, XDATA, add(CFA_XSP16, literal(-1)))
          CFI (cfiCond50) CFA_SP SP+-2
          CFI (cfiCond50) CFA_XSP16 add(XSP16, 34)
          CFI Block cfiPicker51 Using cfiCommon1
          CFI (cfiPicker51) NoFunction
          CFI (cfiPicker51) Picker
        LCALL     ?Subroutine27 & 0xFFFF
??CrossCallReturnLabel_36:
        RET
          CFI EndBlock cfiCond49
          CFI EndBlock cfiCond50
          CFI EndBlock cfiPicker51

        RSEG BANKED_CODE:HUGECODE:NOROOT(0)
?Subroutine27:
          CFI Block cfiCond52 Using cfiCommon0
          CFI Function zclMultiSensor_CheckAndSendClusterAttrReport
          CFI Conditional ??CrossCallReturnLabel_36, ??CrossCallReturnLabel_8
          CFI R6 load(1, XDATA, add(CFA_XSP16, literal(-24)))
          CFI VB load(1, XDATA, add(CFA_XSP16, literal(-23)))
          CFI V0 load(1, XDATA, add(CFA_XSP16, literal(-22)))
          CFI V1 load(1, XDATA, add(CFA_XSP16, literal(-21)))
          CFI V2 load(1, XDATA, add(CFA_XSP16, literal(-20)))
          CFI V3 load(1, XDATA, add(CFA_XSP16, literal(-19)))
          CFI V4 load(1, XDATA, add(CFA_XSP16, literal(-18)))
          CFI V5 load(1, XDATA, add(CFA_XSP16, literal(-17)))
          CFI V6 load(1, XDATA, add(CFA_XSP16, literal(-16)))
          CFI V7 load(1, XDATA, add(CFA_XSP16, literal(-15)))
          CFI V8 load(1, XDATA, add(CFA_XSP16, literal(-14)))
          CFI V9 load(1, XDATA, add(CFA_XSP16, literal(-13)))
          CFI V10 load(1, XDATA, add(CFA_XSP16, literal(-12)))
          CFI V11 load(1, XDATA, add(CFA_XSP16, literal(-11)))
          CFI V12 load(1, XDATA, add(CFA_XSP16, literal(-10)))
          CFI V13 load(1, XDATA, add(CFA_XSP16, literal(-9)))
          CFI V14 load(1, XDATA, add(CFA_XSP16, literal(-8)))
          CFI V15 load(1, XDATA, add(CFA_XSP16, literal(-7)))
          CFI R7 load(1, XDATA, add(CFA_XSP16, literal(-6)))
          CFI ?RET_LOW load(1, XDATA, add(CFA_XSP16, literal(-5)))
          CFI ?RET_HIGH load(1, XDATA, add(CFA_XSP16, literal(-4)))
          CFI ?BRET_EXT load(1, XDATA, add(CFA_XSP16, literal(-3)))
          CFI DPL0 load(1, XDATA, add(CFA_XSP16, literal(-2)))
          CFI DPH0 load(1, XDATA, add(CFA_XSP16, literal(-1)))
          CFI CFA_SP SP+-4
          CFI CFA_XSP16 add(XSP16, 34)
          CFI Block cfiCond53 Using cfiCommon0
          CFI (cfiCond53) Function zclMultiSensor_CheckAndSendClusterAttrReport
          CFI (cfiCond53) Conditional ??CrossCallReturnLabel_36, ??CrossCallReturnLabel_9
          CFI (cfiCond53) R6 load(1, XDATA, add(CFA_XSP16, literal(-24)))
          CFI (cfiCond53) VB load(1, XDATA, add(CFA_XSP16, literal(-23)))
          CFI (cfiCond53) V0 load(1, XDATA, add(CFA_XSP16, literal(-22)))
          CFI (cfiCond53) V1 load(1, XDATA, add(CFA_XSP16, literal(-21)))
          CFI (cfiCond53) V2 load(1, XDATA, add(CFA_XSP16, literal(-20)))
          CFI (cfiCond53) V3 load(1, XDATA, add(CFA_XSP16, literal(-19)))
          CFI (cfiCond53) V4 load(1, XDATA, add(CFA_XSP16, literal(-18)))
          CFI (cfiCond53) V5 load(1, XDATA, add(CFA_XSP16, literal(-17)))
          CFI (cfiCond53) V6 load(1, XDATA, add(CFA_XSP16, literal(-16)))
          CFI (cfiCond53) V7 load(1, XDATA, add(CFA_XSP16, literal(-15)))
          CFI (cfiCond53) V8 load(1, XDATA, add(CFA_XSP16, literal(-14)))
          CFI (cfiCond53) V9 load(1, XDATA, add(CFA_XSP16, literal(-13)))
          CFI (cfiCond53) V10 load(1, XDATA, add(CFA_XSP16, literal(-12)))
          CFI (cfiCond53) V11 load(1, XDATA, add(CFA_XSP16, literal(-11)))
          CFI (cfiCond53) V12 load(1, XDATA, add(CFA_XSP16, literal(-10)))
          CFI (cfiCond53) V13 load(1, XDATA, add(CFA_XSP16, literal(-9)))
          CFI (cfiCond53) V14 load(1, XDATA, add(CFA_XSP16, literal(-8)))
          CFI (cfiCond53) V15 load(1, XDATA, add(CFA_XSP16, literal(-7)))
          CFI (cfiCond53) R7 load(1, XDATA, add(CFA_XSP16, literal(-6)))
          CFI (cfiCond53) ?RET_LOW load(1, XDATA, add(CFA_XSP16, literal(-5)))
          CFI (cfiCond53) ?RET_HIGH load(1, XDATA, add(CFA_XSP16, literal(-4)))
          CFI (cfiCond53) ?BRET_EXT load(1, XDATA, add(CFA_XSP16, literal(-3)))
          CFI (cfiCond53) DPL0 load(1, XDATA, add(CFA_XSP16, literal(-2)))
          CFI (cfiCond53) DPH0 load(1, XDATA, add(CFA_XSP16, literal(-1)))
          CFI (cfiCond53) CFA_SP SP+-4
          CFI (cfiCond53) CFA_XSP16 add(XSP16, 34)
          CFI Block cfiCond54 Using cfiCommon0
          CFI (cfiCond54) Function zclMultiSensor_CheckAndSendClusterAttrReport
          CFI (cfiCond54) Conditional ??CrossCallReturnLabel_35, ??CrossCallReturnLabel_6
          CFI (cfiCond54) R6 load(1, XDATA, add(CFA_XSP16, literal(-24)))
          CFI (cfiCond54) VB load(1, XDATA, add(CFA_XSP16, literal(-23)))
          CFI (cfiCond54) V0 load(1, XDATA, add(CFA_XSP16, literal(-22)))
          CFI (cfiCond54) V1 load(1, XDATA, add(CFA_XSP16, literal(-21)))
          CFI (cfiCond54) V2 load(1, XDATA, add(CFA_XSP16, literal(-20)))
          CFI (cfiCond54) V3 load(1, XDATA, add(CFA_XSP16, literal(-19)))
          CFI (cfiCond54) V4 load(1, XDATA, add(CFA_XSP16, literal(-18)))
          CFI (cfiCond54) V5 load(1, XDATA, add(CFA_XSP16, literal(-17)))
          CFI (cfiCond54) V6 load(1, XDATA, add(CFA_XSP16, literal(-16)))
          CFI (cfiCond54) V7 load(1, XDATA, add(CFA_XSP16, literal(-15)))
          CFI (cfiCond54) V8 load(1, XDATA, add(CFA_XSP16, literal(-14)))
          CFI (cfiCond54) V9 load(1, XDATA, add(CFA_XSP16, literal(-13)))
          CFI (cfiCond54) V10 load(1, XDATA, add(CFA_XSP16, literal(-12)))
          CFI (cfiCond54) V11 load(1, XDATA, add(CFA_XSP16, literal(-11)))
          CFI (cfiCond54) V12 load(1, XDATA, add(CFA_XSP16, literal(-10)))
          CFI (cfiCond54) V13 load(1, XDATA, add(CFA_XSP16, literal(-9)))
          CFI (cfiCond54) V14 load(1, XDATA, add(CFA_XSP16, literal(-8)))
          CFI (cfiCond54) V15 load(1, XDATA, add(CFA_XSP16, literal(-7)))
          CFI (cfiCond54) R7 load(1, XDATA, add(CFA_XSP16, literal(-6)))
          CFI (cfiCond54) ?RET_LOW load(1, XDATA, add(CFA_XSP16, literal(-5)))
          CFI (cfiCond54) ?RET_HIGH load(1, XDATA, add(CFA_XSP16, literal(-4)))
          CFI (cfiCond54) ?BRET_EXT load(1, XDATA, add(CFA_XSP16, literal(-3)))
          CFI (cfiCond54) DPL0 load(1, XDATA, add(CFA_XSP16, literal(-2)))
          CFI (cfiCond54) DPH0 load(1, XDATA, add(CFA_XSP16, literal(-1)))
          CFI (cfiCond54) CFA_SP SP+-4
          CFI (cfiCond54) CFA_XSP16 add(XSP16, 34)
          CFI Block cfiCond55 Using cfiCommon0
          CFI (cfiCond55) Function zclMultiSensor_CheckAndSendClusterAttrReport
          CFI (cfiCond55) Conditional ??CrossCallReturnLabel_35, ??CrossCallReturnLabel_7
          CFI (cfiCond55) R6 load(1, XDATA, add(CFA_XSP16, literal(-24)))
          CFI (cfiCond55) VB load(1, XDATA, add(CFA_XSP16, literal(-23)))
          CFI (cfiCond55) V0 load(1, XDATA, add(CFA_XSP16, literal(-22)))
          CFI (cfiCond55) V1 load(1, XDATA, add(CFA_XSP16, literal(-21)))
          CFI (cfiCond55) V2 load(1, XDATA, add(CFA_XSP16, literal(-20)))
          CFI (cfiCond55) V3 load(1, XDATA, add(CFA_XSP16, literal(-19)))
          CFI (cfiCond55) V4 load(1, XDATA, add(CFA_XSP16, literal(-18)))
          CFI (cfiCond55) V5 load(1, XDATA, add(CFA_XSP16, literal(-17)))
          CFI (cfiCond55) V6 load(1, XDATA, add(CFA_XSP16, literal(-16)))
          CFI (cfiCond55) V7 load(1, XDATA, add(CFA_XSP16, literal(-15)))
          CFI (cfiCond55) V8 load(1, XDATA, add(CFA_XSP16, literal(-14)))
          CFI (cfiCond55) V9 load(1, XDATA, add(CFA_XSP16, literal(-13)))
          CFI (cfiCond55) V10 load(1, XDATA, add(CFA_XSP16, literal(-12)))
          CFI (cfiCond55) V11 load(1, XDATA, add(CFA_XSP16, literal(-11)))
          CFI (cfiCond55) V12 load(1, XDATA, add(CFA_XSP16, literal(-10)))
          CFI (cfiCond55) V13 load(1, XDATA, add(CFA_XSP16, literal(-9)))
          CFI (cfiCond55) V14 load(1, XDATA, add(CFA_XSP16, literal(-8)))
          CFI (cfiCond55) V15 load(1, XDATA, add(CFA_XSP16, literal(-7)))
          CFI (cfiCond55) R7 load(1, XDATA, add(CFA_XSP16, literal(-6)))
          CFI (cfiCond55) ?RET_LOW load(1, XDATA, add(CFA_XSP16, literal(-5)))
          CFI (cfiCond55) ?RET_HIGH load(1, XDATA, add(CFA_XSP16, literal(-4)))
          CFI (cfiCond55) ?BRET_EXT load(1, XDATA, add(CFA_XSP16, literal(-3)))
          CFI (cfiCond55) DPL0 load(1, XDATA, add(CFA_XSP16, literal(-2)))
          CFI (cfiCond55) DPH0 load(1, XDATA, add(CFA_XSP16, literal(-1)))
          CFI (cfiCond55) CFA_SP SP+-4
          CFI (cfiCond55) CFA_XSP16 add(XSP16, 34)
          CFI Block cfiPicker56 Using cfiCommon1
          CFI (cfiPicker56) NoFunction
          CFI (cfiPicker56) Picker
        LCALL     ?Subroutine35 & 0xFFFF
??CrossCallReturnLabel_44:
        INC       DPTR
        INC       DPTR
        RET
          CFI EndBlock cfiCond52
          CFI EndBlock cfiCond53
          CFI EndBlock cfiCond54
          CFI EndBlock cfiCond55
          CFI EndBlock cfiPicker56

        RSEG BANKED_CODE:HUGECODE:NOROOT(0)
?Subroutine35:
          CFI Block cfiCond57 Using cfiCommon0
          CFI Function zclMultiSensor_CheckAndSendClusterAttrReport
          CFI Conditional ??CrossCallReturnLabel_43
          CFI R6 load(1, XDATA, add(CFA_XSP16, literal(-24)))
          CFI VB load(1, XDATA, add(CFA_XSP16, literal(-23)))
          CFI V0 load(1, XDATA, add(CFA_XSP16, literal(-22)))
          CFI V1 load(1, XDATA, add(CFA_XSP16, literal(-21)))
          CFI V2 load(1, XDATA, add(CFA_XSP16, literal(-20)))
          CFI V3 load(1, XDATA, add(CFA_XSP16, literal(-19)))
          CFI V4 load(1, XDATA, add(CFA_XSP16, literal(-18)))
          CFI V5 load(1, XDATA, add(CFA_XSP16, literal(-17)))
          CFI V6 load(1, XDATA, add(CFA_XSP16, literal(-16)))
          CFI V7 load(1, XDATA, add(CFA_XSP16, literal(-15)))
          CFI V8 load(1, XDATA, add(CFA_XSP16, literal(-14)))
          CFI V9 load(1, XDATA, add(CFA_XSP16, literal(-13)))
          CFI V10 load(1, XDATA, add(CFA_XSP16, literal(-12)))
          CFI V11 load(1, XDATA, add(CFA_XSP16, literal(-11)))
          CFI V12 load(1, XDATA, add(CFA_XSP16, literal(-10)))
          CFI V13 load(1, XDATA, add(CFA_XSP16, literal(-9)))
          CFI V14 load(1, XDATA, add(CFA_XSP16, literal(-8)))
          CFI V15 load(1, XDATA, add(CFA_XSP16, literal(-7)))
          CFI R7 load(1, XDATA, add(CFA_XSP16, literal(-6)))
          CFI ?RET_LOW load(1, XDATA, add(CFA_XSP16, literal(-5)))
          CFI ?RET_HIGH load(1, XDATA, add(CFA_XSP16, literal(-4)))
          CFI ?BRET_EXT load(1, XDATA, add(CFA_XSP16, literal(-3)))
          CFI DPL0 load(1, XDATA, add(CFA_XSP16, literal(-2)))
          CFI DPH0 load(1, XDATA, add(CFA_XSP16, literal(-1)))
          CFI CFA_SP SP+-2
          CFI CFA_XSP16 add(XSP16, 34)
          CFI Block cfiCond58 Using cfiCommon0
          CFI (cfiCond58) Function zclMultiSensor_CheckAndSendClusterAttrReport
          CFI (cfiCond58) Conditional ??CrossCallReturnLabel_44, ??CrossCallReturnLabel_36, ??CrossCallReturnLabel_8
          CFI (cfiCond58) R6 load(1, XDATA, add(CFA_XSP16, literal(-24)))
          CFI (cfiCond58) VB load(1, XDATA, add(CFA_XSP16, literal(-23)))
          CFI (cfiCond58) V0 load(1, XDATA, add(CFA_XSP16, literal(-22)))
          CFI (cfiCond58) V1 load(1, XDATA, add(CFA_XSP16, literal(-21)))
          CFI (cfiCond58) V2 load(1, XDATA, add(CFA_XSP16, literal(-20)))
          CFI (cfiCond58) V3 load(1, XDATA, add(CFA_XSP16, literal(-19)))
          CFI (cfiCond58) V4 load(1, XDATA, add(CFA_XSP16, literal(-18)))
          CFI (cfiCond58) V5 load(1, XDATA, add(CFA_XSP16, literal(-17)))
          CFI (cfiCond58) V6 load(1, XDATA, add(CFA_XSP16, literal(-16)))
          CFI (cfiCond58) V7 load(1, XDATA, add(CFA_XSP16, literal(-15)))
          CFI (cfiCond58) V8 load(1, XDATA, add(CFA_XSP16, literal(-14)))
          CFI (cfiCond58) V9 load(1, XDATA, add(CFA_XSP16, literal(-13)))
          CFI (cfiCond58) V10 load(1, XDATA, add(CFA_XSP16, literal(-12)))
          CFI (cfiCond58) V11 load(1, XDATA, add(CFA_XSP16, literal(-11)))
          CFI (cfiCond58) V12 load(1, XDATA, add(CFA_XSP16, literal(-10)))
          CFI (cfiCond58) V13 load(1, XDATA, add(CFA_XSP16, literal(-9)))
          CFI (cfiCond58) V14 load(1, XDATA, add(CFA_XSP16, literal(-8)))
          CFI (cfiCond58) V15 load(1, XDATA, add(CFA_XSP16, literal(-7)))
          CFI (cfiCond58) R7 load(1, XDATA, add(CFA_XSP16, literal(-6)))
          CFI (cfiCond58) ?RET_LOW load(1, XDATA, add(CFA_XSP16, literal(-5)))
          CFI (cfiCond58) ?RET_HIGH load(1, XDATA, add(CFA_XSP16, literal(-4)))
          CFI (cfiCond58) ?BRET_EXT load(1, XDATA, add(CFA_XSP16, literal(-3)))
          CFI (cfiCond58) DPL0 load(1, XDATA, add(CFA_XSP16, literal(-2)))
          CFI (cfiCond58) DPH0 load(1, XDATA, add(CFA_XSP16, literal(-1)))
          CFI (cfiCond58) CFA_SP SP+-6
          CFI (cfiCond58) CFA_XSP16 add(XSP16, 34)
          CFI Block cfiCond59 Using cfiCommon0
          CFI (cfiCond59) Function zclMultiSensor_CheckAndSendClusterAttrReport
          CFI (cfiCond59) Conditional ??CrossCallReturnLabel_44, ??CrossCallReturnLabel_36, ??CrossCallReturnLabel_9
          CFI (cfiCond59) R6 load(1, XDATA, add(CFA_XSP16, literal(-24)))
          CFI (cfiCond59) VB load(1, XDATA, add(CFA_XSP16, literal(-23)))
          CFI (cfiCond59) V0 load(1, XDATA, add(CFA_XSP16, literal(-22)))
          CFI (cfiCond59) V1 load(1, XDATA, add(CFA_XSP16, literal(-21)))
          CFI (cfiCond59) V2 load(1, XDATA, add(CFA_XSP16, literal(-20)))
          CFI (cfiCond59) V3 load(1, XDATA, add(CFA_XSP16, literal(-19)))
          CFI (cfiCond59) V4 load(1, XDATA, add(CFA_XSP16, literal(-18)))
          CFI (cfiCond59) V5 load(1, XDATA, add(CFA_XSP16, literal(-17)))
          CFI (cfiCond59) V6 load(1, XDATA, add(CFA_XSP16, literal(-16)))
          CFI (cfiCond59) V7 load(1, XDATA, add(CFA_XSP16, literal(-15)))
          CFI (cfiCond59) V8 load(1, XDATA, add(CFA_XSP16, literal(-14)))
          CFI (cfiCond59) V9 load(1, XDATA, add(CFA_XSP16, literal(-13)))
          CFI (cfiCond59) V10 load(1, XDATA, add(CFA_XSP16, literal(-12)))
          CFI (cfiCond59) V11 load(1, XDATA, add(CFA_XSP16, literal(-11)))
          CFI (cfiCond59) V12 load(1, XDATA, add(CFA_XSP16, literal(-10)))
          CFI (cfiCond59) V13 load(1, XDATA, add(CFA_XSP16, literal(-9)))
          CFI (cfiCond59) V14 load(1, XDATA, add(CFA_XSP16, literal(-8)))
          CFI (cfiCond59) V15 load(1, XDATA, add(CFA_XSP16, literal(-7)))
          CFI (cfiCond59) R7 load(1, XDATA, add(CFA_XSP16, literal(-6)))
          CFI (cfiCond59) ?RET_LOW load(1, XDATA, add(CFA_XSP16, literal(-5)))
          CFI (cfiCond59) ?RET_HIGH load(1, XDATA, add(CFA_XSP16, literal(-4)))
          CFI (cfiCond59) ?BRET_EXT load(1, XDATA, add(CFA_XSP16, literal(-3)))
          CFI (cfiCond59) DPL0 load(1, XDATA, add(CFA_XSP16, literal(-2)))
          CFI (cfiCond59) DPH0 load(1, XDATA, add(CFA_XSP16, literal(-1)))
          CFI (cfiCond59) CFA_SP SP+-6
          CFI (cfiCond59) CFA_XSP16 add(XSP16, 34)
          CFI Block cfiCond60 Using cfiCommon0
          CFI (cfiCond60) Function zclMultiSensor_CheckAndSendClusterAttrReport
          CFI (cfiCond60) Conditional ??CrossCallReturnLabel_44, ??CrossCallReturnLabel_35, ??CrossCallReturnLabel_6
          CFI (cfiCond60) R6 load(1, XDATA, add(CFA_XSP16, literal(-24)))
          CFI (cfiCond60) VB load(1, XDATA, add(CFA_XSP16, literal(-23)))
          CFI (cfiCond60) V0 load(1, XDATA, add(CFA_XSP16, literal(-22)))
          CFI (cfiCond60) V1 load(1, XDATA, add(CFA_XSP16, literal(-21)))
          CFI (cfiCond60) V2 load(1, XDATA, add(CFA_XSP16, literal(-20)))
          CFI (cfiCond60) V3 load(1, XDATA, add(CFA_XSP16, literal(-19)))
          CFI (cfiCond60) V4 load(1, XDATA, add(CFA_XSP16, literal(-18)))
          CFI (cfiCond60) V5 load(1, XDATA, add(CFA_XSP16, literal(-17)))
          CFI (cfiCond60) V6 load(1, XDATA, add(CFA_XSP16, literal(-16)))
          CFI (cfiCond60) V7 load(1, XDATA, add(CFA_XSP16, literal(-15)))
          CFI (cfiCond60) V8 load(1, XDATA, add(CFA_XSP16, literal(-14)))
          CFI (cfiCond60) V9 load(1, XDATA, add(CFA_XSP16, literal(-13)))
          CFI (cfiCond60) V10 load(1, XDATA, add(CFA_XSP16, literal(-12)))
          CFI (cfiCond60) V11 load(1, XDATA, add(CFA_XSP16, literal(-11)))
          CFI (cfiCond60) V12 load(1, XDATA, add(CFA_XSP16, literal(-10)))
          CFI (cfiCond60) V13 load(1, XDATA, add(CFA_XSP16, literal(-9)))
          CFI (cfiCond60) V14 load(1, XDATA, add(CFA_XSP16, literal(-8)))
          CFI (cfiCond60) V15 load(1, XDATA, add(CFA_XSP16, literal(-7)))
          CFI (cfiCond60) R7 load(1, XDATA, add(CFA_XSP16, literal(-6)))
          CFI (cfiCond60) ?RET_LOW load(1, XDATA, add(CFA_XSP16, literal(-5)))
          CFI (cfiCond60) ?RET_HIGH load(1, XDATA, add(CFA_XSP16, literal(-4)))
          CFI (cfiCond60) ?BRET_EXT load(1, XDATA, add(CFA_XSP16, literal(-3)))
          CFI (cfiCond60) DPL0 load(1, XDATA, add(CFA_XSP16, literal(-2)))
          CFI (cfiCond60) DPH0 load(1, XDATA, add(CFA_XSP16, literal(-1)))
          CFI (cfiCond60) CFA_SP SP+-6
          CFI (cfiCond60) CFA_XSP16 add(XSP16, 34)
          CFI Block cfiCond61 Using cfiCommon0
          CFI (cfiCond61) Function zclMultiSensor_CheckAndSendClusterAttrReport
          CFI (cfiCond61) Conditional ??CrossCallReturnLabel_44, ??CrossCallReturnLabel_35, ??CrossCallReturnLabel_7
          CFI (cfiCond61) R6 load(1, XDATA, add(CFA_XSP16, literal(-24)))
          CFI (cfiCond61) VB load(1, XDATA, add(CFA_XSP16, literal(-23)))
          CFI (cfiCond61) V0 load(1, XDATA, add(CFA_XSP16, literal(-22)))
          CFI (cfiCond61) V1 load(1, XDATA, add(CFA_XSP16, literal(-21)))
          CFI (cfiCond61) V2 load(1, XDATA, add(CFA_XSP16, literal(-20)))
          CFI (cfiCond61) V3 load(1, XDATA, add(CFA_XSP16, literal(-19)))
          CFI (cfiCond61) V4 load(1, XDATA, add(CFA_XSP16, literal(-18)))
          CFI (cfiCond61) V5 load(1, XDATA, add(CFA_XSP16, literal(-17)))
          CFI (cfiCond61) V6 load(1, XDATA, add(CFA_XSP16, literal(-16)))
          CFI (cfiCond61) V7 load(1, XDATA, add(CFA_XSP16, literal(-15)))
          CFI (cfiCond61) V8 load(1, XDATA, add(CFA_XSP16, literal(-14)))
          CFI (cfiCond61) V9 load(1, XDATA, add(CFA_XSP16, literal(-13)))
          CFI (cfiCond61) V10 load(1, XDATA, add(CFA_XSP16, literal(-12)))
          CFI (cfiCond61) V11 load(1, XDATA, add(CFA_XSP16, literal(-11)))
          CFI (cfiCond61) V12 load(1, XDATA, add(CFA_XSP16, literal(-10)))
          CFI (cfiCond61) V13 load(1, XDATA, add(CFA_XSP16, literal(-9)))
          CFI (cfiCond61) V14 load(1, XDATA, add(CFA_XSP16, literal(-8)))
          CFI (cfiCond61) V15 load(1, XDATA, add(CFA_XSP16, literal(-7)))
          CFI (cfiCond61) R7 load(1, XDATA, add(CFA_XSP16, literal(-6)))
          CFI (cfiCond61) ?RET_LOW load(1, XDATA, add(CFA_XSP16, literal(-5)))
          CFI (cfiCond61) ?RET_HIGH load(1, XDATA, add(CFA_XSP16, literal(-4)))
          CFI (cfiCond61) ?BRET_EXT load(1, XDATA, add(CFA_XSP16, literal(-3)))
          CFI (cfiCond61) DPL0 load(1, XDATA, add(CFA_XSP16, literal(-2)))
          CFI (cfiCond61) DPH0 load(1, XDATA, add(CFA_XSP16, literal(-1)))
          CFI (cfiCond61) CFA_SP SP+-6
          CFI (cfiCond61) CFA_XSP16 add(XSP16, 34)
          CFI Block cfiPicker62 Using cfiCommon1
          CFI (cfiPicker62) NoFunction
          CFI (cfiPicker62) Picker
        MOVX      @DPTR,A
        MOV       DPL,R2
        MOV       DPH,R3
        INC       DPTR
        INC       DPTR
        INC       DPTR
        INC       DPTR
        RET
          CFI EndBlock cfiCond57
          CFI EndBlock cfiCond58
          CFI EndBlock cfiCond59
          CFI EndBlock cfiCond60
          CFI EndBlock cfiCond61
          CFI EndBlock cfiPicker62

        RSEG BANKED_CODE:HUGECODE:NOROOT(0)
?Subroutine8:
          CFI Block cfiCond63 Using cfiCommon0
          CFI Function zclMultiSensor_CheckAndSendClusterAttrReport
          CFI Conditional ??CrossCallReturnLabel_6
          CFI R6 load(1, XDATA, add(CFA_XSP16, literal(-24)))
          CFI VB load(1, XDATA, add(CFA_XSP16, literal(-23)))
          CFI V0 load(1, XDATA, add(CFA_XSP16, literal(-22)))
          CFI V1 load(1, XDATA, add(CFA_XSP16, literal(-21)))
          CFI V2 load(1, XDATA, add(CFA_XSP16, literal(-20)))
          CFI V3 load(1, XDATA, add(CFA_XSP16, literal(-19)))
          CFI V4 load(1, XDATA, add(CFA_XSP16, literal(-18)))
          CFI V5 load(1, XDATA, add(CFA_XSP16, literal(-17)))
          CFI V6 load(1, XDATA, add(CFA_XSP16, literal(-16)))
          CFI V7 load(1, XDATA, add(CFA_XSP16, literal(-15)))
          CFI V8 load(1, XDATA, add(CFA_XSP16, literal(-14)))
          CFI V9 load(1, XDATA, add(CFA_XSP16, literal(-13)))
          CFI V10 load(1, XDATA, add(CFA_XSP16, literal(-12)))
          CFI V11 load(1, XDATA, add(CFA_XSP16, literal(-11)))
          CFI V12 load(1, XDATA, add(CFA_XSP16, literal(-10)))
          CFI V13 load(1, XDATA, add(CFA_XSP16, literal(-9)))
          CFI V14 load(1, XDATA, add(CFA_XSP16, literal(-8)))
          CFI V15 load(1, XDATA, add(CFA_XSP16, literal(-7)))
          CFI R7 load(1, XDATA, add(CFA_XSP16, literal(-6)))
          CFI ?RET_LOW load(1, XDATA, add(CFA_XSP16, literal(-5)))
          CFI ?RET_HIGH load(1, XDATA, add(CFA_XSP16, literal(-4)))
          CFI ?BRET_EXT load(1, XDATA, add(CFA_XSP16, literal(-3)))
          CFI DPL0 load(1, XDATA, add(CFA_XSP16, literal(-2)))
          CFI DPH0 load(1, XDATA, add(CFA_XSP16, literal(-1)))
          CFI CFA_SP SP+-2
          CFI CFA_XSP16 add(XSP16, 34)
          CFI Block cfiCond64 Using cfiCommon0
          CFI (cfiCond64) Function zclMultiSensor_CheckAndSendClusterAttrReport
          CFI (cfiCond64) Conditional ??CrossCallReturnLabel_7
          CFI (cfiCond64) R6 load(1, XDATA, add(CFA_XSP16, literal(-24)))
          CFI (cfiCond64) VB load(1, XDATA, add(CFA_XSP16, literal(-23)))
          CFI (cfiCond64) V0 load(1, XDATA, add(CFA_XSP16, literal(-22)))
          CFI (cfiCond64) V1 load(1, XDATA, add(CFA_XSP16, literal(-21)))
          CFI (cfiCond64) V2 load(1, XDATA, add(CFA_XSP16, literal(-20)))
          CFI (cfiCond64) V3 load(1, XDATA, add(CFA_XSP16, literal(-19)))
          CFI (cfiCond64) V4 load(1, XDATA, add(CFA_XSP16, literal(-18)))
          CFI (cfiCond64) V5 load(1, XDATA, add(CFA_XSP16, literal(-17)))
          CFI (cfiCond64) V6 load(1, XDATA, add(CFA_XSP16, literal(-16)))
          CFI (cfiCond64) V7 load(1, XDATA, add(CFA_XSP16, literal(-15)))
          CFI (cfiCond64) V8 load(1, XDATA, add(CFA_XSP16, literal(-14)))
          CFI (cfiCond64) V9 load(1, XDATA, add(CFA_XSP16, literal(-13)))
          CFI (cfiCond64) V10 load(1, XDATA, add(CFA_XSP16, literal(-12)))
          CFI (cfiCond64) V11 load(1, XDATA, add(CFA_XSP16, literal(-11)))
          CFI (cfiCond64) V12 load(1, XDATA, add(CFA_XSP16, literal(-10)))
          CFI (cfiCond64) V13 load(1, XDATA, add(CFA_XSP16, literal(-9)))
          CFI (cfiCond64) V14 load(1, XDATA, add(CFA_XSP16, literal(-8)))
          CFI (cfiCond64) V15 load(1, XDATA, add(CFA_XSP16, literal(-7)))
          CFI (cfiCond64) R7 load(1, XDATA, add(CFA_XSP16, literal(-6)))
          CFI (cfiCond64) ?RET_LOW load(1, XDATA, add(CFA_XSP16, literal(-5)))
          CFI (cfiCond64) ?RET_HIGH load(1, XDATA, add(CFA_XSP16, literal(-4)))
          CFI (cfiCond64) ?BRET_EXT load(1, XDATA, add(CFA_XSP16, literal(-3)))
          CFI (cfiCond64) DPL0 load(1, XDATA, add(CFA_XSP16, literal(-2)))
          CFI (cfiCond64) DPH0 load(1, XDATA, add(CFA_XSP16, literal(-1)))
          CFI (cfiCond64) CFA_SP SP+-2
          CFI (cfiCond64) CFA_XSP16 add(XSP16, 34)
          CFI Block cfiPicker65 Using cfiCommon1
          CFI (cfiPicker65) NoFunction
          CFI (cfiPicker65) Picker
        LCALL     ?Subroutine27 & 0xFFFF
??CrossCallReturnLabel_35:
        INC       DPTR
        INC       DPTR
        RET
          CFI EndBlock cfiCond63
          CFI EndBlock cfiCond64
          CFI EndBlock cfiPicker65

        RSEG BANKED_CODE:HUGECODE:NOROOT(0)
//  899 static uint8 zclMultiSensor_ProcessInConfigReportCmd( zclIncomingMsg_t *pInMsg )
zclMultiSensor_ProcessInConfigReportCmd:
          CFI Block cfiBlock66 Using cfiCommon0
          CFI Function zclMultiSensor_ProcessInConfigReportCmd
        CODE
//  900 {
        FUNCALL zclMultiSensor_ProcessInConfigReportCmd, osal_mem_alloc
        LOCFRAME ISTACK, 0, STACK
        LOCFRAME PSTACK, 0, STACK
        LOCFRAME XSTACK, 36, STACK
        LOCFRAME IOVERLAY, 0, STATIC
        LOCFRAME DOVERLAY, 0, STATIC
        ARGFRAME ISTACK, 0, STACK
        ARGFRAME PSTACK, 0, STACK
        ARGFRAME XSTACK, 36, STACK
        ARGFRAME IOVERLAY, 0, STATIC
        ARGFRAME DOVERLAY, 0, STATIC
        FUNCALL zclMultiSensor_ProcessInConfigReportCmd, osal_memset
        LOCFRAME ISTACK, 0, STACK
        LOCFRAME PSTACK, 0, STACK
        LOCFRAME XSTACK, 36, STACK
        LOCFRAME IOVERLAY, 0, STATIC
        LOCFRAME DOVERLAY, 0, STATIC
        ARGFRAME ISTACK, 0, STACK
        ARGFRAME PSTACK, 0, STACK
        ARGFRAME XSTACK, 36, STACK
        ARGFRAME IOVERLAY, 0, STATIC
        ARGFRAME DOVERLAY, 0, STATIC
        FUNCALL zclMultiSensor_ProcessInConfigReportCmd, zclFindConfigReportRec
        LOCFRAME ISTACK, 0, STACK
        LOCFRAME PSTACK, 0, STACK
        LOCFRAME XSTACK, 38, STACK
        LOCFRAME IOVERLAY, 0, STATIC
        LOCFRAME DOVERLAY, 0, STATIC
        ARGFRAME ISTACK, 0, STACK
        ARGFRAME PSTACK, 0, STACK
        ARGFRAME XSTACK, 38, STACK
        ARGFRAME IOVERLAY, 0, STATIC
        ARGFRAME DOVERLAY, 0, STATIC
        FUNCALL zclMultiSensor_ProcessInConfigReportCmd, zclFindAttrRec
        LOCFRAME ISTACK, 0, STACK
        LOCFRAME PSTACK, 0, STACK
        LOCFRAME XSTACK, 38, STACK
        LOCFRAME IOVERLAY, 0, STATIC
        LOCFRAME DOVERLAY, 0, STATIC
        ARGFRAME ISTACK, 0, STACK
        ARGFRAME PSTACK, 0, STACK
        ARGFRAME XSTACK, 38, STACK
        ARGFRAME IOVERLAY, 0, STATIC
        ARGFRAME DOVERLAY, 0, STATIC
        FUNCALL zclMultiSensor_ProcessInConfigReportCmd, zcl_SendConfigReportRspCmd
        LOCFRAME ISTACK, 0, STACK
        LOCFRAME PSTACK, 0, STACK
        LOCFRAME XSTACK, 41, STACK
        LOCFRAME IOVERLAY, 0, STATIC
        LOCFRAME DOVERLAY, 0, STATIC
        ARGFRAME ISTACK, 0, STACK
        ARGFRAME PSTACK, 0, STACK
        ARGFRAME XSTACK, 41, STACK
        ARGFRAME IOVERLAY, 0, STATIC
        ARGFRAME DOVERLAY, 0, STATIC
        FUNCALL zclMultiSensor_ProcessInConfigReportCmd, osal_mem_free
        LOCFRAME ISTACK, 0, STACK
        LOCFRAME PSTACK, 0, STACK
        LOCFRAME XSTACK, 36, STACK
        LOCFRAME IOVERLAY, 0, STATIC
        LOCFRAME DOVERLAY, 0, STATIC
        ARGFRAME ISTACK, 0, STACK
        ARGFRAME PSTACK, 0, STACK
        ARGFRAME XSTACK, 36, STACK
        ARGFRAME IOVERLAY, 0, STATIC
        ARGFRAME DOVERLAY, 0, STATIC
        FUNCALL zclMultiSensor_ProcessInConfigReportCmd, zclMultiSensor_CheckReportConfig
        LOCFRAME ISTACK, 0, STACK
        LOCFRAME PSTACK, 0, STACK
        LOCFRAME XSTACK, 36, STACK
        LOCFRAME IOVERLAY, 0, STATIC
        LOCFRAME DOVERLAY, 0, STATIC
        ARGFRAME ISTACK, 0, STACK
        ARGFRAME PSTACK, 0, STACK
        ARGFRAME XSTACK, 36, STACK
        ARGFRAME IOVERLAY, 0, STATIC
        ARGFRAME DOVERLAY, 0, STATIC
        REQUIRE ?V0
        REQUIRE ?V1
        REQUIRE ?V2
        REQUIRE ?V3
        REQUIRE ?V4
        REQUIRE ?V5
        REQUIRE ?V6
        REQUIRE ?V7
        REQUIRE ?V8
        REQUIRE ?V9
        REQUIRE ?V10
        REQUIRE ?V11
        REQUIRE ?V12
        REQUIRE ?V13
        REQUIRE ?V14
        REQUIRE ?V15
        MOV       A,#-0x18
        LCALL     ?BANKED_ENTER_XDATA
          CFI DPH0 load(1, XDATA, add(CFA_XSP16, literal(-1)))
          CFI DPL0 load(1, XDATA, add(CFA_XSP16, literal(-2)))
          CFI ?BRET_EXT load(1, XDATA, add(CFA_XSP16, literal(-3)))
          CFI ?RET_HIGH load(1, XDATA, add(CFA_XSP16, literal(-4)))
          CFI ?RET_LOW load(1, XDATA, add(CFA_XSP16, literal(-5)))
          CFI R7 load(1, XDATA, add(CFA_XSP16, literal(-6)))
          CFI V15 load(1, XDATA, add(CFA_XSP16, literal(-7)))
          CFI V14 load(1, XDATA, add(CFA_XSP16, literal(-8)))
          CFI V13 load(1, XDATA, add(CFA_XSP16, literal(-9)))
          CFI V12 load(1, XDATA, add(CFA_XSP16, literal(-10)))
          CFI V11 load(1, XDATA, add(CFA_XSP16, literal(-11)))
          CFI V10 load(1, XDATA, add(CFA_XSP16, literal(-12)))
          CFI V9 load(1, XDATA, add(CFA_XSP16, literal(-13)))
          CFI V8 load(1, XDATA, add(CFA_XSP16, literal(-14)))
          CFI V7 load(1, XDATA, add(CFA_XSP16, literal(-15)))
          CFI V6 load(1, XDATA, add(CFA_XSP16, literal(-16)))
          CFI V5 load(1, XDATA, add(CFA_XSP16, literal(-17)))
          CFI V4 load(1, XDATA, add(CFA_XSP16, literal(-18)))
          CFI V3 load(1, XDATA, add(CFA_XSP16, literal(-19)))
          CFI V2 load(1, XDATA, add(CFA_XSP16, literal(-20)))
          CFI V1 load(1, XDATA, add(CFA_XSP16, literal(-21)))
          CFI V0 load(1, XDATA, add(CFA_XSP16, literal(-22)))
          CFI VB load(1, XDATA, add(CFA_XSP16, literal(-23)))
          CFI R6 load(1, XDATA, add(CFA_XSP16, literal(-24)))
          CFI CFA_SP SP+0
          CFI CFA_XSP16 add(XSP16, 24)
        ; Saved register size: 24
        ; Auto size: 12
        MOV       A,#-0xc
        LCALL     ?ALLOC_XSTACK8
          CFI CFA_XSP16 add(XSP16, 36)
        MOV       ?V0,R2
        MOV       ?V1,R3
//  901   zclCfgReportCmd_t *pCfgReportCmd;             // this is used to look up table
//  902   zclCfgReportRspCmd_t *pCfgReportRspCmd;       // This is used to send responde message
//  903   uint8 sendRsp = FALSE;                        // status of initialize dynamic memory for responde message
        CLR       ?VB.0
//  904   uint16 len;
//  905   uint8 j = 0;
        MOV       ?V6,#0x0
//  906   uint8 i;
//  907   
//  908   //1. Initialize message responde ( using structure zclCfgReportRspCmd_t )
//  909   pCfgReportCmd = (zclCfgReportCmd_t *)pInMsg->attrCmd;
        MOV       A,R2
        ADD       A,#0x17
        MOV       DPL,A
        CLR       A
        ADDC      A,?V1
        LCALL     ?Subroutine24 & 0xFFFF
??CrossCallReturnLabel_64:
        MOV       A,#0x2
        LCALL     ?XSTACK_DISP0_8
        LCALL     ??Subroutine45_0 & 0xFFFF
//  910   
//  911   if ( pInMsg->zclHdr.commandID == ZCL_CMD_CONFIG_REPORT )
??CrossCallReturnLabel_88:
        MOV       DPL,R2
        MOV       DPH,R3
        INC       DPTR
        INC       DPTR
        INC       DPTR
        INC       DPTR
        INC       DPTR
        INC       DPTR
        INC       DPTR
        MOVX      A,@DPTR
        XRL       A,#0x6
        JNZ       ??zclMultiSensor_ProcessInConfigReportCmd_0
//  912   {
//  913     // We need to send a response back - allocate space for it
//  914     len = sizeof( zclCfgReportRspCmd_t ) + (pCfgReportCmd->numAttr * sizeof( zclCfgReportStatus_t ));
//  915     pCfgReportRspCmd = (zclCfgReportRspCmd_t *)zcl_mem_alloc( len );
        ; Setup parameters for call to function osal_mem_alloc
        MOV       A,#0x2
        LCALL     ?XSTACK_DISP0_8
        LCALL     ?Subroutine22 & 0xFFFF
??CrossCallReturnLabel_27:
        MOV       ?V2,A
        MOV       ?V3,#0x0
        MOV       A,#0x2
        MOV       R0,#?V2
        LCALL     ?S_SHL
        MOV       A,?V2
        ADD       A,#0x1
        MOV       R2,A
        CLR       A
        ADDC      A,?V3
        MOV       R3,A
        LCALL     `??osal_mem_alloc::?relay`; Banked call to: osal_mem_alloc
        MOV       ?V2,R2
        MOV       ?V3,R3
//  916     
//  917     if ( pCfgReportRspCmd == NULL )
        MOV       A,R2
        ORL       A,R3
        JNZ       ??zclMultiSensor_ProcessInConfigReportCmd_1
//  918     {
//  919       return FALSE;     // embedded return
        MOV       R1,#0x0
        LJMP      ??zclMultiSensor_ProcessInConfigReportCmd_2 & 0xFFFF
//  920     }
//  921     sendRsp = TRUE;     // sendRsp is active when we got correct commandID
??zclMultiSensor_ProcessInConfigReportCmd_1:
        SETB      ?VB.0
//  922   }
//  923   
//  924   for ( i = 0; i < pCfgReportCmd->numAttr; i++ )
??zclMultiSensor_ProcessInConfigReportCmd_0:
        MOV       ?V7,#0x0
        SJMP      ??zclMultiSensor_ProcessInConfigReportCmd_3
//  925   {
//  926     
//  927     //2. Look up config. report record of the incomming message in table "config. Report Record List"
//  928     zclConfigReportRec_t *pConfigReportRec = NULL;      // find the rec and store here
//  929     zclAttrRec_t attrRec;
//  930     
//  931     zclCfgReportStatus_t *statusRec = &(pCfgReportRspCmd->attrList[i]);
//  932     zcl_memset( statusRec, 0, sizeof( zclCfgReportStatus_t ));
//  933     
//  934     if ( zclFindConfigReportRec( pInMsg->endPoint, pInMsg->clusterId,
//  935                                 pCfgReportCmd->attrList[i].attrID, &pConfigReportRec))
//  936     {
//  937       
//  938       //3. Check "dataType" of variable to variable in incomming message
//  939       uint8 status = ZCL_STATUS_SUCCESS;
//  940       
//  941       if (pCfgReportCmd->attrList[i].dataType != pConfigReportRec->cfgReportRec.dataType )
//  942       {        
//  943         status = ZCL_STATUS_INVALID_DATA_TYPE;
//  944       }
//  945       else 
//  946       {
//  947         
//  948         //4. Look up Attribute record of incomming message in tabel "attribute list"
//  949         if ( zclFindAttrRec( pInMsg->endPoint, pInMsg->clusterId,
//  950                             pCfgReportCmd->attrList[i].attrID, &attrRec))
//  951         {
//  952           //5. Check "dataType" of variable to variable in incomming message
//  953           if (pCfgReportCmd->attrList[i].dataType != attrRec.attr.dataType )
//  954           {
//  955             status = ZCL_STATUS_INVALID_DATA_TYPE;
//  956           }
//  957           else
//  958           {
//  959             //6. Check Access control type of each attribute in incomming message to attribute in table "attribute list"
//  960             if ( !zcl_AccessCtrlRead(attrRec.attr.accessControl))
//  961             {
//  962               status = ZCL_STATUS_WRITE_ONLY;
//  963             }
//  964           }
//  965         }
//  966       }
//  967       
//  968       //7. Write config. value into variable in table "config. report record list"
//  969       // If successful, store the record, and a CfgReportStatus record shall NOT be generated
//  970       if ( sendRsp && status != ZCL_STATUS_SUCCESS )
//  971       {
//  972         //Attribute is write only or invalid data type - move on to the next record
//  973         statusRec->status = status;
//  974         statusRec->direction = pCfgReportCmd->attrList[i].direction;
//  975         statusRec->attrID = pCfgReportCmd->attrList[i].attrID;
//  976         j++;
//  977       }
//  978       else    // Success, set the config report rec
//  979       {
//  980         pConfigReportRec->cfgReportRec.direction = pCfgReportCmd->attrList[i].direction;
//  981         pConfigReportRec->cfgReportRec.minReportInt = pCfgReportCmd->attrList[i].minReportInt;
//  982         pConfigReportRec->cfgReportRec.maxReportInt = pCfgReportCmd->attrList[i].maxReportInt;
//  983         pConfigReportRec->cfgReportRec.timeoutPeriod = pCfgReportCmd->attrList[i].timeoutPeriod;
//  984         pConfigReportRec->timeup = 0xFFFF;
//  985       }
//  986     }
//  987     else
//  988     {
//  989       //Attribute is not supported - move on to the next configReportRec record
//  990       if (sendRsp)
??zclMultiSensor_ProcessInConfigReportCmd_4:
        MOV       C,?VB.0
        JNC       ??zclMultiSensor_ProcessInConfigReportCmd_5
//  991       {
//  992         statusRec->status = ZCL_STATUS_UNSUPPORTED_ATTRIBUTE;
        MOV       DPL,?V4
        MOV       DPH,?V5
        MOV       A,#-0x7a
        LCALL     ?Subroutine6 & 0xFFFF
//  993         statusRec->status = pCfgReportCmd->attrList[i].direction;
??CrossCallReturnLabel_4:
        MOVX      @DPTR,A
//  994         statusRec->attrID = pCfgReportCmd->attrList[i].attrID;
        MOV       DPL,?V8
        MOV       DPH,?V9
        LCALL     ??Subroutine41_0 & 0xFFFF
??CrossCallReturnLabel_62:
        MOV       DPL,?V4
        MOV       DPH,?V5
        LCALL     ?Subroutine7 & 0xFFFF
//  995         j++;
??CrossCallReturnLabel_91:
        INC       ?V6
//  996       }
//  997     }
??zclMultiSensor_ProcessInConfigReportCmd_5:
        INC       ?V7
??zclMultiSensor_ProcessInConfigReportCmd_3:
        MOV       A,#0x2
        LCALL     ?XSTACK_DISP0_8
        LCALL     ?Subroutine22 & 0xFFFF
??CrossCallReturnLabel_28:
        MOV       R0,A
        MOV       A,?V7
        CLR       C
        SUBB      A,R0
        JC        $+5
        LJMP      ??zclMultiSensor_ProcessInConfigReportCmd_6 & 0xFFFF
        MOV       DPL,?XSP + 0
        MOV       DPH,?XSP + 1
        CLR       A
        MOVX      @DPTR,A
        INC       DPTR
        MOVX      @DPTR,A
        MOV       R6,?V7
        MOV       ?V4,R6
        MOV       ?V5,A
        MOV       A,#0x2
        MOV       R0,#?V4
        LCALL     ?S_SHL
        MOV       A,?V2
        ADD       A,?V4
        MOV       DPL,A
        MOV       A,?V3
        ADDC      A,?V5
        MOV       DPH,A
        INC       DPTR
        MOV       ?V4,DPL
        MOV       ?V5,DPH
        ; Setup parameters for call to function osal_memset
        MOV       R4,#0x4
        MOV       R5,#0x0
        MOV       R1,#0x0
        MOV       R2,?V4
        MOV       R3,?V5
        LCALL     `??osal_memset::?relay`; Banked call to: osal_memset
        MOV       A,R6
        MOV       B,#0xc
        MUL       AB
        MOV       R6,A
        MOV       R7,B
        MOV       A,#0x2
        LCALL     ?XSTACK_DISP0_8
        MOVX      A,@DPTR
        ADD       A,R6
        MOV       R6,A
        INC       DPTR
        MOVX      A,@DPTR
        ADDC      A,R7
        MOV       R7,A
        MOV       DPL,R6
        MOV       DPH,A
        INC       DPTR
        MOV       ?V12,DPL
        MOV       ?V13,DPH
        MOV       A,R6
        ADD       A,#0x2
        MOV       ?V8,A
        CLR       A
        ADDC      A,R7
        MOV       ?V9,A
        ; Setup parameters for call to function zclFindConfigReportRec
        MOV       R0,?XSP + 0
        MOV       R1,?XSP + 1
        MOV       ?V10,R0
        MOV       ?V11,R1
        MOV       R0,#?V10
        LCALL     ?PUSH_XSTACK_I_TWO
          CFI CFA_XSP16 add(XSP16, 38)
        LCALL     ?Subroutine11 & 0xFFFF
??CrossCallReturnLabel_12:
        LCALL     `??zclFindConfigReportRec::?relay`; Banked call to: zclFindConfigReportRec
        MOV       A,#0x2
        LCALL     ?DEALLOC_XSTACK8
          CFI CFA_XSP16 add(XSP16, 36)
        MOV       A,R1
        JNZ       $+5
        LJMP      ??zclMultiSensor_ProcessInConfigReportCmd_4 & 0xFFFF
        MOV       A,R6
        ADD       A,#0x4
        MOV       ?V14,A
        CLR       A
        ADDC      A,R7
        MOV       ?V15,A
        MOV       DPL,?V14
        MOV       DPH,A
        MOVX      A,@DPTR
        MOV       R1,A
        LCALL     ?Subroutine31 & 0xFFFF
??CrossCallReturnLabel_74:
        XCH       A,R0
        ADD       A,#0x9
        MOV       DPL,A
        CLR       A
        ADDC      A,R0
        MOV       DPH,A
        MOVX      A,@DPTR
        XRL       A,R1
        JNZ       ??zclMultiSensor_ProcessInConfigReportCmd_7
        ; Setup parameters for call to function zclFindAttrRec
        MOV       A,#0x4
        LCALL     ?XSTACK_DISP100_8
        MOV       ?V10,R0
        MOV       ?V11,R1
        MOV       R0,#?V10
        LCALL     ?PUSH_XSTACK_I_TWO
          CFI CFA_XSP16 add(XSP16, 38)
        LCALL     ?Subroutine11 & 0xFFFF
??CrossCallReturnLabel_13:
        LCALL     `??zclFindAttrRec::?relay`; Banked call to: zclFindAttrRec
        MOV       A,#0x2
        LCALL     ?DEALLOC_XSTACK8
          CFI CFA_XSP16 add(XSP16, 36)
        MOV       A,R1
        JZ        ??zclMultiSensor_ProcessInConfigReportCmd_8
        MOV       DPL,?V14
        MOV       DPH,?V15
        MOVX      A,@DPTR
        MOV       R0,A
        MOV       A,#0x8
        LCALL     ?XSTACK_DISP0_8
        MOVX      A,@DPTR
        XRL       A,R0
        JZ        ??zclMultiSensor_ProcessInConfigReportCmd_9
??zclMultiSensor_ProcessInConfigReportCmd_7:
        MOV       A,#-0x73
        SJMP      ??zclMultiSensor_ProcessInConfigReportCmd_10
??zclMultiSensor_ProcessInConfigReportCmd_9:
        MOV       A,#0x9
        LCALL     ?XSTACK_DISP0_8
        MOVX      A,@DPTR
        MOV       C,0xE0 /* A   */.0
        JC        ??zclMultiSensor_ProcessInConfigReportCmd_8
        MOV       A,#-0x71
??zclMultiSensor_ProcessInConfigReportCmd_10:
        MOV       C,?VB.0
        JNC       ??zclMultiSensor_ProcessInConfigReportCmd_8
        MOV       DPL,?V4
        MOV       DPH,?V5
        LCALL     ?Subroutine6 & 0xFFFF
??CrossCallReturnLabel_5:
        INC       DPTR
        LJMP      ??CrossCallReturnLabel_4 & 0xFFFF
??zclMultiSensor_ProcessInConfigReportCmd_8:
        MOV       DPL,?V12
        MOV       DPH,?V13
        MOVX      A,@DPTR
        PUSH      A
          CFI CFA_SP SP+-1
        LCALL     ?Subroutine31 & 0xFFFF
//  998   }//for loop
??CrossCallReturnLabel_75:
        XCH       A,R0
        ADD       A,#0x6
        MOV       DPL,A
        CLR       A
        ADDC      A,R0
        MOV       DPH,A
        POP       A
          CFI CFA_SP SP+0
        LCALL     ?Subroutine29 & 0xFFFF
??CrossCallReturnLabel_37:
        LCALL     ?Subroutine12 & 0xFFFF
??CrossCallReturnLabel_67:
        ADD       A,#0xa
        LCALL     ?Subroutine5 & 0xFFFF
??CrossCallReturnLabel_2:
        LCALL     ??Subroutine43_0 & 0xFFFF
??CrossCallReturnLabel_66:
        ADD       A,#0xc
        LCALL     ?Subroutine5 & 0xFFFF
??CrossCallReturnLabel_3:
        LCALL     ?Subroutine12 & 0xFFFF
??CrossCallReturnLabel_68:
        LCALL     ?Subroutine26 & 0xFFFF
??CrossCallReturnLabel_33:
        LCALL     ?Subroutine4 & 0xFFFF
??CrossCallReturnLabel_1:
        INC       DPTR
        INC       DPTR
        MOV       A,#-0x1
        MOVX      @DPTR,A
        INC       DPTR
        MOVX      @DPTR,A
        LJMP      ??zclMultiSensor_ProcessInConfigReportCmd_5 & 0xFFFF
//  999   //8. Send respond message with function "zcl_SendConfigReportRspCmd"
// 1000   if ( sendRsp )
??zclMultiSensor_ProcessInConfigReportCmd_6:
        MOV       C,?VB.0
        JNC       ??zclMultiSensor_ProcessInConfigReportCmd_11
// 1001   {
// 1002     pCfgReportRspCmd->numAttr = j;
        MOV       DPL,?V2
        MOV       DPH,?V3
        MOV       A,?V6
        MOVX      @DPTR,A
// 1003     if (pCfgReportRspCmd->numAttr == 0)
        JNZ       ??zclMultiSensor_ProcessInConfigReportCmd_12
// 1004     {
// 1005       //Since all records were written successful, include a single status record
// 1006       // in the response command with the status field set to SUCCESS and the
// 1007       // attribute ID and direction fields omitted.
// 1008       pCfgReportRspCmd->attrList[0].status = ZCL_STATUS_SUCCESS;
        INC       DPTR
        CLR       A
        MOVX      @DPTR,A
// 1009       pCfgReportRspCmd->numAttr = 1;
        MOV       DPL,?V2
        MOV       DPH,?V3
        INC       A
        MOVX      @DPTR,A
// 1010     }
// 1011     
// 1012     zcl_SendConfigReportRspCmd(pInMsg->endPoint, &(pInMsg->srcAddr),
// 1013                                pInMsg->clusterId, pCfgReportRspCmd,
// 1014                                !pInMsg->zclHdr.fc.direction, TRUE,
// 1015                                pInMsg->zclHdr.transSeqNum );
??zclMultiSensor_ProcessInConfigReportCmd_12:
        ; Setup parameters for call to function zcl_SendConfigReportRspCmd
        MOV       DPL,?V0
        MOV       DPH,?V1
        INC       DPTR
        INC       DPTR
        INC       DPTR
        INC       DPTR
        INC       DPTR
        INC       DPTR
        MOVX      A,@DPTR
        MOV       ?V4,A
        MOV       R0,#?V4
        LCALL     ?PUSH_XSTACK_I_ONE
          CFI CFA_XSP16 add(XSP16, 37)
        MOV       ?V4,#0x1
        MOV       R0,#?V4
        LCALL     ?PUSH_XSTACK_I_ONE
          CFI CFA_XSP16 add(XSP16, 38)
        MOV       DPL,?V0
        MOV       DPH,?V1
        LCALL     ?Subroutine20 & 0xFFFF
??CrossCallReturnLabel_25:
        MOV       ?V4,A
        MOV       R0,#?V4
        LCALL     ?PUSH_XSTACK_I_ONE
          CFI CFA_XSP16 add(XSP16, 39)
        MOV       R0,#?V2
        LCALL     ?PUSH_XSTACK_I_TWO
          CFI CFA_XSP16 add(XSP16, 41)
        MOV       DPL,?V0
        MOV       DPH,?V1
        LCALL     ?Subroutine18 & 0xFFFF
??CrossCallReturnLabel_52:
        MOV       A,?V0
        ADD       A,#0xa
        MOV       R2,A
        CLR       A
        ADDC      A,?V1
        MOV       R3,A
        LCALL     ?Subroutine34 & 0xFFFF
??CrossCallReturnLabel_41:
        LCALL     `??zcl_SendConfigReportRspCmd::?relay`; Banked call to: zcl_SendConfigReportRspCmd
        MOV       A,#0x5
        LCALL     ?DEALLOC_XSTACK8
          CFI CFA_XSP16 add(XSP16, 36)
// 1016     zcl_mem_free ( pCfgReportRspCmd );
        ; Setup parameters for call to function osal_mem_free
        MOV       R2,?V2
        MOV       R3,?V3
        LCALL     `??osal_mem_free::?relay`; Banked call to: osal_mem_free
// 1017   }
// 1018   
// 1019   //9. When configured, check report config immediately with function "xxx_CheckReportConfig()"
// 1020   // when configured, check report config immediately
// 1021   zclMultiSensor_CheckReportConfig();
??zclMultiSensor_ProcessInConfigReportCmd_11:
        ; Setup parameters for call to function zclMultiSensor_CheckReportConfig
        LCALL     `??zclMultiSensor_CheckReportConfig::?relay`; Banked call to: zclMultiSensor_CheckReportConfig
// 1022   // The MULTISENSOR_CHECK_REPORT_EVT will then be triggered again and again
// 1023   // if we never received the ConfiReportCmd, the MULTISENSOR_CHECK_REPORT_EVT
// 1024   // has no change to be triggered.
// 1025   
// 1026   // We think this makes sense, since there is no reason for your app to perform
// 1027   // constantly report unless the app is configured to report.
// 1028   // if your app just need to automatically report after bootup, you can trigger
// 1029   // MULTISENSOR_CHECK_REPORT_EVT in zclXXX_Init().
// 1030   return TRUE;
        MOV       R1,#0x1
??zclMultiSensor_ProcessInConfigReportCmd_2:
        MOV       A,#0xc
        LJMP      ??Subroutine38_0 & 0xFFFF
// 1031 }
          CFI EndBlock cfiBlock66

        RSEG BANKED_CODE:HUGECODE:NOROOT(0)
?Subroutine24:
          CFI Block cfiCond67 Using cfiCommon0
          CFI Function zclMultiSensor_ProcessInConfigReportCmd
          CFI Conditional ??CrossCallReturnLabel_64
          CFI R6 load(1, XDATA, add(CFA_XSP16, literal(-24)))
          CFI VB load(1, XDATA, add(CFA_XSP16, literal(-23)))
          CFI V0 load(1, XDATA, add(CFA_XSP16, literal(-22)))
          CFI V1 load(1, XDATA, add(CFA_XSP16, literal(-21)))
          CFI V2 load(1, XDATA, add(CFA_XSP16, literal(-20)))
          CFI V3 load(1, XDATA, add(CFA_XSP16, literal(-19)))
          CFI V4 load(1, XDATA, add(CFA_XSP16, literal(-18)))
          CFI V5 load(1, XDATA, add(CFA_XSP16, literal(-17)))
          CFI V6 load(1, XDATA, add(CFA_XSP16, literal(-16)))
          CFI V7 load(1, XDATA, add(CFA_XSP16, literal(-15)))
          CFI V8 load(1, XDATA, add(CFA_XSP16, literal(-14)))
          CFI V9 load(1, XDATA, add(CFA_XSP16, literal(-13)))
          CFI V10 load(1, XDATA, add(CFA_XSP16, literal(-12)))
          CFI V11 load(1, XDATA, add(CFA_XSP16, literal(-11)))
          CFI V12 load(1, XDATA, add(CFA_XSP16, literal(-10)))
          CFI V13 load(1, XDATA, add(CFA_XSP16, literal(-9)))
          CFI V14 load(1, XDATA, add(CFA_XSP16, literal(-8)))
          CFI V15 load(1, XDATA, add(CFA_XSP16, literal(-7)))
          CFI R7 load(1, XDATA, add(CFA_XSP16, literal(-6)))
          CFI ?RET_LOW load(1, XDATA, add(CFA_XSP16, literal(-5)))
          CFI ?RET_HIGH load(1, XDATA, add(CFA_XSP16, literal(-4)))
          CFI ?BRET_EXT load(1, XDATA, add(CFA_XSP16, literal(-3)))
          CFI DPL0 load(1, XDATA, add(CFA_XSP16, literal(-2)))
          CFI DPH0 load(1, XDATA, add(CFA_XSP16, literal(-1)))
          CFI CFA_SP SP+-2
          CFI CFA_XSP16 add(XSP16, 36)
          CFI Block cfiCond68 Using cfiCommon0
          CFI (cfiCond68) Function zclMultiSensor_ProcessInReadReportCfgCmd
          CFI (cfiCond68) Conditional ??CrossCallReturnLabel_65
          CFI (cfiCond68) R6 load(1, XDATA, add(CFA_XSP16, literal(-24)))
          CFI (cfiCond68) VB load(1, XDATA, add(CFA_XSP16, literal(-23)))
          CFI (cfiCond68) V0 load(1, XDATA, add(CFA_XSP16, literal(-22)))
          CFI (cfiCond68) V1 load(1, XDATA, add(CFA_XSP16, literal(-21)))
          CFI (cfiCond68) V2 load(1, XDATA, add(CFA_XSP16, literal(-20)))
          CFI (cfiCond68) V3 load(1, XDATA, add(CFA_XSP16, literal(-19)))
          CFI (cfiCond68) V4 load(1, XDATA, add(CFA_XSP16, literal(-18)))
          CFI (cfiCond68) V5 load(1, XDATA, add(CFA_XSP16, literal(-17)))
          CFI (cfiCond68) V6 load(1, XDATA, add(CFA_XSP16, literal(-16)))
          CFI (cfiCond68) V7 load(1, XDATA, add(CFA_XSP16, literal(-15)))
          CFI (cfiCond68) V8 load(1, XDATA, add(CFA_XSP16, literal(-14)))
          CFI (cfiCond68) V9 load(1, XDATA, add(CFA_XSP16, literal(-13)))
          CFI (cfiCond68) V10 load(1, XDATA, add(CFA_XSP16, literal(-12)))
          CFI (cfiCond68) V11 load(1, XDATA, add(CFA_XSP16, literal(-11)))
          CFI (cfiCond68) V12 load(1, XDATA, add(CFA_XSP16, literal(-10)))
          CFI (cfiCond68) V13 load(1, XDATA, add(CFA_XSP16, literal(-9)))
          CFI (cfiCond68) V14 load(1, XDATA, add(CFA_XSP16, literal(-8)))
          CFI (cfiCond68) V15 load(1, XDATA, add(CFA_XSP16, literal(-7)))
          CFI (cfiCond68) R7 load(1, XDATA, add(CFA_XSP16, literal(-6)))
          CFI (cfiCond68) ?RET_LOW load(1, XDATA, add(CFA_XSP16, literal(-5)))
          CFI (cfiCond68) ?RET_HIGH load(1, XDATA, add(CFA_XSP16, literal(-4)))
          CFI (cfiCond68) ?BRET_EXT load(1, XDATA, add(CFA_XSP16, literal(-3)))
          CFI (cfiCond68) DPL0 load(1, XDATA, add(CFA_XSP16, literal(-2)))
          CFI (cfiCond68) DPH0 load(1, XDATA, add(CFA_XSP16, literal(-1)))
          CFI (cfiCond68) CFA_SP SP+-2
          CFI (cfiCond68) CFA_XSP16 add(XSP16, 34)
          CFI Block cfiPicker69 Using cfiCommon1
          CFI (cfiPicker69) NoFunction
          CFI (cfiPicker69) Picker
        MOV       DPH,A
          CFI EndBlock cfiCond67
          CFI EndBlock cfiCond68
          CFI EndBlock cfiPicker69
        REQUIRE ??Subroutine41_0
        ; // Fall through to label ??Subroutine41_0

        RSEG BANKED_CODE:HUGECODE:NOROOT(0)
??Subroutine41_0:
          CFI Block cfiCond70 Using cfiCommon0
          CFI Function uartEventApplicationCB
          CFI Conditional ??CrossCallReturnLabel_54
          CFI R6 load(1, XDATA, add(CFA_XSP16, literal(-12)))
          CFI VB load(1, XDATA, add(CFA_XSP16, literal(-11)))
          CFI V0 load(1, XDATA, add(CFA_XSP16, literal(-10)))
          CFI V1 load(1, XDATA, add(CFA_XSP16, literal(-9)))
          CFI V2 load(1, XDATA, add(CFA_XSP16, literal(-8)))
          CFI V3 load(1, XDATA, add(CFA_XSP16, literal(-7)))
          CFI R7 load(1, XDATA, add(CFA_XSP16, literal(-6)))
          CFI ?RET_LOW load(1, XDATA, add(CFA_XSP16, literal(-5)))
          CFI ?RET_HIGH load(1, XDATA, add(CFA_XSP16, literal(-4)))
          CFI ?BRET_EXT load(1, XDATA, add(CFA_XSP16, literal(-3)))
          CFI DPL0 load(1, XDATA, add(CFA_XSP16, literal(-2)))
          CFI DPH0 load(1, XDATA, add(CFA_XSP16, literal(-1)))
          CFI CFA_SP SP+-2
          CFI CFA_XSP16 add(XSP16, 25)
          CFI Block cfiCond71 Using cfiCommon0
          CFI (cfiCond71) Function uartEventApplicationCB
          CFI (cfiCond71) Conditional ??CrossCallReturnLabel_55
          CFI (cfiCond71) R6 load(1, XDATA, add(CFA_XSP16, literal(-12)))
          CFI (cfiCond71) VB load(1, XDATA, add(CFA_XSP16, literal(-11)))
          CFI (cfiCond71) V0 load(1, XDATA, add(CFA_XSP16, literal(-10)))
          CFI (cfiCond71) V1 load(1, XDATA, add(CFA_XSP16, literal(-9)))
          CFI (cfiCond71) V2 load(1, XDATA, add(CFA_XSP16, literal(-8)))
          CFI (cfiCond71) V3 load(1, XDATA, add(CFA_XSP16, literal(-7)))
          CFI (cfiCond71) R7 load(1, XDATA, add(CFA_XSP16, literal(-6)))
          CFI (cfiCond71) ?RET_LOW load(1, XDATA, add(CFA_XSP16, literal(-5)))
          CFI (cfiCond71) ?RET_HIGH load(1, XDATA, add(CFA_XSP16, literal(-4)))
          CFI (cfiCond71) ?BRET_EXT load(1, XDATA, add(CFA_XSP16, literal(-3)))
          CFI (cfiCond71) DPL0 load(1, XDATA, add(CFA_XSP16, literal(-2)))
          CFI (cfiCond71) DPH0 load(1, XDATA, add(CFA_XSP16, literal(-1)))
          CFI (cfiCond71) CFA_SP SP+-2
          CFI (cfiCond71) CFA_XSP16 add(XSP16, 25)
          CFI Block cfiCond72 Using cfiCommon0
          CFI (cfiCond72) Function uartEventApplicationCB
          CFI (cfiCond72) Conditional ??CrossCallReturnLabel_56
          CFI (cfiCond72) R6 load(1, XDATA, add(CFA_XSP16, literal(-12)))
          CFI (cfiCond72) VB load(1, XDATA, add(CFA_XSP16, literal(-11)))
          CFI (cfiCond72) V0 load(1, XDATA, add(CFA_XSP16, literal(-10)))
          CFI (cfiCond72) V1 load(1, XDATA, add(CFA_XSP16, literal(-9)))
          CFI (cfiCond72) V2 load(1, XDATA, add(CFA_XSP16, literal(-8)))
          CFI (cfiCond72) V3 load(1, XDATA, add(CFA_XSP16, literal(-7)))
          CFI (cfiCond72) R7 load(1, XDATA, add(CFA_XSP16, literal(-6)))
          CFI (cfiCond72) ?RET_LOW load(1, XDATA, add(CFA_XSP16, literal(-5)))
          CFI (cfiCond72) ?RET_HIGH load(1, XDATA, add(CFA_XSP16, literal(-4)))
          CFI (cfiCond72) ?BRET_EXT load(1, XDATA, add(CFA_XSP16, literal(-3)))
          CFI (cfiCond72) DPL0 load(1, XDATA, add(CFA_XSP16, literal(-2)))
          CFI (cfiCond72) DPH0 load(1, XDATA, add(CFA_XSP16, literal(-1)))
          CFI (cfiCond72) CFA_SP SP+-2
          CFI (cfiCond72) CFA_XSP16 add(XSP16, 25)
          CFI Block cfiCond73 Using cfiCommon0
          CFI (cfiCond73) Function uartEventApplicationCB
          CFI (cfiCond73) Conditional ??CrossCallReturnLabel_57
          CFI (cfiCond73) R6 load(1, XDATA, add(CFA_XSP16, literal(-12)))
          CFI (cfiCond73) VB load(1, XDATA, add(CFA_XSP16, literal(-11)))
          CFI (cfiCond73) V0 load(1, XDATA, add(CFA_XSP16, literal(-10)))
          CFI (cfiCond73) V1 load(1, XDATA, add(CFA_XSP16, literal(-9)))
          CFI (cfiCond73) V2 load(1, XDATA, add(CFA_XSP16, literal(-8)))
          CFI (cfiCond73) V3 load(1, XDATA, add(CFA_XSP16, literal(-7)))
          CFI (cfiCond73) R7 load(1, XDATA, add(CFA_XSP16, literal(-6)))
          CFI (cfiCond73) ?RET_LOW load(1, XDATA, add(CFA_XSP16, literal(-5)))
          CFI (cfiCond73) ?RET_HIGH load(1, XDATA, add(CFA_XSP16, literal(-4)))
          CFI (cfiCond73) ?BRET_EXT load(1, XDATA, add(CFA_XSP16, literal(-3)))
          CFI (cfiCond73) DPL0 load(1, XDATA, add(CFA_XSP16, literal(-2)))
          CFI (cfiCond73) DPH0 load(1, XDATA, add(CFA_XSP16, literal(-1)))
          CFI (cfiCond73) CFA_SP SP+-2
          CFI (cfiCond73) CFA_XSP16 add(XSP16, 25)
          CFI Block cfiCond74 Using cfiCommon0
          CFI (cfiCond74) Function uartEventApplicationCB
          CFI (cfiCond74) Conditional ??CrossCallReturnLabel_58
          CFI (cfiCond74) R6 load(1, XDATA, add(CFA_XSP16, literal(-12)))
          CFI (cfiCond74) VB load(1, XDATA, add(CFA_XSP16, literal(-11)))
          CFI (cfiCond74) V0 load(1, XDATA, add(CFA_XSP16, literal(-10)))
          CFI (cfiCond74) V1 load(1, XDATA, add(CFA_XSP16, literal(-9)))
          CFI (cfiCond74) V2 load(1, XDATA, add(CFA_XSP16, literal(-8)))
          CFI (cfiCond74) V3 load(1, XDATA, add(CFA_XSP16, literal(-7)))
          CFI (cfiCond74) R7 load(1, XDATA, add(CFA_XSP16, literal(-6)))
          CFI (cfiCond74) ?RET_LOW load(1, XDATA, add(CFA_XSP16, literal(-5)))
          CFI (cfiCond74) ?RET_HIGH load(1, XDATA, add(CFA_XSP16, literal(-4)))
          CFI (cfiCond74) ?BRET_EXT load(1, XDATA, add(CFA_XSP16, literal(-3)))
          CFI (cfiCond74) DPL0 load(1, XDATA, add(CFA_XSP16, literal(-2)))
          CFI (cfiCond74) DPH0 load(1, XDATA, add(CFA_XSP16, literal(-1)))
          CFI (cfiCond74) CFA_SP SP+-2
          CFI (cfiCond74) CFA_XSP16 add(XSP16, 25)
          CFI Block cfiCond75 Using cfiCommon0
          CFI (cfiCond75) Function zclMultiSensor_CheckAndSendClusterAttrReport
          CFI (cfiCond75) Conditional ??CrossCallReturnLabel_59
          CFI (cfiCond75) R6 load(1, XDATA, add(CFA_XSP16, literal(-24)))
          CFI (cfiCond75) VB load(1, XDATA, add(CFA_XSP16, literal(-23)))
          CFI (cfiCond75) V0 load(1, XDATA, add(CFA_XSP16, literal(-22)))
          CFI (cfiCond75) V1 load(1, XDATA, add(CFA_XSP16, literal(-21)))
          CFI (cfiCond75) V2 load(1, XDATA, add(CFA_XSP16, literal(-20)))
          CFI (cfiCond75) V3 load(1, XDATA, add(CFA_XSP16, literal(-19)))
          CFI (cfiCond75) V4 load(1, XDATA, add(CFA_XSP16, literal(-18)))
          CFI (cfiCond75) V5 load(1, XDATA, add(CFA_XSP16, literal(-17)))
          CFI (cfiCond75) V6 load(1, XDATA, add(CFA_XSP16, literal(-16)))
          CFI (cfiCond75) V7 load(1, XDATA, add(CFA_XSP16, literal(-15)))
          CFI (cfiCond75) V8 load(1, XDATA, add(CFA_XSP16, literal(-14)))
          CFI (cfiCond75) V9 load(1, XDATA, add(CFA_XSP16, literal(-13)))
          CFI (cfiCond75) V10 load(1, XDATA, add(CFA_XSP16, literal(-12)))
          CFI (cfiCond75) V11 load(1, XDATA, add(CFA_XSP16, literal(-11)))
          CFI (cfiCond75) V12 load(1, XDATA, add(CFA_XSP16, literal(-10)))
          CFI (cfiCond75) V13 load(1, XDATA, add(CFA_XSP16, literal(-9)))
          CFI (cfiCond75) V14 load(1, XDATA, add(CFA_XSP16, literal(-8)))
          CFI (cfiCond75) V15 load(1, XDATA, add(CFA_XSP16, literal(-7)))
          CFI (cfiCond75) R7 load(1, XDATA, add(CFA_XSP16, literal(-6)))
          CFI (cfiCond75) ?RET_LOW load(1, XDATA, add(CFA_XSP16, literal(-5)))
          CFI (cfiCond75) ?RET_HIGH load(1, XDATA, add(CFA_XSP16, literal(-4)))
          CFI (cfiCond75) ?BRET_EXT load(1, XDATA, add(CFA_XSP16, literal(-3)))
          CFI (cfiCond75) DPL0 load(1, XDATA, add(CFA_XSP16, literal(-2)))
          CFI (cfiCond75) DPH0 load(1, XDATA, add(CFA_XSP16, literal(-1)))
          CFI (cfiCond75) CFA_SP SP+-2
          CFI (cfiCond75) CFA_XSP16 add(XSP16, 34)
          CFI Block cfiCond76 Using cfiCommon0
          CFI (cfiCond76) Function zclMultiSensor_CheckAndSendClusterAttrReport
          CFI (cfiCond76) Conditional ??CrossCallReturnLabel_60
          CFI (cfiCond76) R6 load(1, XDATA, add(CFA_XSP16, literal(-24)))
          CFI (cfiCond76) VB load(1, XDATA, add(CFA_XSP16, literal(-23)))
          CFI (cfiCond76) V0 load(1, XDATA, add(CFA_XSP16, literal(-22)))
          CFI (cfiCond76) V1 load(1, XDATA, add(CFA_XSP16, literal(-21)))
          CFI (cfiCond76) V2 load(1, XDATA, add(CFA_XSP16, literal(-20)))
          CFI (cfiCond76) V3 load(1, XDATA, add(CFA_XSP16, literal(-19)))
          CFI (cfiCond76) V4 load(1, XDATA, add(CFA_XSP16, literal(-18)))
          CFI (cfiCond76) V5 load(1, XDATA, add(CFA_XSP16, literal(-17)))
          CFI (cfiCond76) V6 load(1, XDATA, add(CFA_XSP16, literal(-16)))
          CFI (cfiCond76) V7 load(1, XDATA, add(CFA_XSP16, literal(-15)))
          CFI (cfiCond76) V8 load(1, XDATA, add(CFA_XSP16, literal(-14)))
          CFI (cfiCond76) V9 load(1, XDATA, add(CFA_XSP16, literal(-13)))
          CFI (cfiCond76) V10 load(1, XDATA, add(CFA_XSP16, literal(-12)))
          CFI (cfiCond76) V11 load(1, XDATA, add(CFA_XSP16, literal(-11)))
          CFI (cfiCond76) V12 load(1, XDATA, add(CFA_XSP16, literal(-10)))
          CFI (cfiCond76) V13 load(1, XDATA, add(CFA_XSP16, literal(-9)))
          CFI (cfiCond76) V14 load(1, XDATA, add(CFA_XSP16, literal(-8)))
          CFI (cfiCond76) V15 load(1, XDATA, add(CFA_XSP16, literal(-7)))
          CFI (cfiCond76) R7 load(1, XDATA, add(CFA_XSP16, literal(-6)))
          CFI (cfiCond76) ?RET_LOW load(1, XDATA, add(CFA_XSP16, literal(-5)))
          CFI (cfiCond76) ?RET_HIGH load(1, XDATA, add(CFA_XSP16, literal(-4)))
          CFI (cfiCond76) ?BRET_EXT load(1, XDATA, add(CFA_XSP16, literal(-3)))
          CFI (cfiCond76) DPL0 load(1, XDATA, add(CFA_XSP16, literal(-2)))
          CFI (cfiCond76) DPH0 load(1, XDATA, add(CFA_XSP16, literal(-1)))
          CFI (cfiCond76) CFA_SP SP+-2
          CFI (cfiCond76) CFA_XSP16 add(XSP16, 34)
          CFI Block cfiCond77 Using cfiCommon0
          CFI (cfiCond77) Function zclMultiSensor_CheckAndSendClusterAttrReport
          CFI (cfiCond77) Conditional ??CrossCallReturnLabel_61
          CFI (cfiCond77) R6 load(1, XDATA, add(CFA_XSP16, literal(-24)))
          CFI (cfiCond77) VB load(1, XDATA, add(CFA_XSP16, literal(-23)))
          CFI (cfiCond77) V0 load(1, XDATA, add(CFA_XSP16, literal(-22)))
          CFI (cfiCond77) V1 load(1, XDATA, add(CFA_XSP16, literal(-21)))
          CFI (cfiCond77) V2 load(1, XDATA, add(CFA_XSP16, literal(-20)))
          CFI (cfiCond77) V3 load(1, XDATA, add(CFA_XSP16, literal(-19)))
          CFI (cfiCond77) V4 load(1, XDATA, add(CFA_XSP16, literal(-18)))
          CFI (cfiCond77) V5 load(1, XDATA, add(CFA_XSP16, literal(-17)))
          CFI (cfiCond77) V6 load(1, XDATA, add(CFA_XSP16, literal(-16)))
          CFI (cfiCond77) V7 load(1, XDATA, add(CFA_XSP16, literal(-15)))
          CFI (cfiCond77) V8 load(1, XDATA, add(CFA_XSP16, literal(-14)))
          CFI (cfiCond77) V9 load(1, XDATA, add(CFA_XSP16, literal(-13)))
          CFI (cfiCond77) V10 load(1, XDATA, add(CFA_XSP16, literal(-12)))
          CFI (cfiCond77) V11 load(1, XDATA, add(CFA_XSP16, literal(-11)))
          CFI (cfiCond77) V12 load(1, XDATA, add(CFA_XSP16, literal(-10)))
          CFI (cfiCond77) V13 load(1, XDATA, add(CFA_XSP16, literal(-9)))
          CFI (cfiCond77) V14 load(1, XDATA, add(CFA_XSP16, literal(-8)))
          CFI (cfiCond77) V15 load(1, XDATA, add(CFA_XSP16, literal(-7)))
          CFI (cfiCond77) R7 load(1, XDATA, add(CFA_XSP16, literal(-6)))
          CFI (cfiCond77) ?RET_LOW load(1, XDATA, add(CFA_XSP16, literal(-5)))
          CFI (cfiCond77) ?RET_HIGH load(1, XDATA, add(CFA_XSP16, literal(-4)))
          CFI (cfiCond77) ?BRET_EXT load(1, XDATA, add(CFA_XSP16, literal(-3)))
          CFI (cfiCond77) DPL0 load(1, XDATA, add(CFA_XSP16, literal(-2)))
          CFI (cfiCond77) DPH0 load(1, XDATA, add(CFA_XSP16, literal(-1)))
          CFI (cfiCond77) CFA_SP SP+-2
          CFI (cfiCond77) CFA_XSP16 add(XSP16, 34)
          CFI Block cfiCond78 Using cfiCommon0
          CFI (cfiCond78) Function zclMultiSensor_ProcessInConfigReportCmd
          CFI (cfiCond78) Conditional ??CrossCallReturnLabel_62
          CFI (cfiCond78) R6 load(1, XDATA, add(CFA_XSP16, literal(-24)))
          CFI (cfiCond78) VB load(1, XDATA, add(CFA_XSP16, literal(-23)))
          CFI (cfiCond78) V0 load(1, XDATA, add(CFA_XSP16, literal(-22)))
          CFI (cfiCond78) V1 load(1, XDATA, add(CFA_XSP16, literal(-21)))
          CFI (cfiCond78) V2 load(1, XDATA, add(CFA_XSP16, literal(-20)))
          CFI (cfiCond78) V3 load(1, XDATA, add(CFA_XSP16, literal(-19)))
          CFI (cfiCond78) V4 load(1, XDATA, add(CFA_XSP16, literal(-18)))
          CFI (cfiCond78) V5 load(1, XDATA, add(CFA_XSP16, literal(-17)))
          CFI (cfiCond78) V6 load(1, XDATA, add(CFA_XSP16, literal(-16)))
          CFI (cfiCond78) V7 load(1, XDATA, add(CFA_XSP16, literal(-15)))
          CFI (cfiCond78) V8 load(1, XDATA, add(CFA_XSP16, literal(-14)))
          CFI (cfiCond78) V9 load(1, XDATA, add(CFA_XSP16, literal(-13)))
          CFI (cfiCond78) V10 load(1, XDATA, add(CFA_XSP16, literal(-12)))
          CFI (cfiCond78) V11 load(1, XDATA, add(CFA_XSP16, literal(-11)))
          CFI (cfiCond78) V12 load(1, XDATA, add(CFA_XSP16, literal(-10)))
          CFI (cfiCond78) V13 load(1, XDATA, add(CFA_XSP16, literal(-9)))
          CFI (cfiCond78) V14 load(1, XDATA, add(CFA_XSP16, literal(-8)))
          CFI (cfiCond78) V15 load(1, XDATA, add(CFA_XSP16, literal(-7)))
          CFI (cfiCond78) R7 load(1, XDATA, add(CFA_XSP16, literal(-6)))
          CFI (cfiCond78) ?RET_LOW load(1, XDATA, add(CFA_XSP16, literal(-5)))
          CFI (cfiCond78) ?RET_HIGH load(1, XDATA, add(CFA_XSP16, literal(-4)))
          CFI (cfiCond78) ?BRET_EXT load(1, XDATA, add(CFA_XSP16, literal(-3)))
          CFI (cfiCond78) DPL0 load(1, XDATA, add(CFA_XSP16, literal(-2)))
          CFI (cfiCond78) DPH0 load(1, XDATA, add(CFA_XSP16, literal(-1)))
          CFI (cfiCond78) CFA_SP SP+-2
          CFI (cfiCond78) CFA_XSP16 add(XSP16, 36)
          CFI Block cfiCond79 Using cfiCommon0
          CFI (cfiCond79) Function zclMultiSensor_CheckReportConfig
          CFI (cfiCond79) Conditional ??CrossCallReturnLabel_63
          CFI (cfiCond79) R6 load(1, XDATA, add(CFA_XSP16, literal(-17)))
