///////////////////////////////////////////////////////////////////////////////
//
// IAR C/C++ Compiler V10.20.1.5333 for 8051              28/Jul/2020  15:39:11
// Copyright 2004-2018 IAR Systems AB.
// PC-locked license - IAR Embedded Workbench for 8051
//
//    Core               =  plain
//    Code model         =  banked
//    Data model         =  large
//    Calling convention =  xdata reentrant
//    Constant location  =  data_rom
//    Dptr setup         =  1,16
//                          
//    Source file        =  
//        C:\Users\TS-577\Desktop\Zigbee
//        workspace\MultiSensorDevice\Projects\zstack\HomeAutomation\MultiSensor\Source\zcl_MultiSensor.c
//    Command line       =  
//        -f C:\Users\TS-577\AppData\Local\Temp\EW372F.tmp
//        ("C:\Users\TS-577\Desktop\Zigbee
//        workspace\MultiSensorDevice\Projects\zstack\HomeAutomation\MultiSensor\Source\zcl_MultiSensor.c"
//        -D xBDB_REPORTING -D SECURE=1 -D TC_LINKKEY_JOIN -D NV_INIT -D
//        NV_RESTORE -D xPOWER_SAVING -D NWK_AUTO_POLL -D ZTOOL_P1 -D xMT_TASK
//        -D xMT_APP_FUNC -D xMT_SYS_FUNC -D xMT_ZDO_FUNC -D xMT_APP_CNF_FUNC
//        -D MULTICAST_ENABLED=FALSE -D ZCL_READ -D ZCL_DISCOVER -D ZCL_WRITE
//        -D ZCL_BASIC -D ZCL_IDENTIFY -D ZCL_GROUPS -D ZCL_REPORT -D
//        ZCL_REPORTING_DEVICE -lC "C:\Users\TS-577\Desktop\Zigbee
//        workspace\MultiSensorDevice\Projects\zstack\HomeAutomation\MultiSensor\CC2530DB\EndDeviceEB\List"
//        -lA "C:\Users\TS-577\Desktop\Zigbee
//        workspace\MultiSensorDevice\Projects\zstack\HomeAutomation\MultiSensor\CC2530DB\EndDeviceEB\List"
//        --diag_suppress Pe001,Pa010 -o "C:\Users\TS-577\Desktop\Zigbee
//        workspace\MultiSensorDevice\Projects\zstack\HomeAutomation\MultiSensor\CC2530DB\EndDeviceEB\Obj"
//        -e --debug --core=plain --dptr=16,1 --data_model=large
//        --code_model=banked --calling_convention=xdata_reentrant
//        --place_constants=data_rom --nr_virtual_regs 16 -f
//        "C:\Users\TS-577\Desktop\Zigbee
//        workspace\MultiSensorDevice\Projects\zstack\HomeAutomation\MultiSensor\CC2530DB\..\..\..\Tools\CC2530DB\f8wEndev.cfg"
//        (-DCPU32MHZ -DROOT=__near_func -DMAC_CFG_TX_DATA_MAX=3
//        -DMAC_CFG_TX_MAX=6 -DMAC_CFG_RX_MAX=3) -f
//        "C:\Users\TS-577\Desktop\Zigbee
//        workspace\MultiSensorDevice\Projects\zstack\HomeAutomation\MultiSensor\CC2530DB\..\..\..\Tools\CC2530DB\f8wConfig.cfg"
//        (-DZIGBEEPRO -DSECURE=1 -DZG_SECURE_DYNAMIC=0 -DREFLECTOR
//        -DDEFAULT_CHANLIST=0x00002000 -DZDAPP_CONFIG_PAN_ID=0xFFFF
//        -DNWK_START_DELAY=100 -DEXTENDED_JOINING_RANDOM_MASK=0x007F
//        -DBEACON_REQUEST_DELAY=100 -DBEACON_REQ_DELAY_MASK=0x00FF
//        -DLINK_STATUS_JITTER_MASK=0x007F -DROUTE_EXPIRY_TIME=30
//        -DAPSC_ACK_WAIT_DURATION_POLLED=3000 -DNWK_INDIRECT_MSG_TIMEOUT=7
//        -DMAX_RREQ_ENTRIES=8 -DAPSC_MAX_FRAME_RETRIES=3
//        -DNWK_MAX_DATA_RETRIES=2 -DMAX_POLL_FAILURE_RETRIES=2 -DMAX_BCAST=9
//        -DAPS_MAX_GROUPS=16 -DMAX_RTG_ENTRIES=40 -DNWK_MAX_BINDING_ENTRIES=4
//        -DMAX_BINDING_CLUSTER_IDS=4 -DDEFAULT_KEY={0}
//        -DMAC_MAX_FRAME_SIZE=116 -DZDNWKMGR_MIN_TRANSMISSIONS=20
//        "-DCONST=const __code" -DGENERIC=__generic -DRFD_RCVC_ALWAYS_ON=TRUE
//        -DPOLL_RATE=1000 -DQUEUED_POLL_RATE=100 -DRESPONSE_POLL_RATE=100
//        -DREJOIN_POLL_RATE=440 -DREJOIN_BACKOFF=900000 -DREJOIN_SCAN=900000)
//        -f "C:\Users\TS-577\Desktop\Zigbee
//        workspace\MultiSensorDevice\Projects\zstack\HomeAutomation\MultiSensor\CC2530DB\..\..\..\Tools\CC2530DB\f8wZCL.cfg"
//        -I "C:\Users\TS-577\Desktop\Zigbee
//        workspace\MultiSensorDevice\Projects\zstack\HomeAutomation\MultiSensor\CC2530DB\"
//        -I "C:\Users\TS-577\Desktop\Zigbee
//        workspace\MultiSensorDevice\Projects\zstack\HomeAutomation\MultiSensor\CC2530DB\..\Source\"
//        -I "C:\Users\TS-577\Desktop\Zigbee
//        workspace\MultiSensorDevice\Projects\zstack\HomeAutomation\MultiSensor\CC2530DB\..\..\Source\"
//        -I "C:\Users\TS-577\Desktop\Zigbee
//        workspace\MultiSensorDevice\Projects\zstack\HomeAutomation\MultiSensor\CC2530DB\..\..\..\ZMain\TI2530DB\"
//        -I "C:\Users\TS-577\Desktop\Zigbee
//        workspace\MultiSensorDevice\Projects\zstack\HomeAutomation\MultiSensor\CC2530DB\..\..\..\..\..\Components\hal\include\"
//        -I "C:\Users\TS-577\Desktop\Zigbee
//        workspace\MultiSensorDevice\Projects\zstack\HomeAutomation\MultiSensor\CC2530DB\..\..\..\..\..\Components\hal\target\CC2530EB\"
//        -I "C:\Users\TS-577\Desktop\Zigbee
//        workspace\MultiSensorDevice\Projects\zstack\HomeAutomation\MultiSensor\CC2530DB\..\..\..\..\..\Components\mac\include\"
//        -I "C:\Users\TS-577\Desktop\Zigbee
//        workspace\MultiSensorDevice\Projects\zstack\HomeAutomation\MultiSensor\CC2530DB\..\..\..\..\..\Components\mac\high_level\"
//        -I "C:\Users\TS-577\Desktop\Zigbee
//        workspace\MultiSensorDevice\Projects\zstack\HomeAutomation\MultiSensor\CC2530DB\..\..\..\..\..\Components\mac\low_level\srf04\"
//        -I "C:\Users\TS-577\Desktop\Zigbee
//        workspace\MultiSensorDevice\Projects\zstack\HomeAutomation\MultiSensor\CC2530DB\..\..\..\..\..\Components\mac\low_level\srf04\single_chip\"
//        -I "C:\Users\TS-577\Desktop\Zigbee
//        workspace\MultiSensorDevice\Projects\zstack\HomeAutomation\MultiSensor\CC2530DB\..\..\..\..\..\Components\mt\"
//        -I "C:\Users\TS-577\Desktop\Zigbee
//        workspace\MultiSensorDevice\Projects\zstack\HomeAutomation\MultiSensor\CC2530DB\..\..\..\..\..\Components\osal\include\"
//        -I "C:\Users\TS-577\Desktop\Zigbee
//        workspace\MultiSensorDevice\Projects\zstack\HomeAutomation\MultiSensor\CC2530DB\..\..\..\..\..\Components\services\saddr\"
//        -I "C:\Users\TS-577\Desktop\Zigbee
//        workspace\MultiSensorDevice\Projects\zstack\HomeAutomation\MultiSensor\CC2530DB\..\..\..\..\..\Components\services\sdata\"
//        -I "C:\Users\TS-577\Desktop\Zigbee
//        workspace\MultiSensorDevice\Projects\zstack\HomeAutomation\MultiSensor\CC2530DB\..\..\..\..\..\Components\stack\af\"
//        -I "C:\Users\TS-577\Desktop\Zigbee
//        workspace\MultiSensorDevice\Projects\zstack\HomeAutomation\MultiSensor\CC2530DB\..\..\..\..\..\Components\stack\bdb\"
//        -I "C:\Users\TS-577\Desktop\Zigbee
//        workspace\MultiSensorDevice\Projects\zstack\HomeAutomation\MultiSensor\CC2530DB\..\..\..\..\..\Components\stack\gp\"
//        -I "C:\Users\TS-577\Desktop\Zigbee
//        workspace\MultiSensorDevice\Projects\zstack\HomeAutomation\MultiSensor\CC2530DB\..\..\..\..\..\Components\stack\nwk\"
//        -I "C:\Users\TS-577\Desktop\Zigbee
//        workspace\MultiSensorDevice\Projects\zstack\HomeAutomation\MultiSensor\CC2530DB\..\..\..\..\..\Components\stack\sapi\"
//        -I "C:\Users\TS-577\Desktop\Zigbee
//        workspace\MultiSensorDevice\Projects\zstack\HomeAutomation\MultiSensor\CC2530DB\..\..\..\..\..\Components\stack\sec\"
//        -I "C:\Users\TS-577\Desktop\Zigbee
//        workspace\MultiSensorDevice\Projects\zstack\HomeAutomation\MultiSensor\CC2530DB\..\..\..\..\..\Components\stack\sys\"
//        -I "C:\Users\TS-577\Desktop\Zigbee
//        workspace\MultiSensorDevice\Projects\zstack\HomeAutomation\MultiSensor\CC2530DB\..\..\..\..\..\Components\stack\zcl\"
//        -I "C:\Users\TS-577\Desktop\Zigbee
//        workspace\MultiSensorDevice\Projects\zstack\HomeAutomation\MultiSensor\CC2530DB\..\..\..\..\..\Components\stack\zdo\"
//        -I "C:\Users\TS-577\Desktop\Zigbee
//        workspace\MultiSensorDevice\Projects\zstack\HomeAutomation\MultiSensor\CC2530DB\..\..\..\..\..\Components\zmac\"
//        -I "C:\Users\TS-577\Desktop\Zigbee
//        workspace\MultiSensorDevice\Projects\zstack\HomeAutomation\MultiSensor\CC2530DB\..\..\..\..\..\Components\zmac\f8w\"
//        -Ohz --require_prototypes)
//    Locale             =  Japanese_JPN.932
//    List file          =  
//        C:\Users\TS-577\Desktop\Zigbee
//        workspace\MultiSensorDevice\Projects\zstack\HomeAutomation\MultiSensor\CC2530DB\EndDeviceEB\List\zcl_MultiSensor.s51
//
///////////////////////////////////////////////////////////////////////////////

        NAME zcl_MultiSensor

        RTMODEL "__SystemLibrary", "CLib"
        RTMODEL "__calling_convention", "xdata_reentrant"
        RTMODEL "__code_model", "banked"
        RTMODEL "__core", "plain"
        RTMODEL "__data_model", "large"
        RTMODEL "__dptr_size", "16"
        RTMODEL "__extended_stack", "disabled"
        RTMODEL "__location_for_constants", "data"
        RTMODEL "__number_of_dptrs", "1"
        RTMODEL "__register_banks", "*"
        RTMODEL "__rt_version", "1"

        RSEG DOVERLAY:DATA:NOROOT(0)
        RSEG IOVERLAY:IDATA:NOROOT(0)
        RSEG ISTACK:IDATA:NOROOT(0)
        RSEG PSTACK:XDATA:NOROOT(0)
        RSEG XSTACK:XDATA:NOROOT(0)

        EXTERN ?V0
        EXTERN ?V1
        EXTERN ?V2
        EXTERN ?V3
        EXTERN ?V4
        EXTERN ?V5
        EXTERN ?V6
        EXTERN ?V7
        EXTERN ?V8
        EXTERN ?V9
        EXTERN ?V10
        EXTERN ?V11
        EXTERN ?V12
        EXTERN ?V13
        EXTERN ?V14
        EXTERN ?V15
        EXTERN ?ALLOC_XSTACK8
        EXTERN ?BANKED_ENTER_XDATA
        EXTERN ?BANKED_LEAVE_XDATA
        EXTERN ?BDISPATCH
        EXTERN ?BRET
        EXTERN ?DEALLOC_XSTACK8
        EXTERN ?MOVE_LONG8_XDATA_XDATA
        EXTERN ?PUSH_XSTACK8_X_FOUR
        EXTERN ?PUSH_XSTACK_I_ONE
        EXTERN ?PUSH_XSTACK_I_TWO
        EXTERN ?S_SHL
        EXTERN ?US_SWITCH_SPARSE
        EXTERN ?VB
        EXTERN ?XSP
        EXTERN ?XSTACK_DISP0_8
        EXTERN ?XSTACK_DISP100_8
        EXTERN ?XSTACK_DISP101_8
        EXTERN ?XSTACK_DISP102_8
        EXTERN __INIT_XDATA_I
        EXTERN __INIT_XDATA_Z

        FUNCTION `??SendZclAttrReport::?relay`,0203H
        FUNCTION `??sendZclAttrChangeReport::?relay`,0203H
        PUBLIC `??uartEventApplicationCB::?relay`
        FUNCTION `??uartEventApplicationCB::?relay`,0203H
        FUNCTION `??zclMultiSensor_BasicResetCB::?relay`,0203H
        FUNCTION `??zclMultiSensor_BatteryWarningCB::?relay`,0203H
        FUNCTION `??zclMultiSensor_CheckAndSendClusterAttrReport:`,0203H
        FUNCTION `??zclMultiSensor_CheckReportConfig::?relay`,0203H
        PUBLIC `??zclMultiSensor_Init::?relay`
        FUNCTION `??zclMultiSensor_Init::?relay`,0203H
        FUNCTION `??zclMultiSensor_ProcessCommissioningStatus::?r`,0203H
        FUNCTION `??zclMultiSensor_ProcessInConfigReportCmd::?rel`,0203H
        FUNCTION `??zclMultiSensor_ProcessInReadReportCfgCmd::?re`,0203H
        FUNCTION `??zclMultiSensor_ProcessIncomingMsg::?relay`,0203H
        PUBLIC `??zclMultiSensor_event_loop::?relay`
        FUNCTION `??zclMultiSensor_event_loop::?relay`,0203H
        FUNCTION SendZclAttrReport,0a1203H
        ARGFRAME XSTACK, 35, STACK
        ARGFRAME IOVERLAY, 0, STATIC
        ARGFRAME DOVERLAY, 0, STATIC
        LOCFRAME ISTACK, 1, STACK
        LOCFRAME XSTACK, 14, STACK
        PUBWEAK __Constant_3e8
        PUBLIC gTimeCounter
        PUBLIC holdKeyCounter
        FUNCTION sendZclAttrChangeReport,0a1203H
        ARGFRAME XSTACK, 27, STACK
        ARGFRAME IOVERLAY, 0, STATIC
        ARGFRAME DOVERLAY, 0, STATIC
        LOCFRAME ISTACK, 1, STACK
        LOCFRAME XSTACK, 26, STACK
        PUBLIC signTempFlag
        PUBLIC uartEventApplicationCB
        FUNCTION uartEventApplicationCB,0a1603H
        ARGFRAME XSTACK, 0, STACK
        LOCFRAME XSTACK, 27, STACK
        PUBLIC uartFlag
        FUNCTION zclMultiSensor_BasicResetCB,021603H
        ARGFRAME XSTACK, 0, STACK
        LOCFRAME ISTACK, 2, STACK
        FUNCTION zclMultiSensor_BatteryWarningCB,0603H
        ARGFRAME XSTACK, 0, STACK
        FUNCTION zclMultiSensor_CheckAndSendClusterAttrReport,0a1203H
        ARGFRAME XSTACK, 17, STACK
        ARGFRAME IOVERLAY, 0, STATIC
        ARGFRAME DOVERLAY, 0, STATIC
        LOCFRAME ISTACK, 1, STACK
        LOCFRAME XSTACK, 36, STACK
        FUNCTION zclMultiSensor_CheckReportConfig,0a1203H
        ARGFRAME XSTACK, 36, STACK
        ARGFRAME IOVERLAY, 0, STATIC
        ARGFRAME DOVERLAY, 0, STATIC
        LOCFRAME XSTACK, 21, STACK
        PUBLIC zclMultiSensor_Init
        FUNCTION zclMultiSensor_Init,021203H
        ARGFRAME XSTACK, 0, STACK
        LOCFRAME XSTACK, 38, STACK
        FUNCTION zclMultiSensor_ProcessCommissioningStatus,021603H
        ARGFRAME XSTACK, 0, STACK
        LOCFRAME ISTACK, 2, STACK
        LOCFRAME XSTACK, 4, STACK
        FUNCTION zclMultiSensor_ProcessInConfigReportCmd,0a1203H
        ARGFRAME XSTACK, 24, STACK
        ARGFRAME IOVERLAY, 0, STATIC
        ARGFRAME DOVERLAY, 0, STATIC
        LOCFRAME ISTACK, 1, STACK
        LOCFRAME XSTACK, 41, STACK
        FUNCTION zclMultiSensor_ProcessInReadReportCfgCmd,0a1203H
        ARGFRAME XSTACK, 24, STACK
        ARGFRAME IOVERLAY, 0, STATIC
        ARGFRAME DOVERLAY, 0, STATIC
        LOCFRAME ISTACK, 1, STACK
        LOCFRAME XSTACK, 39, STACK
        FUNCTION zclMultiSensor_ProcessIncomingMsg,0a1203H
        ARGFRAME XSTACK, 17, STACK
        ARGFRAME IOVERLAY, 0, STATIC
        ARGFRAME DOVERLAY, 0, STATIC
        LOCFRAME XSTACK, 29, STACK
        PUBLIC zclMultiSensor_TaskID
        PUBLIC zclMultiSensor_dstAddr
        PUBLIC zclMultiSensor_event_loop
        FUNCTION zclMultiSensor_event_loop,0a1203H
        ARGFRAME XSTACK, 0, STACK
        LOCFRAME XSTACK, 21, STACK
        
          CFI Names cfiNames0
          CFI StackFrame CFA_SP SP IDATA
          CFI StackFrame CFA_PSP16 PSP16 XDATA
          CFI StackFrame CFA_XSP16 XSP16 XDATA
          CFI StaticOverlayFrame CFA_IOVERLAY IOVERLAY
          CFI StaticOverlayFrame CFA_DOVERLAY DOVERLAY
          CFI Resource `PSW.CY`:1, `B.BR0`:1, `B.BR1`:1, `B.BR2`:1, `B.BR3`:1
          CFI Resource `B.BR4`:1, `B.BR5`:1, `B.BR6`:1, `B.BR7`:1, `VB.BR8`:1
          CFI Resource `VB.BR9`:1, `VB.BR10`:1, `VB.BR11`:1, `VB.BR12`:1
          CFI Resource `VB.BR13`:1, `VB.BR14`:1, `VB.BR15`:1, VB:8, B:8, A:8
          CFI Resource PSW:8, DPL0:8, DPH0:8, R0:8, R1:8, R2:8, R3:8, R4:8, R5:8
          CFI Resource R6:8, R7:8, V0:8, V1:8, V2:8, V3:8, V4:8, V5:8, V6:8, V7:8
          CFI Resource V8:8, V9:8, V10:8, V11:8, V12:8, V13:8, V14:8, V15:8, SP:8
          CFI Resource PSPH:8, PSPL:8, PSP16:16, XSPH:8, XSPL:8, XSP16:16
          CFI VirtualResource ?RET:24
          CFI Resource ?BRET_EXT:8
          CFI VirtualResource ?RET_HIGH:8, ?RET_LOW:8
          CFI ResourceParts PSP16 PSPH, PSPL
          CFI ResourceParts XSP16 XSPH, XSPL
          CFI ResourceParts ?RET ?BRET_EXT, ?RET_HIGH, ?RET_LOW
          CFI EndNames cfiNames0
        
          CFI Common cfiCommon0 Using cfiNames0
          CFI CodeAlign 1
          CFI DataAlign -1
          CFI ReturnAddress ?RET CODE
          CFI CFA_DOVERLAY Used
          CFI CFA_IOVERLAY Used
          CFI CFA_SP SP+-3
          CFI CFA_PSP16 PSP16+0
          CFI CFA_XSP16 XSP16+0
          CFI `PSW.CY` SameValue
          CFI `B.BR0` SameValue
          CFI `B.BR1` SameValue
          CFI `B.BR2` SameValue
          CFI `B.BR3` SameValue
          CFI `B.BR4` SameValue
          CFI `B.BR5` SameValue
          CFI `B.BR6` SameValue
          CFI `B.BR7` SameValue
          CFI `VB.BR8` SameValue
          CFI `VB.BR9` SameValue
          CFI `VB.BR10` SameValue
          CFI `VB.BR11` SameValue
          CFI `VB.BR12` SameValue
          CFI `VB.BR13` SameValue
          CFI `VB.BR14` SameValue
          CFI `VB.BR15` SameValue
          CFI VB SameValue
          CFI B Undefined
          CFI A Undefined
          CFI PSW SameValue
          CFI DPL0 SameValue
          CFI DPH0 SameValue
          CFI R0 Undefined
          CFI R1 Undefined
          CFI R2 Undefined
          CFI R3 Undefined
          CFI R4 Undefined
          CFI R5 Undefined
          CFI R6 SameValue
          CFI R7 SameValue
          CFI V0 SameValue
          CFI V1 SameValue
          CFI V2 SameValue
          CFI V3 SameValue
          CFI V4 SameValue
          CFI V5 SameValue
          CFI V6 SameValue
          CFI V7 SameValue
          CFI V8 SameValue
          CFI V9 SameValue
          CFI V10 SameValue
          CFI V11 SameValue
          CFI V12 SameValue
          CFI V13 SameValue
          CFI V14 SameValue
          CFI V15 SameValue
          CFI PSPH Undefined
          CFI PSPL Undefined
          CFI XSPH Undefined
          CFI XSPL Undefined
          CFI ?RET Concat
          CFI ?BRET_EXT Frame(CFA_SP, 3)
          CFI ?RET_HIGH Frame(CFA_SP, 2)
          CFI ?RET_LOW Frame(CFA_SP, 1)
          CFI EndCommon cfiCommon0
        
        
          CFI Common cfiCommon1 Using cfiNames0
          CFI CodeAlign 1
          CFI DataAlign -1
          CFI ReturnAddress ?RET CODE
          CFI CFA_DOVERLAY Used
          CFI CFA_IOVERLAY Used
          CFI CFA_SP SP+-2
          CFI CFA_PSP16 PSP16+0
          CFI CFA_XSP16 XSP16+0
          CFI `PSW.CY` SameValue
          CFI `B.BR0` SameValue
          CFI `B.BR1` SameValue
          CFI `B.BR2` SameValue
          CFI `B.BR3` SameValue
          CFI `B.BR4` SameValue
          CFI `B.BR5` SameValue
          CFI `B.BR6` SameValue
          CFI `B.BR7` SameValue
          CFI `VB.BR8` SameValue
          CFI `VB.BR9` SameValue
          CFI `VB.BR10` SameValue
          CFI `VB.BR11` SameValue
          CFI `VB.BR12` SameValue
          CFI `VB.BR13` SameValue
          CFI `VB.BR14` SameValue
          CFI `VB.BR15` SameValue
          CFI VB SameValue
          CFI B SameValue
          CFI A SameValue
          CFI PSW SameValue
          CFI DPL0 SameValue
          CFI DPH0 SameValue
          CFI R0 SameValue
          CFI R1 SameValue
          CFI R2 SameValue
          CFI R3 SameValue
          CFI R4 SameValue
          CFI R5 SameValue
          CFI R6 SameValue
          CFI R7 SameValue
          CFI V0 SameValue
          CFI V1 SameValue
          CFI V2 SameValue
          CFI V3 SameValue
          CFI V4 SameValue
          CFI V5 SameValue
          CFI V6 SameValue
          CFI V7 SameValue
          CFI V8 SameValue
          CFI V9 SameValue
          CFI V10 SameValue
          CFI V11 SameValue
          CFI V12 SameValue
          CFI V13 SameValue
          CFI V14 SameValue
          CFI V15 SameValue
          CFI PSPH Undefined
          CFI PSPL Undefined
          CFI XSPH Undefined
          CFI XSPL Undefined
          CFI ?RET Concat
          CFI ?BRET_EXT SameValue
          CFI ?RET_HIGH Frame(CFA_SP, 2)
          CFI ?RET_LOW Frame(CFA_SP, 1)
          CFI EndCommon cfiCommon1
        
HalKeyRead          SYMBOL "HalKeyRead"
`??HalKeyRead::?relay` SYMBOL "?relay", HalKeyRead
HalLedBlink         SYMBOL "HalLedBlink"
`??HalLedBlink::?relay` SYMBOL "?relay", HalLedBlink
HalUARTOpen         SYMBOL "HalUARTOpen"
`??HalUARTOpen::?relay` SYMBOL "?relay", HalUARTOpen
HalUARTRead         SYMBOL "HalUARTRead"
`??HalUARTRead::?relay` SYMBOL "?relay", HalUARTRead
Hal_UART_RxBufLen   SYMBOL "Hal_UART_RxBufLen"
`??Hal_UART_RxBufLen::?relay` SYMBOL "?relay", Hal_UART_RxBufLen
NLME_LeaveReq       SYMBOL "NLME_LeaveReq"
`??NLME_LeaveReq::?relay` SYMBOL "?relay", NLME_LeaveReq
RegisterForKeys     SYMBOL "RegisterForKeys"
`??RegisterForKeys::?relay` SYMBOL "?relay", RegisterForKeys
RegisterVoltageWarningCB SYMBOL "RegisterVoltageWarningCB"
`??RegisterVoltageWarningCB::?relay` SYMBOL "?relay", RegisterVoltageWarningCB
afRegister          SYMBOL "afRegister"
`??afRegister::?relay` SYMBOL "?relay", afRegister
bdb_RegisterCommissioningStatusCB SYMBOL "bdb_RegisterCommissioningStatusCB"
`??bdb_RegisterCommissioningStatusCB::?relay` SYMBOL "?relay", bdb_RegisterCommissioningStatusCB
bdb_RegisterSimpleDescriptor SYMBOL "bdb_RegisterSimpleDescriptor"
`??bdb_RegisterSimpleDescriptor::?relay` SYMBOL "?relay", bdb_RegisterSimpleDescriptor
bdb_StartCommissioning SYMBOL "bdb_StartCommissioning"
`??bdb_StartCommissioning::?relay` SYMBOL "?relay", bdb_StartCommissioning
bdb_ZedAttemptRecoverNwk SYMBOL "bdb_ZedAttemptRecoverNwk"
`??bdb_ZedAttemptRecoverNwk::?relay` SYMBOL "?relay", bdb_ZedAttemptRecoverNwk
osal_mem_alloc      SYMBOL "osal_mem_alloc"
`??osal_mem_alloc::?relay` SYMBOL "?relay", osal_mem_alloc
osal_mem_free       SYMBOL "osal_mem_free"
`??osal_mem_free::?relay` SYMBOL "?relay", osal_mem_free
osal_memset         SYMBOL "osal_memset"
`??osal_memset::?relay` SYMBOL "?relay", osal_memset
osal_msg_allocate   SYMBOL "osal_msg_allocate"
`??osal_msg_allocate::?relay` SYMBOL "?relay", osal_msg_allocate
osal_msg_deallocate SYMBOL "osal_msg_deallocate"
`??osal_msg_deallocate::?relay` SYMBOL "?relay", osal_msg_deallocate
osal_msg_receive    SYMBOL "osal_msg_receive"
`??osal_msg_receive::?relay` SYMBOL "?relay", osal_msg_receive
osal_msg_send       SYMBOL "osal_msg_send"
`??osal_msg_send::?relay` SYMBOL "?relay", osal_msg_send
osal_set_event      SYMBOL "osal_set_event"
`??osal_set_event::?relay` SYMBOL "?relay", osal_set_event
osal_start_timerEx  SYMBOL "osal_start_timerEx"
`??osal_start_timerEx::?relay` SYMBOL "?relay", osal_start_timerEx
zclFindAttrRec      SYMBOL "zclFindAttrRec"
`??zclFindAttrRec::?relay` SYMBOL "?relay", zclFindAttrRec
zclFindConfigReportRec SYMBOL "zclFindConfigReportRec"
`??zclFindConfigReportRec::?relay` SYMBOL "?relay", zclFindConfigReportRec
zclFindConfigReportRecsList SYMBOL "zclFindConfigReportRecsList"
`??zclFindConfigReportRecsList::?relay` SYMBOL "?relay", zclFindConfigReportRecsList
zclGeneral_RegisterCmdCallbacks SYMBOL "zclGeneral_RegisterCmdCallbacks"
`??zclGeneral_RegisterCmdCallbacks::?relay` SYMBOL "?relay", zclGeneral_RegisterCmdCallbacks
zclMultiSensor_ResetAttributesToDefaultValues SYMBOL "zclMultiSensor_ResetAttributesToDefaultValues"
??zclMultiSensor_ResetAttributesToDefaultValues SYMBOL "?relay", zclMultiSensor_ResetAttributesToDefaultValues
zcl_SendConfigReportRspCmd SYMBOL "zcl_SendConfigReportRspCmd"
`??zcl_SendConfigReportRspCmd::?relay` SYMBOL "?relay", zcl_SendConfigReportRspCmd
zcl_SendReadReportCfgRspCmd SYMBOL "zcl_SendReadReportCfgRspCmd"
`??zcl_SendReadReportCfgRspCmd::?relay` SYMBOL "?relay", zcl_SendReadReportCfgRspCmd
zcl_SendReportCmd   SYMBOL "zcl_SendReportCmd"
`??zcl_SendReportCmd::?relay` SYMBOL "?relay", zcl_SendReportCmd
zcl_registerAttrList SYMBOL "zcl_registerAttrList"
`??zcl_registerAttrList::?relay` SYMBOL "?relay", zcl_registerAttrList
zcl_registerConfigReportRecList SYMBOL "zcl_registerConfigReportRecList"
`??zcl_registerConfigReportRecList::?relay` SYMBOL "?relay", zcl_registerConfigReportRecList
zcl_registerForMsg  SYMBOL "zcl_registerForMsg"
`??zcl_registerForMsg::?relay` SYMBOL "?relay", zcl_registerForMsg
zgWriteStartupOptions SYMBOL "zgWriteStartupOptions"
`??zgWriteStartupOptions::?relay` SYMBOL "?relay", zgWriteStartupOptions
uartEventApplicationCB SYMBOL "uartEventApplicationCB"
`??uartEventApplicationCB::?relay` SYMBOL "?relay", uartEventApplicationCB
zclMultiSensor_Init SYMBOL "zclMultiSensor_Init"
`??zclMultiSensor_Init::?relay` SYMBOL "?relay", zclMultiSensor_Init
zclMultiSensor_event_loop SYMBOL "zclMultiSensor_event_loop"
`??zclMultiSensor_event_loop::?relay` SYMBOL "?relay", zclMultiSensor_event_loop

        EXTERN `??HalKeyRead::?relay`
        FUNCTION `??HalKeyRead::?relay`,00H
        EXTERN `??HalLedBlink::?relay`
        FUNCTION `??HalLedBlink::?relay`,00H
        EXTERN `??HalUARTOpen::?relay`
        FUNCTION `??HalUARTOpen::?relay`,00H
        EXTERN `??HalUARTRead::?relay`
        FUNCTION `??HalUARTRead::?relay`,00H
        EXTERN `??Hal_UART_RxBufLen::?relay`
        FUNCTION `??Hal_UART_RxBufLen::?relay`,00H
        EXTERN `??NLME_LeaveReq::?relay`
        FUNCTION `??NLME_LeaveReq::?relay`,00H
        EXTERN `??RegisterForKeys::?relay`
        FUNCTION `??RegisterForKeys::?relay`,00H
        EXTERN `??RegisterVoltageWarningCB::?relay`
        FUNCTION `??RegisterVoltageWarningCB::?relay`,00H
        EXTERN `??afRegister::?relay`
        FUNCTION `??afRegister::?relay`,00H
        EXTERN `??bdb_RegisterCommissioningStatusCB::?relay`
        FUNCTION `??bdb_RegisterCommissioningStatusCB::?relay`,00H
        EXTERN `??bdb_RegisterSimpleDescriptor::?relay`
        FUNCTION `??bdb_RegisterSimpleDescriptor::?relay`,00H
        EXTERN `??bdb_StartCommissioning::?relay`
        FUNCTION `??bdb_StartCommissioning::?relay`,00H
        EXTERN `??bdb_ZedAttemptRecoverNwk::?relay`
        FUNCTION `??bdb_ZedAttemptRecoverNwk::?relay`,00H
        EXTERN `??osal_mem_alloc::?relay`
        FUNCTION `??osal_mem_alloc::?relay`,00H
        EXTERN `??osal_mem_free::?relay`
        FUNCTION `??osal_mem_free::?relay`,00H
        EXTERN `??osal_memset::?relay`
        FUNCTION `??osal_memset::?relay`,00H
        EXTERN `??osal_msg_allocate::?relay`
        FUNCTION `??osal_msg_allocate::?relay`,00H
        EXTERN `??osal_msg_deallocate::?relay`
        FUNCTION `??osal_msg_deallocate::?relay`,00H
        EXTERN `??osal_msg_receive::?relay`
        FUNCTION `??osal_msg_receive::?relay`,00H
        EXTERN `??osal_msg_send::?relay`
        FUNCTION `??osal_msg_send::?relay`,00H
        EXTERN `??osal_set_event::?relay`
        FUNCTION `??osal_set_event::?relay`,00H
        EXTERN `??osal_start_timerEx::?relay`
        FUNCTION `??osal_start_timerEx::?relay`,00H
        EXTERN `??zclFindAttrRec::?relay`
        FUNCTION `??zclFindAttrRec::?relay`,00H
        EXTERN `??zclFindConfigReportRec::?relay`
        FUNCTION `??zclFindConfigReportRec::?relay`,00H
        EXTERN `??zclFindConfigReportRecsList::?relay`
        FUNCTION `??zclFindConfigReportRecsList::?relay`,00H
        EXTERN `??zclGeneral_RegisterCmdCallbacks::?relay`
        FUNCTION `??zclGeneral_RegisterCmdCallbacks::?relay`,00H
        EXTERN ??zclMultiSensor_ResetAttributesToDefaultValues
        FUNCTION ??zclMultiSensor_ResetAttributesToDefaultValues,00H
        EXTERN `??zcl_SendConfigReportRspCmd::?relay`
        FUNCTION `??zcl_SendConfigReportRspCmd::?relay`,00H
        EXTERN `??zcl_SendReadReportCfgRspCmd::?relay`
        FUNCTION `??zcl_SendReadReportCfgRspCmd::?relay`,00H
        EXTERN `??zcl_SendReportCmd::?relay`
        FUNCTION `??zcl_SendReportCmd::?relay`,00H
        EXTERN `??zcl_registerAttrList::?relay`
        FUNCTION `??zcl_registerAttrList::?relay`,00H
        EXTERN `??zcl_registerConfigReportRecList::?relay`
        FUNCTION `??zcl_registerConfigReportRecList::?relay`,00H
        EXTERN `??zcl_registerForMsg::?relay`
        FUNCTION `??zcl_registerForMsg::?relay`,00H
        EXTERN `??zgWriteStartupOptions::?relay`
        FUNCTION `??zgWriteStartupOptions::?relay`,00H
        EXTERN HalKeyRead
        FUNCTION HalKeyRead,0202H
        ARGFRAME ISTACK, 0, STACK
        ARGFRAME PSTACK, 0, STACK
        ARGFRAME XSTACK, 17, STACK
        ARGFRAME IOVERLAY, 0, STATIC
        ARGFRAME DOVERLAY, 0, STATIC
        EXTERN HalLedBlink
        FUNCTION HalLedBlink,0202H
        ARGFRAME ISTACK, 2, STACK
        ARGFRAME PSTACK, 0, STACK
        ARGFRAME XSTACK, 17, STACK
        ARGFRAME IOVERLAY, 0, STATIC
        ARGFRAME DOVERLAY, 0, STATIC
        EXTERN HalUARTOpen
        FUNCTION HalUARTOpen,0202H
        ARGFRAME ISTACK, 0, STACK
        ARGFRAME PSTACK, 0, STACK
        ARGFRAME XSTACK, 38, STACK
        ARGFRAME IOVERLAY, 0, STATIC
        ARGFRAME DOVERLAY, 0, STATIC
        EXTERN HalUARTRead
        FUNCTION HalUARTRead,0202H
        ARGFRAME ISTACK, 0, STACK
        ARGFRAME PSTACK, 0, STACK
        ARGFRAME XSTACK, 25, STACK
        ARGFRAME IOVERLAY, 0, STATIC
        ARGFRAME DOVERLAY, 0, STATIC
        EXTERN Hal_UART_RxBufLen
        FUNCTION Hal_UART_RxBufLen,0202H
        ARGFRAME ISTACK, 0, STACK
        ARGFRAME PSTACK, 0, STACK
        ARGFRAME XSTACK, 25, STACK
        ARGFRAME IOVERLAY, 0, STATIC
        ARGFRAME DOVERLAY, 0, STATIC
        EXTERN NLME_LeaveReq
        FUNCTION NLME_LeaveReq,0202H
        ARGFRAME ISTACK, 0, STACK
        ARGFRAME PSTACK, 0, STACK
        ARGFRAME XSTACK, 17, STACK
        ARGFRAME IOVERLAY, 0, STATIC
        ARGFRAME DOVERLAY, 0, STATIC
        EXTERN Onboard_soft_reset
        FUNCTION Onboard_soft_reset,0202H
        ARGFRAME ISTACK, 0, STACK
        ARGFRAME PSTACK, 0, STACK
        ARGFRAME XSTACK, 17, STACK
        ARGFRAME IOVERLAY, 0, STATIC
        ARGFRAME DOVERLAY, 0, STATIC
        EXTERN RegisterForKeys
        FUNCTION RegisterForKeys,0202H
        ARGFRAME ISTACK, 0, STACK
        ARGFRAME PSTACK, 0, STACK
        ARGFRAME XSTACK, 38, STACK
        ARGFRAME IOVERLAY, 0, STATIC
        ARGFRAME DOVERLAY, 0, STATIC
        EXTERN RegisterVoltageWarningCB
        FUNCTION RegisterVoltageWarningCB,0202H
        ARGFRAME ISTACK, 0, STACK
        ARGFRAME PSTACK, 0, STACK
        ARGFRAME XSTACK, 38, STACK
        ARGFRAME IOVERLAY, 0, STATIC
        ARGFRAME DOVERLAY, 0, STATIC
        EXTERN afRegister
        FUNCTION afRegister,0202H
        ARGFRAME ISTACK, 0, STACK
        ARGFRAME PSTACK, 0, STACK
        ARGFRAME XSTACK, 38, STACK
        ARGFRAME IOVERLAY, 0, STATIC
        ARGFRAME DOVERLAY, 0, STATIC
        EXTERN bdb_RegisterCommissioningStatusCB
        FUNCTION bdb_RegisterCommissioningStatusCB,0202H
        ARGFRAME ISTACK, 0, STACK
        ARGFRAME PSTACK, 0, STACK
        ARGFRAME XSTACK, 38, STACK
        ARGFRAME IOVERLAY, 0, STATIC
        ARGFRAME DOVERLAY, 0, STATIC
        EXTERN bdb_RegisterSimpleDescriptor
        FUNCTION bdb_RegisterSimpleDescriptor,0202H
        ARGFRAME ISTACK, 0, STACK
        ARGFRAME PSTACK, 0, STACK
        ARGFRAME XSTACK, 38, STACK
        ARGFRAME IOVERLAY, 0, STATIC
        ARGFRAME DOVERLAY, 0, STATIC
        EXTERN bdb_StartCommissioning
        FUNCTION bdb_StartCommissioning,0202H
        ARGFRAME ISTACK, 0, STACK
        ARGFRAME PSTACK, 0, STACK
        ARGFRAME XSTACK, 38, STACK
        ARGFRAME IOVERLAY, 0, STATIC
        ARGFRAME DOVERLAY, 0, STATIC
        EXTERN bdb_ZedAttemptRecoverNwk
        FUNCTION bdb_ZedAttemptRecoverNwk,0202H
        ARGFRAME ISTACK, 0, STACK
        ARGFRAME PSTACK, 0, STACK
        ARGFRAME XSTACK, 17, STACK
        ARGFRAME IOVERLAY, 0, STATIC
        ARGFRAME DOVERLAY, 0, STATIC
        EXTERN osal_mem_alloc
        FUNCTION osal_mem_alloc,0202H
        ARGFRAME ISTACK, 0, STACK
        ARGFRAME PSTACK, 0, STACK
        ARGFRAME XSTACK, 36, STACK
        ARGFRAME IOVERLAY, 0, STATIC
        ARGFRAME DOVERLAY, 0, STATIC
        EXTERN osal_mem_free
        FUNCTION osal_mem_free,0202H
        ARGFRAME ISTACK, 0, STACK
        ARGFRAME PSTACK, 0, STACK
        ARGFRAME XSTACK, 36, STACK
        ARGFRAME IOVERLAY, 0, STATIC
        ARGFRAME DOVERLAY, 0, STATIC
        EXTERN osal_memset
        FUNCTION osal_memset,0202H
        ARGFRAME ISTACK, 0, STACK
        ARGFRAME PSTACK, 0, STACK
        ARGFRAME XSTACK, 36, STACK
        ARGFRAME IOVERLAY, 0, STATIC
        ARGFRAME DOVERLAY, 0, STATIC
        EXTERN osal_msg_allocate
        FUNCTION osal_msg_allocate,0202H
        ARGFRAME ISTACK, 0, STACK
        ARGFRAME PSTACK, 0, STACK
        ARGFRAME XSTACK, 14, STACK
        ARGFRAME IOVERLAY, 0, STATIC
        ARGFRAME DOVERLAY, 0, STATIC
        EXTERN osal_msg_deallocate
        FUNCTION osal_msg_deallocate,0202H
        ARGFRAME ISTACK, 0, STACK
        ARGFRAME PSTACK, 0, STACK
        ARGFRAME XSTACK, 17, STACK
        ARGFRAME IOVERLAY, 0, STATIC
        ARGFRAME DOVERLAY, 0, STATIC
        EXTERN osal_msg_receive
        FUNCTION osal_msg_receive,0202H
        ARGFRAME ISTACK, 0, STACK
        ARGFRAME PSTACK, 0, STACK
        ARGFRAME XSTACK, 17, STACK
        ARGFRAME IOVERLAY, 0, STATIC
        ARGFRAME DOVERLAY, 0, STATIC
        EXTERN osal_msg_send
        FUNCTION osal_msg_send,0202H
        ARGFRAME ISTACK, 0, STACK
        ARGFRAME PSTACK, 0, STACK
        ARGFRAME XSTACK, 14, STACK
        ARGFRAME IOVERLAY, 0, STATIC
        ARGFRAME DOVERLAY, 0, STATIC
        EXTERN osal_set_event
        FUNCTION osal_set_event,0202H
        ARGFRAME ISTACK, 0, STACK
        ARGFRAME PSTACK, 0, STACK
        ARGFRAME XSTACK, 17, STACK
        ARGFRAME IOVERLAY, 0, STATIC
        ARGFRAME DOVERLAY, 0, STATIC
        EXTERN osal_start_timerEx
        FUNCTION osal_start_timerEx,0202H
        ARGFRAME ISTACK, 2, STACK
        ARGFRAME PSTACK, 0, STACK
        ARGFRAME XSTACK, 21, STACK
        ARGFRAME IOVERLAY, 0, STATIC
        ARGFRAME DOVERLAY, 0, STATIC
        EXTERN zclFindAttrRec
        FUNCTION zclFindAttrRec,0202H
        ARGFRAME ISTACK, 0, STACK
        ARGFRAME PSTACK, 0, STACK
        ARGFRAME XSTACK, 38, STACK
        ARGFRAME IOVERLAY, 0, STATIC
        ARGFRAME DOVERLAY, 0, STATIC
        EXTERN zclFindConfigReportRec
        FUNCTION zclFindConfigReportRec,0202H
        ARGFRAME ISTACK, 0, STACK
        ARGFRAME PSTACK, 0, STACK
        ARGFRAME XSTACK, 38, STACK
        ARGFRAME IOVERLAY, 0, STATIC
        ARGFRAME DOVERLAY, 0, STATIC
        EXTERN zclFindConfigReportRecsList
        FUNCTION zclFindConfigReportRecsList,0202H
        ARGFRAME ISTACK, 0, STACK
        ARGFRAME PSTACK, 0, STACK
        ARGFRAME XSTACK, 17, STACK
        ARGFRAME IOVERLAY, 0, STATIC
        ARGFRAME DOVERLAY, 0, STATIC
        EXTERN zclGeneral_RegisterCmdCallbacks
        FUNCTION zclGeneral_RegisterCmdCallbacks,0202H
        ARGFRAME ISTACK, 0, STACK
        ARGFRAME PSTACK, 0, STACK
        ARGFRAME XSTACK, 38, STACK
        ARGFRAME IOVERLAY, 0, STATIC
        ARGFRAME DOVERLAY, 0, STATIC
        EXTERN zclMultiSensor_Attrs
        EXTERN zclMultiSensor_CO2_MeasuredValue
        EXTERN zclMultiSensor_ConfigReportRecs
        EXTERN zclMultiSensor_Humidity_MeasuredValue
        EXTERN zclMultiSensor_Light_MeasuredValue
        EXTERN zclMultiSensor_NumAttributes
        EXTERN zclMultiSensor_NumConfigReportRecs
        EXTERN zclMultiSensor_Pir_Status
        EXTERN zclMultiSensor_ResetAttributesToDefaultValues
        FUNCTION zclMultiSensor_ResetAttributesToDefaultValues,0202H
        ARGFRAME ISTACK, 2, STACK
        ARGFRAME PSTACK, 0, STACK
        ARGFRAME XSTACK, 38, STACK
        ARGFRAME IOVERLAY, 0, STATIC
        ARGFRAME DOVERLAY, 0, STATIC
        EXTERN zclMultiSensor_SimpleDesc
        EXTERN zclMultiSensor_TVOC_MeasuredValue
        EXTERN zclMultiSensor_Temperature_MeasuredValue
        EXTERN zcl_SendConfigReportRspCmd
        FUNCTION zcl_SendConfigReportRspCmd,0202H
        ARGFRAME ISTACK, 0, STACK
        ARGFRAME PSTACK, 0, STACK
        ARGFRAME XSTACK, 41, STACK
        ARGFRAME IOVERLAY, 0, STATIC
        ARGFRAME DOVERLAY, 0, STATIC
        EXTERN zcl_SendReadReportCfgRspCmd
        FUNCTION zcl_SendReadReportCfgRspCmd,0202H
        ARGFRAME ISTACK, 0, STACK
        ARGFRAME PSTACK, 0, STACK
        ARGFRAME XSTACK, 39, STACK
        ARGFRAME IOVERLAY, 0, STATIC
        ARGFRAME DOVERLAY, 0, STATIC
        EXTERN zcl_SendReportCmd
        FUNCTION zcl_SendReportCmd,0202H
        ARGFRAME ISTACK, 0, STACK
        ARGFRAME PSTACK, 0, STACK
        ARGFRAME XSTACK, 29, STACK
        ARGFRAME IOVERLAY, 0, STATIC
        ARGFRAME DOVERLAY, 0, STATIC
        EXTERN zcl_registerAttrList
        FUNCTION zcl_registerAttrList,0202H
        ARGFRAME ISTACK, 0, STACK
        ARGFRAME PSTACK, 0, STACK
        ARGFRAME XSTACK, 38, STACK
        ARGFRAME IOVERLAY, 0, STATIC
        ARGFRAME DOVERLAY, 0, STATIC
        EXTERN zcl_registerConfigReportRecList
        FUNCTION zcl_registerConfigReportRecList,0202H
        ARGFRAME ISTACK, 0, STACK
        ARGFRAME PSTACK, 0, STACK
        ARGFRAME XSTACK, 38, STACK
        ARGFRAME IOVERLAY, 0, STATIC
        ARGFRAME DOVERLAY, 0, STATIC
        EXTERN zcl_registerForMsg
        FUNCTION zcl_registerForMsg,0202H
        ARGFRAME ISTACK, 0, STACK
        ARGFRAME PSTACK, 0, STACK
        ARGFRAME XSTACK, 38, STACK
        ARGFRAME IOVERLAY, 0, STATIC
        ARGFRAME DOVERLAY, 0, STATIC
        EXTERN zdpExternalStateTaskID
        EXTERN zgWriteStartupOptions
        FUNCTION zgWriteStartupOptions,0202H
        ARGFRAME ISTACK, 0, STACK
        ARGFRAME PSTACK, 0, STACK
        ARGFRAME XSTACK, 17, STACK
        ARGFRAME IOVERLAY, 0, STATIC
        ARGFRAME DOVERLAY, 0, STATIC

// C:\Users\TS-577\Desktop\Zigbee workspace\MultiSensorDevice\Projects\zstack\HomeAutomation\MultiSensor\Source\zcl_MultiSensor.c
//    1 /**************************************************************************************************
//    2   Filename:       zcl_sampletemperaturesensor.c
//    3   Revised:        $Date: 2014-10-24 16:04:46 -0700 (Fri, 24 Oct 2014) $
//    4   Revision:       $Revision: 40796 $
//    5 
//    6   Description:    Zigbee Cluster Library - sample device application.
//    7 
//    8 
//    9   Copyright 2013 Texas Instruments Incorporated. All rights reserved.
//   10 
//   11   IMPORTANT: Your use of this Software is limited to those specific rights
//   12   granted under the terms of a software license agreement between the user
//   13   who downloaded the software, his/her employer (which must be your employer)
//   14   and Texas Instruments Incorporated (the "License").  You may not use this
//   15   Software unless you agree to abide by the terms of the License. The License
//   16   limits your use, and you acknowledge, that the Software may not be modified,
//   17   copied or distributed unless embedded on a Texas Instruments microcontroller
//   18   or used solely and exclusively in conjunction with a Texas Instruments radio
//   19   frequency transceiver, which is integrated into your product.  Other than for
//   20   the foregoing purpose, you may not use, reproduce, copy, prepare derivative
//   21   works of, modify, distribute, perform, display or sell this Software and/or
//   22   its documentation for any purpose.
//   23 
//   24   YOU FURTHER ACKNOWLEDGE AND AGREE THAT THE SOFTWARE AND DOCUMENTATION ARE
//   25   PROVIDED "AS IS" WITHOUT WARRANTY OF ANY KIND, EITHER EXPRESS OR IMPLIED,
//   26   INCLUDING WITHOUT LIMITATION, ANY WARRANTY OF MERCHANTABILITY, TITLE,
//   27   NON-INFRINGEMENT AND FITNESS FOR A PARTICULAR PURPOSE. IN NO EVENT SHALL
//   28   TEXAS INSTRUMENTS OR ITS LICENSORS BE LIABLE OR OBLIGATED UNDER CONTRACT,
//   29   NEGLIGENCE, STRICT LIABILITY, CONTRIBUTION, BREACH OF WARRANTY, OR OTHER
//   30   LEGAL EQUITABLE THEORY ANY DIRECT OR INDIRECT DAMAGES OR EXPENSES
//   31   INCLUDING BUT NOT LIMITED TO ANY INCIDENTAL, SPECIAL, INDIRECT, PUNITIVE
//   32   OR CONSEQUENTIAL DAMAGES, LOST PROFITS OR LOST DATA, COST OF PROCUREMENT
//   33   OF SUBSTITUTE GOODS, TECHNOLOGY, SERVICES, OR ANY CLAIMS BY THIRD PARTIES
//   34   (INCLUDING BUT NOT LIMITED TO ANY DEFENSE THEREOF), OR OTHER SIMILAR COSTS.
//   35 
//   36   Should you have any questions regarding your right to use this Software,
//   37   contact Texas Instruments Incorporated at www.TI.com.
//   38 **************************************************************************************************/
//   39 
//   40 /*********************************************************************
//   41   This application implements a ZigBee Multi Sensor, based on Z-Stack 3.0.
//   42 
//   43   - MultiSensor Object includes 6 sensors:
//   44       + Illuminance Sensor - Report to linux gateway after period time
//   45       + Temperature Sensor - Report to linux gateway after change value with step 1 celcius
//   46       + Humidity Sensor - Report to linux gateway after change value with step 1%RH
//   47       + Occupancy Sensor - Report to linux gateway after change value
//   48       + TVOC Sensor - Report to linux gateway after period time
//   49       + Co2 Sensor - Report to linux gateway after period time
//   50   - Multi sensor device act as end device with always power on 
//   51   - Multi sensor device will receive date of sensors from stm32 with protocol follwed:
//   52      |XXXX,YYYY,ZZZZ,DDDD,KKKK,LLLL\r\n| : format packet
//   53 
//   54 *********************************************************************/
//   55 
//   56 /*********************************************************************
//   57  * INCLUDES
//   58  */
//   59 #include "ZComDef.h"
//   60 #include "OSAL.h"
//   61 #include "AF.h"
//   62 #include "ZDApp.h"
//   63 #include "ZDObject.h"
//   64 #include "ZDProfile.h"
//   65 
//   66 #include "zcl.h"
//   67 #include "zcl_general.h"
//   68 #include "zcl_ha.h"
//   69 #include "zcl_ms.h"
//   70 
//   71 #include "zcl_MultiSensor.h"
//   72 
//   73 #include "onboard.h"
//   74 
//   75 /* HAL */
//   76 #include "hal_led.h"
//   77 #include "hal_key.h"
//   78 #include "hal_uart.h"
//   79 
//   80 #include "bdb_interface.h"   
//   81 /*********************************************************************
//   82  * MACROS
//   83  */
//   84 
//   85 #define zcl_AccessCtrlRead( a )       ( (a) & ACCESS_CONTROL_READ )
//   86 
//   87 #define UART_NONE       0
//   88 #define UART_PERIOD     1
//   89 #define UART_TEMP       2
//   90 #define UART_HUM        3
//   91 #define UART_PIR        4
//   92 /*********************************************************************
//   93  * CONSTANTS
//   94  */
//   95 
//   96 /*********************************************************************
//   97  * TYPEDEFS
//   98  */
//   99 
//  100 /*********************************************************************
//  101  * GLOBAL VARIABLES
//  102  */

        RSEG XDATA_Z:XDATA:NOROOT(0)
        DATA8
//  103 byte zclMultiSensor_TaskID;
zclMultiSensor_TaskID:
        DS 1
        REQUIRE __INIT_XDATA_Z

        RSEG XDATA_Z:XDATA:NOROOT(0)
        DATA8
//  104 afAddrType_t zclMultiSensor_dstAddr;
zclMultiSensor_dstAddr:
        DS 12
        REQUIRE __INIT_XDATA_Z
//  105 extern int16 zdpExternalStateTaskID;

        RSEG XDATA_Z:XDATA:NOROOT(0)
        DATA8
//  106 static devStates_t NwkStateShadow = DEV_HOLD;
NwkStateShadow:
        DS 1
        REQUIRE __INIT_XDATA_Z
//  107 

        RSEG XDATA_Z:XDATA:NOROOT(0)
        DATA16
//  108 uint16 gTimeCounter;
gTimeCounter:
        DS 2
        REQUIRE __INIT_XDATA_Z

        RSEG XDATA_Z:XDATA:NOROOT(0)
        DATA8
//  109 uint8 holdKeyCounter;
holdKeyCounter:
        DS 1
        REQUIRE __INIT_XDATA_Z

        RSEG XDATA_Z:XDATA:NOROOT(0)
        DATA8
//  110 uint8 uartFlag;
uartFlag:
        DS 1
        REQUIRE __INIT_XDATA_Z

        RSEG XDATA_Z:XDATA:NOROOT(0)
        DATA8
//  111 uint8 signTempFlag;
signTempFlag:
        DS 1
        REQUIRE __INIT_XDATA_Z
//  112 /*********************************************************************
//  113  * GLOBAL FUNCTIONS
//  114  */
//  115 
//  116 /*********************************************************************
//  117  * LOCAL VARIABLES
//  118  */

        RSEG XDATA_I:XDATA:NOROOT(0)
//  119 static endPointDesc_t multiSensor_Ep =
multiSensor_Ep:
        DATA8
        DS 7
        REQUIRE `?<Initializer for multiSensor_Ep>`
        REQUIRE __INIT_XDATA_I
//  120 {
//  121   MULTISENSOR_ENDPOINT,           
//  122   0,
//  123   &zclMultiSensor_TaskID,
//  124   (SimpleDescriptionFormat_t *)NULL,        // No Simple description for this test endpoint
//  125   (afNetworkLatencyReq_t)0                  // No Network Latency req
//  126 };
//  127 
//  128 /*********************************************************************
//  129  * LOCAL FUNCTIONS
//  130  */
//  131   
//  132 // Functions to process other events relate to hardware
//  133 static void zclMultiSensor_HandleKeys( byte shift, byte keys );
//  134 static void zclMultiSensor_BasicResetCB( void );
//  135 static void zclMultiSensor_BatteryWarningCB( uint8 voltLevel);
//  136 
//  137 // Function to process Commisioning
//  138 static void zclMultiSensor_ProcessCommissioningStatus(bdbCommissioningModeMsg_t* bdbCommissioningModeMsg);
//  139 
//  140 // Functions to process ZCL Foundation incoming Command/Response messages
//  141 static void zclMultiSensor_ProcessIncomingMsg( zclIncomingMsg_t *msg );
//  142 #ifdef ZCL_READ
//  143 static uint8 zclMultiSensor_ProcessInReadRspCmd( zclIncomingMsg_t *pInMsg );
//  144 #endif
//  145 #ifdef ZCL_WRITE
//  146 static uint8 zclMultiSensor_ProcessInWriteRspCmd( zclIncomingMsg_t *pInMsg );
//  147 #endif
//  148 
//  149 #ifdef ZCL_REPORT
//  150 // Functions to process ZCL REPORT message
//  151 static void zclMultiSensor_ProcessInReportCmd( zclIncomingMsg_t *pInMsg );
//  152 static uint8 zclMultiSensor_ProcessInConfigReportCmd( zclIncomingMsg_t *pInMsg );
//  153 static uint8 zclMultiSensor_ProcessInReadReportCfgCmd( zclIncomingMsg_t *pInMsg );
//  154 static void zclMultiSensor_CheckReportConfig(void);
//  155 static uint8 SendZclAttrReport(uint8 srcEp, uint16 clusterId, zclReportCmd_t *pReportCmd, uint8 datalen);
//  156 static void zclMultiSensor_CheckAndSendClusterAttrReport( uint8 endpoint, uint16 clusterId,
//  157                                                           zclConfigReportRecsList *pConfigReportRecsList );
//  158 static void sendZclAttrChangeReport(uint16 clusterId, uint16 attrID, uint8 *currentValue);
//  159 //-- MOD END
//  160 #endif
//  161 
//  162 static uint8 zclMultiSensor_ProcessInDefaultRspCmd( zclIncomingMsg_t *pInMsg );
//  163 
//  164 // Functions to process UART interface
//  165 static void zclMultiSensor_UART_Init(void);
//  166 void uartEventApplicationCB(uint8 port, uint8 event);
//  167 
//  168 
//  169 
//  170 
//  171 /*********************************************************************
//  172  * STATUS STRINGS
//  173  */
//  174 
//  175 /*********************************************************************
//  176  * CONSTANTS
//  177  */
//  178 
//  179 /*********************************************************************
//  180  * ZCL General Profile Callback table
//  181  */

        RSEG XDATA_I:XDATA:NOROOT(0)
//  182 static zclGeneral_AppCallbacks_t zclMultiSensor_CmdCallbacks =
zclMultiSensor_CmdCallbacks:
        DATA8
        DS 18
        REQUIRE `?<Initializer for zclMultiSensor_CmdCallbacks>`
        REQUIRE __INIT_XDATA_I
//  183 {
//  184 // ************************************ Callback List of Multi Sensor Endpoint *********************************************/  
//  185     zclMultiSensor_BasicResetCB,                    // Basic Cluster Reset command
//  186     NULL,                                           // Identify Trigger Effect command
//  187     NULL,             				    // On/Off cluster command
//  188     NULL,                                           // On/Off cluster enhanced command Off with Effect
//  189     NULL,                                           // On/Off cluster enhanced command On with Recall Global Scene
//  190     NULL,                                           // On/Off cluster enhanced command On with Timed Off
//  191   #ifdef ZCL_LEVEL_CTRL
//  192     NULL,                                           // Level Control Move to Level command
//  193     NULL,                                           // Level Control Move command
//  194     NULL,                                           // Level Control Step command
//  195     NULL,                                           // Level Control Stop command
//  196   #endif
//  197   #ifdef ZCL_GROUPS
//  198     NULL,                                           // Group Response commands
//  199   #endif
//  200   #ifdef ZCL_SCENES
//  201     NULL,                                           // Scene Store Request command
//  202     NULL,                                           // Scene Recall Request command
//  203     NULL,                                           // Scene Response command
//  204   #endif
//  205   #ifdef ZCL_ALARMS
//  206     NULL,                                           // Alarm (Response) commands
//  207   #endif
//  208   #ifdef SE_UK_EXT
//  209     NULL,                                           // Get Event Log command
//  210     NULL,                                           // Publish Event Log command
//  211   #endif
//  212     NULL,                                           // RSSI Location command
//  213     NULL                                            // RSSI Location Response command
//  214 };
//  215 
//  216 
//  217 /*********************************************************************
//  218  * @fn          zclMultiSensor_Init
//  219  *
//  220  * @brief       Initialization function for the zclGeneral layer.
//  221  *
//  222  * @param       none
//  223 *
//  224 * @return      none
//  225 */

        RSEG BANKED_CODE:HUGECODE:NOROOT(0)
//  226 void zclMultiSensor_Init( byte task_id )
zclMultiSensor_Init:
          CFI Block cfiBlock0 Using cfiCommon0
          CFI Function zclMultiSensor_Init
        CODE
//  227 {
        FUNCALL zclMultiSensor_Init, bdb_RegisterSimpleDescriptor
        LOCFRAME ISTACK, 0, STACK
        LOCFRAME PSTACK, 0, STACK
        LOCFRAME XSTACK, 38, STACK
        LOCFRAME IOVERLAY, 0, STATIC
        LOCFRAME DOVERLAY, 0, STATIC
        ARGFRAME ISTACK, 0, STACK
        ARGFRAME PSTACK, 0, STACK
        ARGFRAME XSTACK, 38, STACK
        ARGFRAME IOVERLAY, 0, STATIC
        ARGFRAME DOVERLAY, 0, STATIC
        FUNCALL zclMultiSensor_Init, zclGeneral_RegisterCmdCallbacks
        LOCFRAME ISTACK, 0, STACK
        LOCFRAME PSTACK, 0, STACK
        LOCFRAME XSTACK, 38, STACK
        LOCFRAME IOVERLAY, 0, STATIC
        LOCFRAME DOVERLAY, 0, STATIC
        ARGFRAME ISTACK, 0, STACK
        ARGFRAME PSTACK, 0, STACK
        ARGFRAME XSTACK, 38, STACK
        ARGFRAME IOVERLAY, 0, STATIC
        ARGFRAME DOVERLAY, 0, STATIC
        FUNCALL zclMultiSensor_Init, zclMultiSensor_ResetAttributesToDefaultValues
        LOCFRAME ISTACK, 0, STACK
        LOCFRAME PSTACK, 0, STACK
        LOCFRAME XSTACK, 38, STACK
        LOCFRAME IOVERLAY, 0, STATIC
        LOCFRAME DOVERLAY, 0, STATIC
        ARGFRAME ISTACK, 0, STACK
        ARGFRAME PSTACK, 0, STACK
        ARGFRAME XSTACK, 38, STACK
        ARGFRAME IOVERLAY, 0, STATIC
        ARGFRAME DOVERLAY, 0, STATIC
        FUNCALL zclMultiSensor_Init, zcl_registerAttrList
        LOCFRAME ISTACK, 0, STACK
        LOCFRAME PSTACK, 0, STACK
        LOCFRAME XSTACK, 38, STACK
        LOCFRAME IOVERLAY, 0, STATIC
        LOCFRAME DOVERLAY, 0, STATIC
        ARGFRAME ISTACK, 0, STACK
        ARGFRAME PSTACK, 0, STACK
        ARGFRAME XSTACK, 38, STACK
        ARGFRAME IOVERLAY, 0, STATIC
        ARGFRAME DOVERLAY, 0, STATIC
        FUNCALL zclMultiSensor_Init, zcl_registerForMsg
        LOCFRAME ISTACK, 0, STACK
        LOCFRAME PSTACK, 0, STACK
        LOCFRAME XSTACK, 38, STACK
        LOCFRAME IOVERLAY, 0, STATIC
        LOCFRAME DOVERLAY, 0, STATIC
        ARGFRAME ISTACK, 0, STACK
        ARGFRAME PSTACK, 0, STACK
        ARGFRAME XSTACK, 38, STACK
        ARGFRAME IOVERLAY, 0, STATIC
        ARGFRAME DOVERLAY, 0, STATIC
        FUNCALL zclMultiSensor_Init, RegisterVoltageWarningCB
        LOCFRAME ISTACK, 0, STACK
        LOCFRAME PSTACK, 0, STACK
        LOCFRAME XSTACK, 38, STACK
        LOCFRAME IOVERLAY, 0, STATIC
        LOCFRAME DOVERLAY, 0, STATIC
        ARGFRAME ISTACK, 0, STACK
        ARGFRAME PSTACK, 0, STACK
        ARGFRAME XSTACK, 38, STACK
        ARGFRAME IOVERLAY, 0, STATIC
        ARGFRAME DOVERLAY, 0, STATIC
        FUNCALL zclMultiSensor_Init, RegisterForKeys
        LOCFRAME ISTACK, 0, STACK
        LOCFRAME PSTACK, 0, STACK
        LOCFRAME XSTACK, 38, STACK
        LOCFRAME IOVERLAY, 0, STATIC
        LOCFRAME DOVERLAY, 0, STATIC
        ARGFRAME ISTACK, 0, STACK
        ARGFRAME PSTACK, 0, STACK
        ARGFRAME XSTACK, 38, STACK
        ARGFRAME IOVERLAY, 0, STATIC
        ARGFRAME DOVERLAY, 0, STATIC
        FUNCALL zclMultiSensor_Init, HalUARTOpen
        LOCFRAME ISTACK, 0, STACK
        LOCFRAME PSTACK, 0, STACK
        LOCFRAME XSTACK, 38, STACK
        LOCFRAME IOVERLAY, 0, STATIC
        LOCFRAME DOVERLAY, 0, STATIC
        ARGFRAME ISTACK, 0, STACK
        ARGFRAME PSTACK, 0, STACK
        ARGFRAME XSTACK, 38, STACK
        ARGFRAME IOVERLAY, 0, STATIC
        ARGFRAME DOVERLAY, 0, STATIC
        FUNCALL zclMultiSensor_Init, zcl_registerConfigReportRecList
        LOCFRAME ISTACK, 0, STACK
        LOCFRAME PSTACK, 0, STACK
        LOCFRAME XSTACK, 38, STACK
        LOCFRAME IOVERLAY, 0, STATIC
        LOCFRAME DOVERLAY, 0, STATIC
        ARGFRAME ISTACK, 0, STACK
        ARGFRAME PSTACK, 0, STACK
        ARGFRAME XSTACK, 38, STACK
        ARGFRAME IOVERLAY, 0, STATIC
        ARGFRAME DOVERLAY, 0, STATIC
        FUNCALL zclMultiSensor_Init, bdb_RegisterCommissioningStatusCB
        LOCFRAME ISTACK, 0, STACK
        LOCFRAME PSTACK, 0, STACK
        LOCFRAME XSTACK, 38, STACK
        LOCFRAME IOVERLAY, 0, STATIC
        LOCFRAME DOVERLAY, 0, STATIC
        ARGFRAME ISTACK, 0, STACK
        ARGFRAME PSTACK, 0, STACK
        ARGFRAME XSTACK, 38, STACK
        ARGFRAME IOVERLAY, 0, STATIC
        ARGFRAME DOVERLAY, 0, STATIC
        FUNCALL zclMultiSensor_Init, afRegister
        LOCFRAME ISTACK, 0, STACK
        LOCFRAME PSTACK, 0, STACK
        LOCFRAME XSTACK, 38, STACK
        LOCFRAME IOVERLAY, 0, STATIC
        LOCFRAME DOVERLAY, 0, STATIC
        ARGFRAME ISTACK, 0, STACK
        ARGFRAME PSTACK, 0, STACK
        ARGFRAME XSTACK, 38, STACK
        ARGFRAME IOVERLAY, 0, STATIC
        ARGFRAME DOVERLAY, 0, STATIC
        FUNCALL zclMultiSensor_Init, bdb_StartCommissioning
        LOCFRAME ISTACK, 0, STACK
        LOCFRAME PSTACK, 0, STACK
        LOCFRAME XSTACK, 38, STACK
        LOCFRAME IOVERLAY, 0, STATIC
        LOCFRAME DOVERLAY, 0, STATIC
        ARGFRAME ISTACK, 0, STACK
        ARGFRAME PSTACK, 0, STACK
        ARGFRAME XSTACK, 38, STACK
        ARGFRAME IOVERLAY, 0, STATIC
        ARGFRAME DOVERLAY, 0, STATIC
        MOV       A,#-0x9
        LCALL     ?BANKED_ENTER_XDATA
          CFI DPH0 load(1, XDATA, add(CFA_XSP16, literal(-1)))
          CFI DPL0 load(1, XDATA, add(CFA_XSP16, literal(-2)))
          CFI ?BRET_EXT load(1, XDATA, add(CFA_XSP16, literal(-3)))
          CFI ?RET_HIGH load(1, XDATA, add(CFA_XSP16, literal(-4)))
          CFI ?RET_LOW load(1, XDATA, add(CFA_XSP16, literal(-5)))
          CFI R7 load(1, XDATA, add(CFA_XSP16, literal(-6)))
          CFI V0 load(1, XDATA, add(CFA_XSP16, literal(-7)))
          CFI VB load(1, XDATA, add(CFA_XSP16, literal(-8)))
          CFI R6 load(1, XDATA, add(CFA_XSP16, literal(-9)))
          CFI CFA_SP SP+0
          CFI CFA_XSP16 add(XSP16, 9)
        ; Saved register size: 9
        ; Auto size: 29
        MOV       A,#-0x1d
        LCALL     ?ALLOC_XSTACK8
          CFI CFA_XSP16 add(XSP16, 38)
        MOV       A,R1
//  228   zclMultiSensor_TaskID = task_id;
        MOV       DPTR,#zclMultiSensor_TaskID
        MOVX      @DPTR,A
//  229   
//  230   // Register the Simple Descriptor for this application
//  231   bdb_RegisterSimpleDescriptor( &zclMultiSensor_SimpleDesc );
        ; Setup parameters for call to function bdb_RegisterSimpleDescriptor
        MOV       R2,#zclMultiSensor_SimpleDesc & 0xff
        MOV       R3,#(zclMultiSensor_SimpleDesc >> 8) & 0xff
        LCALL     `??bdb_RegisterSimpleDescriptor::?relay`; Banked call to: bdb_RegisterSimpleDescriptor
//  232   
//  233   // Register the ZCL General Cluster Library callback functions
//  234   zclGeneral_RegisterCmdCallbacks( MULTISENSOR_ENDPOINT, &zclMultiSensor_CmdCallbacks );
        ; Setup parameters for call to function zclGeneral_RegisterCmdCallbacks
        MOV       R2,#zclMultiSensor_CmdCallbacks & 0xff
        MOV       R3,#(zclMultiSensor_CmdCallbacks >> 8) & 0xff
        MOV       R1,#0x8
        LCALL     `??zclGeneral_RegisterCmdCallbacks::?relay`; Banked call to: zclGeneral_RegisterCmdCallbacks
//  235 
//  236 
//  237   // Register the application's attribute list
//  238   zclMultiSensor_ResetAttributesToDefaultValues();
        ; Setup parameters for call to function zclMultiSensor_ResetAttributesToDefaultValues
        LCALL     ??zclMultiSensor_ResetAttributesToDefaultValues; Banked call to: zclMultiSensor_ResetAttributesToDefaultValues
//  239   zcl_registerAttrList( MULTISENSOR_ENDPOINT, zclMultiSensor_NumAttributes, zclMultiSensor_Attrs );    
        ; Setup parameters for call to function zcl_registerAttrList
        MOV       R4,#zclMultiSensor_Attrs & 0xff
        MOV       R5,#(zclMultiSensor_Attrs >> 8) & 0xff
        MOV       DPTR,#zclMultiSensor_NumAttributes
        CLR       A
        MOVC      A,@A+DPTR
        MOV       R2,A
        MOV       R1,#0x8
        LCALL     `??zcl_registerAttrList::?relay`; Banked call to: zcl_registerAttrList
//  240   
//  241   // Register the Application to receive the unprocessed Foundation command/response messages
//  242   zcl_registerForMsg( zclMultiSensor_TaskID );
        ; Setup parameters for call to function zcl_registerForMsg
        MOV       DPTR,#zclMultiSensor_TaskID
        MOVX      A,@DPTR
        MOV       R1,A
        LCALL     `??zcl_registerForMsg::?relay`; Banked call to: zcl_registerForMsg
//  243     
//  244   // Register low voltage NV memory protection application callback
//  245   RegisterVoltageWarningCB( zclMultiSensor_BatteryWarningCB );
        ; Setup parameters for call to function RegisterVoltageWarningCB
        MOV       R2,#`??zclMultiSensor_BatteryWarningCB::?relay` & 0xff
        MOV       R3,#(`??zclMultiSensor_BatteryWarningCB::?relay` >> 8) & 0xff
        LCALL     `??RegisterVoltageWarningCB::?relay`; Banked call to: RegisterVoltageWarningCB
//  246   
//  247   // Register for all key events - This app will handle all key events
//  248   RegisterForKeys( zclMultiSensor_TaskID );
        ; Setup parameters for call to function RegisterForKeys
        MOV       DPTR,#zclMultiSensor_TaskID
        MOVX      A,@DPTR
        MOV       R1,A
        LCALL     `??RegisterForKeys::?relay`; Banked call to: RegisterForKeys
//  249   
//  250   zclMultiSensor_UART_Init();
        MOV       DPL,?XSP + 0
        MOV       DPH,?XSP + 1
        MOV       A,#0x1
        MOVX      @DPTR,A
        LCALL     ?XSTACK_DISP0_8
        MOV       A,#0x2
        MOVX      @DPTR,A
        LCALL     ?XSTACK_DISP0_8
        CLR       A
        MOVX      @DPTR,A
        MOV       A,#0x3
        LCALL     ?XSTACK_DISP0_8
        MOV       A,#0x30
        MOVX      @DPTR,A
        INC       DPTR
        CLR       A
        MOVX      @DPTR,A
        MOV       A,#0xa
        LCALL     ?XSTACK_DISP0_8
        MOV       A,#0x4b
        MOVX      @DPTR,A
        INC       DPTR
        CLR       A
        MOVX      @DPTR,A
        MOV       A,#0x12
        LCALL     ?XSTACK_DISP0_8
        MOV       A,#0x7
        MOVX      @DPTR,A
        INC       DPTR
        CLR       A
        MOVX      @DPTR,A
        MOV       A,#0x5
        LCALL     ?XSTACK_DISP0_8
        MOV       A,#0x6
        MOVX      @DPTR,A
        MOV       A,#0x16
        LCALL     ?XSTACK_DISP0_8
        MOV       A,#0x1
        MOVX      @DPTR,A
        MOV       A,#0x1b
        LCALL     ?XSTACK_DISP0_8
        MOV       A,#`??uartEventApplicationCB::?relay` & 0xff
        MOVX      @DPTR,A
        INC       DPTR
        MOV       A,#(`??uartEventApplicationCB::?relay` >> 8) & 0xff
        MOVX      @DPTR,A
        ; Setup parameters for call to function HalUARTOpen
        MOV       R2,?XSP + 0
        MOV       R3,?XSP + 1
        MOV       R1,#0x0
        LCALL     `??HalUARTOpen::?relay`; Banked call to: HalUARTOpen
//  251    
//  252 #ifdef ZCL_REPORT
//  253   // Register the application's config report record list
//  254   zcl_registerConfigReportRecList( MULTISENSOR_ENDPOINT,
//  255                                    zclMultiSensor_NumConfigReportRecs, zclMultiSensor_ConfigReportRecs );
        ; Setup parameters for call to function zcl_registerConfigReportRecList
        MOV       R4,#zclMultiSensor_ConfigReportRecs & 0xff
        MOV       R5,#(zclMultiSensor_ConfigReportRecs >> 8) & 0xff
        MOV       DPTR,#zclMultiSensor_NumConfigReportRecs
        CLR       A
        MOVC      A,@A+DPTR
        MOV       R2,A
        MOV       R1,#0x8
        LCALL     `??zcl_registerConfigReportRecList::?relay`; Banked call to: zcl_registerConfigReportRecList
//  256 #endif
//  257   
//  258   // Register commissioning status callback
//  259   bdb_RegisterCommissioningStatusCB( zclMultiSensor_ProcessCommissioningStatus );
        ; Setup parameters for call to function bdb_RegisterCommissioningStatusCB
        MOV       R2,#`??zclMultiSensor_ProcessCommissioningStatus::?r` & 0xff
        MOV       R3,#(`??zclMultiSensor_ProcessCommissioningStatus::?r` >> 8) & 0xff
        LCALL     `??bdb_RegisterCommissioningStatusCB::?relay`; Banked call to: bdb_RegisterCommissioningStatusCB
//  260   
//  261   //Register for Endpoints
//  262   afRegister( &multiSensor_Ep );
        ; Setup parameters for call to function afRegister
        MOV       R2,#multiSensor_Ep & 0xff
        MOV       R3,#(multiSensor_Ep >> 8) & 0xff
        LCALL     `??afRegister::?relay`; Banked call to: afRegister
//  263 
//  264   bdb_StartCommissioning( BDB_COMMISSIONING_MODE_NWK_STEERING);
        ; Setup parameters for call to function bdb_StartCommissioning
        MOV       R1,#0x2
        LCALL     `??bdb_StartCommissioning::?relay`; Banked call to: bdb_StartCommissioning
//  265   zdpExternalStateTaskID = zclMultiSensor_TaskID;
        MOV       DPTR,#zclMultiSensor_TaskID
        MOVX      A,@DPTR
        MOV       DPTR,#zdpExternalStateTaskID
        MOVX      @DPTR,A
        INC       DPTR
        CLR       A
        MOVX      @DPTR,A
//  266   
//  267 }
        MOV       A,#0x1d
        LCALL     ?DEALLOC_XSTACK8
          CFI CFA_XSP16 add(XSP16, 9)
        MOV       R7,#0x1
        LJMP      ?BANKED_LEAVE_XDATA
          CFI EndBlock cfiBlock0
//  268 
//  269 
//  270 /*********************************************************************
//  271  * @fn          zclSample_event_loop
//  272  *
//  273  * @brief       Event Loop Processor for zclGeneral.
//  274  *
//  275  * @param       none
//  276  *
//  277  * @return      none
//  278  */

        RSEG BANKED_CODE:HUGECODE:NOROOT(0)
//  279 uint16 zclMultiSensor_event_loop( uint8 task_id, uint16 events )
zclMultiSensor_event_loop:
          CFI Block cfiBlock1 Using cfiCommon0
          CFI Function zclMultiSensor_event_loop
        CODE
//  280 {
        FUNCALL zclMultiSensor_event_loop, bdb_ZedAttemptRecoverNwk
        LOCFRAME ISTACK, 0, STACK
        LOCFRAME PSTACK, 0, STACK
        LOCFRAME XSTACK, 17, STACK
        LOCFRAME IOVERLAY, 0, STATIC
        LOCFRAME DOVERLAY, 0, STATIC
        ARGFRAME ISTACK, 0, STACK
        ARGFRAME PSTACK, 0, STACK
        ARGFRAME XSTACK, 17, STACK
        ARGFRAME IOVERLAY, 0, STATIC
        ARGFRAME DOVERLAY, 0, STATIC
        FUNCALL zclMultiSensor_event_loop, osal_set_event
        LOCFRAME ISTACK, 0, STACK
        LOCFRAME PSTACK, 0, STACK
        LOCFRAME XSTACK, 17, STACK
        LOCFRAME IOVERLAY, 0, STATIC
        LOCFRAME DOVERLAY, 0, STATIC
        ARGFRAME ISTACK, 0, STACK
        ARGFRAME PSTACK, 0, STACK
        ARGFRAME XSTACK, 17, STACK
        ARGFRAME IOVERLAY, 0, STATIC
        ARGFRAME DOVERLAY, 0, STATIC
        FUNCALL zclMultiSensor_event_loop, osal_msg_deallocate
        LOCFRAME ISTACK, 0, STACK
        LOCFRAME PSTACK, 0, STACK
        LOCFRAME XSTACK, 17, STACK
        LOCFRAME IOVERLAY, 0, STATIC
        LOCFRAME DOVERLAY, 0, STATIC
        ARGFRAME ISTACK, 0, STACK
        ARGFRAME PSTACK, 0, STACK
        ARGFRAME XSTACK, 17, STACK
        ARGFRAME IOVERLAY, 0, STATIC
        ARGFRAME DOVERLAY, 0, STATIC
        FUNCALL zclMultiSensor_event_loop, osal_msg_receive
        LOCFRAME ISTACK, 0, STACK
        LOCFRAME PSTACK, 0, STACK
        LOCFRAME XSTACK, 17, STACK
        LOCFRAME IOVERLAY, 0, STATIC
        LOCFRAME DOVERLAY, 0, STATIC
        ARGFRAME ISTACK, 0, STACK
        ARGFRAME PSTACK, 0, STACK
        ARGFRAME XSTACK, 17, STACK
        ARGFRAME IOVERLAY, 0, STATIC
        ARGFRAME DOVERLAY, 0, STATIC
        FUNCALL zclMultiSensor_event_loop, zclMultiSensor_ProcessIncomingMsg
        LOCFRAME ISTACK, 0, STACK
        LOCFRAME PSTACK, 0, STACK
        LOCFRAME XSTACK, 17, STACK
        LOCFRAME IOVERLAY, 0, STATIC
        LOCFRAME DOVERLAY, 0, STATIC
        ARGFRAME ISTACK, 0, STACK
        ARGFRAME PSTACK, 0, STACK
        ARGFRAME XSTACK, 17, STACK
        ARGFRAME IOVERLAY, 0, STATIC
        ARGFRAME DOVERLAY, 0, STATIC
        FUNCALL zclMultiSensor_event_loop, zclMultiSensor_CheckReportConfig
        LOCFRAME ISTACK, 0, STACK
        LOCFRAME PSTACK, 0, STACK
        LOCFRAME XSTACK, 17, STACK
        LOCFRAME IOVERLAY, 0, STATIC
        LOCFRAME DOVERLAY, 0, STATIC
        ARGFRAME ISTACK, 0, STACK
        ARGFRAME PSTACK, 0, STACK
        ARGFRAME XSTACK, 17, STACK
        ARGFRAME IOVERLAY, 0, STATIC
        ARGFRAME DOVERLAY, 0, STATIC
        FUNCALL zclMultiSensor_event_loop, HalKeyRead
        LOCFRAME ISTACK, 0, STACK
        LOCFRAME PSTACK, 0, STACK
        LOCFRAME XSTACK, 17, STACK
        LOCFRAME IOVERLAY, 0, STATIC
        LOCFRAME DOVERLAY, 0, STATIC
        ARGFRAME ISTACK, 0, STACK
        ARGFRAME PSTACK, 0, STACK
        ARGFRAME XSTACK, 17, STACK
        ARGFRAME IOVERLAY, 0, STATIC
        ARGFRAME DOVERLAY, 0, STATIC
        FUNCALL zclMultiSensor_event_loop, osal_start_timerEx
        LOCFRAME ISTACK, 0, STACK
        LOCFRAME PSTACK, 0, STACK
        LOCFRAME XSTACK, 21, STACK
        LOCFRAME IOVERLAY, 0, STATIC
        LOCFRAME DOVERLAY, 0, STATIC
        ARGFRAME ISTACK, 0, STACK
        ARGFRAME PSTACK, 0, STACK
        ARGFRAME XSTACK, 21, STACK
        ARGFRAME IOVERLAY, 0, STATIC
        ARGFRAME DOVERLAY, 0, STATIC
        FUNCALL zclMultiSensor_event_loop, NLME_LeaveReq
        LOCFRAME ISTACK, 0, STACK
        LOCFRAME PSTACK, 0, STACK
        LOCFRAME XSTACK, 17, STACK
        LOCFRAME IOVERLAY, 0, STATIC
        LOCFRAME DOVERLAY, 0, STATIC
        ARGFRAME ISTACK, 0, STACK
        ARGFRAME PSTACK, 0, STACK
        ARGFRAME XSTACK, 17, STACK
        ARGFRAME IOVERLAY, 0, STATIC
        ARGFRAME DOVERLAY, 0, STATIC
        FUNCALL zclMultiSensor_event_loop, HalLedBlink
        LOCFRAME ISTACK, 0, STACK
        LOCFRAME PSTACK, 0, STACK
        LOCFRAME XSTACK, 17, STACK
        LOCFRAME IOVERLAY, 0, STATIC
        LOCFRAME DOVERLAY, 0, STATIC
        ARGFRAME ISTACK, 0, STACK
        ARGFRAME PSTACK, 0, STACK
        ARGFRAME XSTACK, 17, STACK
        ARGFRAME IOVERLAY, 0, STATIC
        ARGFRAME DOVERLAY, 0, STATIC
        FUNCALL zclMultiSensor_event_loop, zgWriteStartupOptions
        LOCFRAME ISTACK, 0, STACK
        LOCFRAME PSTACK, 0, STACK
        LOCFRAME XSTACK, 17, STACK
        LOCFRAME IOVERLAY, 0, STATIC
        LOCFRAME DOVERLAY, 0, STATIC
        ARGFRAME ISTACK, 0, STACK
        ARGFRAME PSTACK, 0, STACK
        ARGFRAME XSTACK, 17, STACK
        ARGFRAME IOVERLAY, 0, STATIC
        ARGFRAME DOVERLAY, 0, STATIC
        FUNCALL zclMultiSensor_event_loop, Onboard_soft_reset
        LOCFRAME ISTACK, 0, STACK
        LOCFRAME PSTACK, 0, STACK
        LOCFRAME XSTACK, 17, STACK
        LOCFRAME IOVERLAY, 0, STATIC
        LOCFRAME DOVERLAY, 0, STATIC
        ARGFRAME ISTACK, 0, STACK
        ARGFRAME PSTACK, 0, STACK
        ARGFRAME XSTACK, 17, STACK
        ARGFRAME IOVERLAY, 0, STATIC
        ARGFRAME DOVERLAY, 0, STATIC
        REQUIRE ?V0
        REQUIRE ?V1
        REQUIRE ?V2
        REQUIRE ?V3
        MOV       A,#-0xc
        LCALL     ?BANKED_ENTER_XDATA
          CFI DPH0 load(1, XDATA, add(CFA_XSP16, literal(-1)))
          CFI DPL0 load(1, XDATA, add(CFA_XSP16, literal(-2)))
          CFI ?BRET_EXT load(1, XDATA, add(CFA_XSP16, literal(-3)))
          CFI ?RET_HIGH load(1, XDATA, add(CFA_XSP16, literal(-4)))
          CFI ?RET_LOW load(1, XDATA, add(CFA_XSP16, literal(-5)))
          CFI R7 load(1, XDATA, add(CFA_XSP16, literal(-6)))
          CFI V3 load(1, XDATA, add(CFA_XSP16, literal(-7)))
          CFI V2 load(1, XDATA, add(CFA_XSP16, literal(-8)))
          CFI V1 load(1, XDATA, add(CFA_XSP16, literal(-9)))
          CFI V0 load(1, XDATA, add(CFA_XSP16, literal(-10)))
          CFI VB load(1, XDATA, add(CFA_XSP16, literal(-11)))
          CFI R6 load(1, XDATA, add(CFA_XSP16, literal(-12)))
          CFI CFA_SP SP+0
          CFI CFA_XSP16 add(XSP16, 12)
        ; Saved register size: 12
        ; Auto size: 5
        MOV       A,#-0x5
        LCALL     ?ALLOC_XSTACK8
          CFI CFA_XSP16 add(XSP16, 17)
        MOV       A,R2
        MOV       R6,A
        MOV       A,R3
        MOV       R7,A
//  281   afIncomingMSGPacket_t *MSGpkt;
//  282 
//  283   (void)task_id;  // Intentionally unreferenced parameter
//  284 
//  285   if ( events & SYS_EVENT_MSG )
        ANL       A,#0x80
        JNZ       ??zclMultiSensor_event_loop_0
//  286   {
//  287     while ( (MSGpkt = (afIncomingMSGPacket_t *)osal_msg_receive( zclMultiSensor_TaskID )) )
//  288     {
//  289       switch ( MSGpkt->hdr.event )
//  290       {
//  291         case ZCL_INCOMING_MSG:
//  292           // Incoming ZCL Foundation command/response messages
//  293           zclMultiSensor_ProcessIncomingMsg( (zclIncomingMsg_t *)MSGpkt );
//  294           break;
//  295           
//  296         case ZDO_STATE_CHANGE:
//  297            NwkStateShadow = (devStates_t)(MSGpkt->hdr.status);
//  298           break;
//  299           
//  300         case KEY_CHANGE:
//  301           zclMultiSensor_HandleKeys( ((keyChange_t *)MSGpkt)->state, ((keyChange_t *)MSGpkt)->keys );
//  302           break;
//  303 
//  304         default:
//  305           break;
//  306       }
//  307 
//  308       // Release the memory
//  309       osal_msg_deallocate( (uint8 *)MSGpkt );
//  310     }
//  311     
//  312     // return unprocessed events
//  313     return (events ^ SYS_EVENT_MSG);
//  314   }
//  315   
//  316 #if ZG_BUILD_ENDDEVICE_TYPE    
//  317   if ( events & MULTISENSOR_END_DEVICE_REJOIN_EVT )
        MOV       A,R2
        ANL       A,#0x2
        JZ        ??zclMultiSensor_event_loop_1
//  318   {
//  319     bdb_ZedAttemptRecoverNwk();
        ; Setup parameters for call to function bdb_ZedAttemptRecoverNwk
        LCALL     `??bdb_ZedAttemptRecoverNwk::?relay`; Banked call to: bdb_ZedAttemptRecoverNwk
//  320     return ( events ^ MULTISENSOR_END_DEVICE_REJOIN_EVT );
        MOV       A,R6
        XRL       A,#0x2
        LJMP      ??zclMultiSensor_event_loop_2 & 0xFFFF
//  321   }
??zclMultiSensor_event_loop_3:
        INC       DPTR
        INC       DPTR
        INC       DPTR
        MOVX      A,@DPTR
        MOV       C,0xE0 /* A   */.0
        JNC       ??zclMultiSensor_event_loop_4
        ; Setup parameters for call to function osal_set_event
        MOV       R2,#0x8
        MOV       R3,#0x0
        MOV       DPTR,#zclMultiSensor_TaskID
        MOVX      A,@DPTR
        MOV       R1,A
        LCALL     `??osal_set_event::?relay`; Banked call to: osal_set_event
??zclMultiSensor_event_loop_4:
        ; Setup parameters for call to function osal_msg_deallocate
        MOV       R2,?V0
        MOV       R3,?V1
        LCALL     `??osal_msg_deallocate::?relay`; Banked call to: osal_msg_deallocate
??zclMultiSensor_event_loop_0:
        ; Setup parameters for call to function osal_msg_receive
        MOV       DPTR,#zclMultiSensor_TaskID
        MOVX      A,@DPTR
        MOV       R1,A
        LCALL     `??osal_msg_receive::?relay`; Banked call to: osal_msg_receive
        MOV       ?V0,R2
        MOV       ?V1,R3
        MOV       A,R2
        ORL       A,R3
        JZ        ??zclMultiSensor_event_loop_5
        MOV       DPL,R2
        MOV       DPH,R3
        MOVX      A,@DPTR
        ADD       A,#-0x34
        JZ        ??zclMultiSensor_event_loop_6
        ADD       A,#0x74
        JZ        ??zclMultiSensor_event_loop_3
        ADD       A,#-0x11
        JZ        ??zclMultiSensor_event_loop_7
        SJMP      ??zclMultiSensor_event_loop_4
??zclMultiSensor_event_loop_6:
        ; Setup parameters for call to function zclMultiSensor_ProcessIncomingMsg
        LCALL     `??zclMultiSensor_ProcessIncomingMsg::?relay`; Banked call to: zclMultiSensor_ProcessIncomingMsg
        SJMP      ??zclMultiSensor_event_loop_4
??zclMultiSensor_event_loop_7:
        INC       DPTR
        MOVX      A,@DPTR
        MOV       DPTR,#NwkStateShadow
        MOVX      @DPTR,A
        SJMP      ??zclMultiSensor_event_loop_4
??zclMultiSensor_event_loop_5:
        MOV       A,R6
        MOV       R2,A
        MOV       A,R7
        XRL       A,#0x80
        LJMP      ??zclMultiSensor_event_loop_8 & 0xFFFF
//  322 #endif
//  323   
//  324   if ( events & MULTISENSOR_CHECK_REPORT__EVT )
??zclMultiSensor_event_loop_1:
        MOV       A,R2
        ANL       A,#0x4
        JZ        ??zclMultiSensor_event_loop_9
//  325   {
//  326     zclMultiSensor_CheckReportConfig();
        ; Setup parameters for call to function zclMultiSensor_CheckReportConfig
        LCALL     `??zclMultiSensor_CheckReportConfig::?relay`; Banked call to: zclMultiSensor_CheckReportConfig
//  327     return ( events ^ MULTISENSOR_CHECK_REPORT__EVT );
        MOV       A,R6
        XRL       A,#0x4
        SJMP      ??zclMultiSensor_event_loop_2
//  328   }
//  329   
//  330   if ( events & MULTISENSOR_CHECK_HOLD_KEY_EVT)
??zclMultiSensor_event_loop_9:
        MOV       A,R2
        ANL       A,#0x8
        JZ        ??zclMultiSensor_event_loop_10
//  331   {
//  332     if ( HalKeyRead() & HAL_KEY_SW_1 )
        ; Setup parameters for call to function HalKeyRead
        LCALL     `??HalKeyRead::?relay`; Banked call to: HalKeyRead
        MOV       A,R1
        MOV       R0,A
        MOV       C,0xE0 /* A   */.0
        MOV       DPTR,#holdKeyCounter
        MOVX      A,@DPTR
        JNC       ??zclMultiSensor_event_loop_11
//  333     {
//  334       holdKeyCounter++;
        INC       A
        MOVX      @DPTR,A
//  335       osal_start_timerEx( zclMultiSensor_TaskID, MULTISENSOR_CHECK_HOLD_KEY_EVT, 1000 );
        ; Setup parameters for call to function osal_start_timerEx
        MOV       DPTR,#__Constant_3e8
        LCALL     ?PUSH_XSTACK8_X_FOUR
          CFI CFA_XSP16 add(XSP16, 21)
        MOV       R2,#0x8
        LCALL     ?Subroutine20 & 0xFFFF
//  336     }
??CrossCallReturnLabel_25:
        LCALL     ?DEALLOC_XSTACK8
          CFI CFA_XSP16 add(XSP16, 17)
        SJMP      ??zclMultiSensor_event_loop_12
//  337     else {
//  338       if ( holdKeyCounter >= 5 )
??zclMultiSensor_event_loop_11:
        CLR       C
        SUBB      A,#0x5
        JC        ??zclMultiSensor_event_loop_13
//  339       {
//  340         if(NwkStateShadow == DEV_END_DEVICE)
        MOV       DPTR,#NwkStateShadow
        MOVX      A,@DPTR
        XRL       A,#0x6
        JNZ       ??zclMultiSensor_event_loop_14
//  341         {
//  342           NLME_LeaveReq_t leaveReq;        
//  343           leaveReq.extAddr = NULL;
        MOV       DPL,?XSP + 0
        MOV       DPH,?XSP + 1
        CLR       A
        MOVX      @DPTR,A
        INC       DPTR
        MOVX      @DPTR,A
//  344           leaveReq.removeChildren = FALSE;
        MOV       A,#0x2
        LCALL     ?XSTACK_DISP0_8
        CLR       A
        MOVX      @DPTR,A
//  345           leaveReq.rejoin = FALSE;
        MOV       A,#0x3
        LCALL     ?XSTACK_DISP0_8
        CLR       A
        MOVX      @DPTR,A
//  346           leaveReq.silent = FALSE;
        MOV       A,#0x4
        LCALL     ?XSTACK_DISP0_8
        CLR       A
        MOVX      @DPTR,A
//  347           if ( NLME_LeaveReq( &leaveReq ) == ZSuccess )
        ; Setup parameters for call to function NLME_LeaveReq
        MOV       R2,?XSP + 0
        MOV       R3,?XSP + 1
        LCALL     `??NLME_LeaveReq::?relay`; Banked call to: NLME_LeaveReq
        MOV       A,R1
        JNZ       ??zclMultiSensor_event_loop_13
//  348           {
//  349             HalLedBlink(HAL_LED_1, 12, 50, 100);
        ; Setup parameters for call to function HalLedBlink
        MOV       R4,#0x64
        MOV       R5,#0x0
        MOV       R3,#0x32
        MOV       R2,#0xc
        MOV       R1,#0x1
        LCALL     `??HalLedBlink::?relay`; Banked call to: HalLedBlink
        SJMP      ??zclMultiSensor_event_loop_13
//  350           }
//  351         }
//  352         else 
//  353         {
//  354         zgWriteStartupOptions( ZG_STARTUP_SET, ZCD_STARTOPT_DEFAULT_NETWORK_STATE | ZCD_STARTOPT_DEFAULT_CONFIG_STATE );
??zclMultiSensor_event_loop_14:
        ; Setup parameters for call to function zgWriteStartupOptions
        MOV       R2,#0x3
        MOV       R1,#-0x1
        LCALL     `??zgWriteStartupOptions::?relay`; Banked call to: zgWriteStartupOptions
//  355         SystemResetSoft();
        ; Setup parameters for call to function Onboard_soft_reset
        LCALL     Onboard_soft_reset & 0xFFFF
//  356         }
//  357       }
//  358       holdKeyCounter = 0;
??zclMultiSensor_event_loop_13:
        MOV       DPTR,#holdKeyCounter
        CLR       A
        MOVX      @DPTR,A
//  359     }
//  360    return ( events ^ MULTISENSOR_CHECK_HOLD_KEY_EVT );   
??zclMultiSensor_event_loop_12:
        MOV       A,R6
        XRL       A,#0x8
??zclMultiSensor_event_loop_2:
        MOV       R2,A
        MOV       A,R7
??zclMultiSensor_event_loop_8:
        MOV       R3,A
        SJMP      ??zclMultiSensor_event_loop_15
//  361   }
//  362   // Discard unknown events
//  363   return 0;
??zclMultiSensor_event_loop_10:
        MOV       R2,#0x0
        MOV       R3,#0x0
??zclMultiSensor_event_loop_15:
        MOV       A,#0x5
          CFI EndBlock cfiBlock1
        REQUIRE ?Subroutine0
        ; // Fall through to label ?Subroutine0
//  364 }

        RSEG BANKED_CODE:HUGECODE:NOROOT(0)
?Subroutine0:
          CFI Block cfiBlock2 Using cfiCommon0
          CFI NoFunction
          CFI CFA_SP SP+0
          CFI CFA_XSP16 add(XSP16, 17)
          CFI VB load(1, XDATA, add(CFA_XSP16, literal(-11)))
          CFI DPL0 load(1, XDATA, add(CFA_XSP16, literal(-2)))
          CFI DPH0 load(1, XDATA, add(CFA_XSP16, literal(-1)))
          CFI R6 load(1, XDATA, add(CFA_XSP16, literal(-12)))
          CFI R7 load(1, XDATA, add(CFA_XSP16, literal(-6)))
          CFI V0 load(1, XDATA, add(CFA_XSP16, literal(-10)))
          CFI V1 load(1, XDATA, add(CFA_XSP16, literal(-9)))
          CFI V2 load(1, XDATA, add(CFA_XSP16, literal(-8)))
          CFI V3 load(1, XDATA, add(CFA_XSP16, literal(-7)))
          CFI ?BRET_EXT load(1, XDATA, add(CFA_XSP16, literal(-3)))
          CFI ?RET_HIGH load(1, XDATA, add(CFA_XSP16, literal(-4)))
          CFI ?RET_LOW load(1, XDATA, add(CFA_XSP16, literal(-5)))
          CFI Invalid
        LCALL     ?DEALLOC_XSTACK8
          CFI CFA_XSP16 add(XSP16, 12)
          CFI Valid
        MOV       R7,#0x4
        LJMP      ?BANKED_LEAVE_XDATA
          CFI EndBlock cfiBlock2
//  365 
//  366 
//  367 /*********************************************************************
//  368  * @fn      zclMultiSensor_LcdDisplayMainMode
//  369  *
//  370  * @brief   Called to display the main screen on the LCD.
//  371  *
//  372  * @param   none
//  373  *
//  374  * @return  none
//  375  */

        RSEG BANKED_CODE:HUGECODE:NOROOT(0)
//  376 static void zclMultiSensor_ProcessCommissioningStatus(bdbCommissioningModeMsg_t* bdbCommissioningModeMsg)
zclMultiSensor_ProcessCommissioningStatus:
          CFI Block cfiBlock3 Using cfiCommon0
          CFI Function zclMultiSensor_ProcessCommissioningStatus
        CODE
//  377 {
        FUNCALL zclMultiSensor_ProcessCommissioningStatus, HalLedBlink
        LOCFRAME ISTACK, 2, STACK
        LOCFRAME PSTACK, 0, STACK
        LOCFRAME XSTACK, 0, STACK
        LOCFRAME IOVERLAY, 0, STATIC
        LOCFRAME DOVERLAY, 0, STATIC
        ARGFRAME ISTACK, 2, STACK
        ARGFRAME PSTACK, 0, STACK
        ARGFRAME XSTACK, 0, STACK
        ARGFRAME IOVERLAY, 0, STATIC
        ARGFRAME DOVERLAY, 0, STATIC
        FUNCALL zclMultiSensor_ProcessCommissioningStatus, osal_start_timerEx
        LOCFRAME ISTACK, 2, STACK
        LOCFRAME PSTACK, 0, STACK
        LOCFRAME XSTACK, 4, STACK
        LOCFRAME IOVERLAY, 0, STATIC
        LOCFRAME DOVERLAY, 0, STATIC
        ARGFRAME ISTACK, 2, STACK
        ARGFRAME PSTACK, 0, STACK
        ARGFRAME XSTACK, 4, STACK
        ARGFRAME IOVERLAY, 0, STATIC
        ARGFRAME DOVERLAY, 0, STATIC
        PUSH      DPL
          CFI DPL0 Frame(CFA_SP, 4)
          CFI CFA_SP SP+-4
        PUSH      DPH
          CFI DPH0 Frame(CFA_SP, 5)
          CFI CFA_SP SP+-5
        ; Saved register size: 2
        ; Auto size: 0
//  378     switch(bdbCommissioningModeMsg->bdbCommissioningMode)
        MOV       DPL,R2
        MOV       DPH,R3
        INC       DPTR
        MOVX      A,@DPTR
        DEC       A
        JZ        ??zclMultiSensor_ProcessCommissioningStatus_0
        ADD       A,#-0x4
        JZ        ??zclMultiSensor_ProcessCommissioningStatus_1
        SJMP      ??zclMultiSensor_ProcessCommissioningStatus_2
//  379     {
//  380       case BDB_COMMISSIONING_FORMATION:         // Not used
//  381         if(bdbCommissioningModeMsg->bdbCommissioningStatus == BDB_COMMISSIONING_SUCCESS)
//  382         {
//  383           //After formation, perform nwk steering again plus the remaining commissioning modes that has not been process yet
//  384         }
//  385         else
//  386         {
//  387           //Want to try other channels?
//  388           //try with bdb_setChannelAttribute
//  389         }
//  390       break;
//  391     case BDB_COMMISSIONING_NWK_STEERING:
//  392       if(bdbCommissioningModeMsg->bdbCommissioningStatus == BDB_COMMISSIONING_SUCCESS)
??zclMultiSensor_ProcessCommissioningStatus_0:
        MOV       DPL,R2
        MOV       DPH,R3
        MOVX      A,@DPTR
        JNZ       ??zclMultiSensor_ProcessCommissioningStatus_2
        SJMP      ??zclMultiSensor_ProcessCommissioningStatus_3
//  393       {
//  394         //YOUR JOB:
//  395         //We are on the nwk, what now?
//  396         //Flash 6 times to notify that this devigce is on network
//  397         HalLedBlink(HAL_LED_1, 6, 50, 200);
//  398       }
//  399         else
//  400         {
//  401           //See the possible errors for nwk steering procedure
//  402           //No suitable networks found
//  403           //Want to try other channels?
//  404           //try with bdb_setChannelAttribute
//  405         }
//  406       break;
//  407     case BDB_COMMISSIONING_FINDING_BINDING:
//  408         if(bdbCommissioningModeMsg->bdbCommissioningStatus == BDB_COMMISSIONING_SUCCESS)
//  409         {
//  410           //YOUR JOB:
//  411         }
//  412         else
//  413         {
//  414           //YOUR JOB:
//  415           //retry?, wait for user interaction?
//  416         }
//  417       break;
//  418     case BDB_COMMISSIONING_INITIALIZATION:
//  419         //Initialization notification can only be successful. Failure on initialization 
//  420         //only happens for ZED and is notified as BDB_COMMISSIONING_PARENT_LOST notification
//  421         
//  422         //YOUR JOB:
//  423         //We are on a network, what now?
//  424         
//  425       break;
//  426 #if ZG_BUILD_ENDDEVICE_TYPE    
//  427     case BDB_COMMISSIONING_PARENT_LOST:
//  428       if(bdbCommissioningModeMsg->bdbCommissioningStatus == BDB_COMMISSIONING_NETWORK_RESTORED)
??zclMultiSensor_ProcessCommissioningStatus_1:
        MOV       DPL,R2
        MOV       DPH,R3
        MOVX      A,@DPTR
        XRL       A,#0xd
        JNZ       ??zclMultiSensor_ProcessCommissioningStatus_4
//  429       {
//  430         //We did recover from losing parent
//  431         //Flash 6 times to notify this device is on network
//  432         HalLedBlink(HAL_LED_1, 6, 50, 200);
??zclMultiSensor_ProcessCommissioningStatus_3:
        ; Setup parameters for call to function HalLedBlink
        MOV       R4,#-0x38
        MOV       R5,#0x0
        MOV       R3,#0x32
        MOV       R2,#0x6
        MOV       R1,#0x1
        LCALL     `??HalLedBlink::?relay`; Banked call to: HalLedBlink
        SJMP      ??zclMultiSensor_ProcessCommissioningStatus_2
//  433       }
//  434       else
//  435       {
//  436         //Parent not found, attempt to rejoin again after a fixed delay
//  437         osal_start_timerEx(zclMultiSensor_TaskID, MULTISENSOR_END_DEVICE_REJOIN_EVT, MULTISENSOR_END_DEVICE_REJOIN_DELAY);
??zclMultiSensor_ProcessCommissioningStatus_4:
        ; Setup parameters for call to function osal_start_timerEx
        MOV       DPTR,#__Constant_3e8
        LCALL     ?PUSH_XSTACK8_X_FOUR
          CFI CFA_XSP16 add(XSP16, 4)
        MOV       R2,#0x2
        LCALL     ?Subroutine20 & 0xFFFF
//  438       }
//  439     break;
//  440 #endif 
//  441     }
??CrossCallReturnLabel_26:
        LCALL     ?DEALLOC_XSTACK8
          CFI CFA_XSP16 XSP16+0
//  442 }
??zclMultiSensor_ProcessCommissioningStatus_2:
          CFI EndBlock cfiBlock3
        REQUIRE ?Subroutine1
        ; // Fall through to label ?Subroutine1

        RSEG BANKED_CODE:HUGECODE:NOROOT(0)
?Subroutine1:
          CFI Block cfiBlock4 Using cfiCommon0
          CFI NoFunction
          CFI CFA_SP SP+-5
          CFI DPL0 Frame(CFA_SP, 4)
          CFI DPH0 Frame(CFA_SP, 5)
        POP       DPH
          CFI CFA_SP SP+-4
          CFI DPH0 SameValue
        POP       DPL
          CFI CFA_SP SP+-3
          CFI DPL0 SameValue
        LJMP      ?BRET
          CFI EndBlock cfiBlock4

        RSEG BANKED_CODE:HUGECODE:NOROOT(0)
?Subroutine20:
          CFI Block cfiCond5 Using cfiCommon0
          CFI Function zclMultiSensor_event_loop
          CFI Conditional ??CrossCallReturnLabel_25
          CFI R6 load(1, XDATA, add(CFA_XSP16, literal(-12)))
          CFI VB load(1, XDATA, add(CFA_XSP16, literal(-11)))
          CFI V0 load(1, XDATA, add(CFA_XSP16, literal(-10)))
          CFI V1 load(1, XDATA, add(CFA_XSP16, literal(-9)))
          CFI V2 load(1, XDATA, add(CFA_XSP16, literal(-8)))
          CFI V3 load(1, XDATA, add(CFA_XSP16, literal(-7)))
          CFI R7 load(1, XDATA, add(CFA_XSP16, literal(-6)))
          CFI ?RET_LOW load(1, XDATA, add(CFA_XSP16, literal(-5)))
          CFI ?RET_HIGH load(1, XDATA, add(CFA_XSP16, literal(-4)))
          CFI ?BRET_EXT load(1, XDATA, add(CFA_XSP16, literal(-3)))
          CFI DPL0 load(1, XDATA, add(CFA_XSP16, literal(-2)))
          CFI DPH0 load(1, XDATA, add(CFA_XSP16, literal(-1)))
          CFI CFA_SP SP+-2
          CFI CFA_XSP16 add(XSP16, 21)
          CFI Block cfiCond6 Using cfiCommon0
          CFI (cfiCond6) Function zclMultiSensor_ProcessCommissioningStatus
          CFI (cfiCond6) Conditional ??CrossCallReturnLabel_26
          CFI (cfiCond6) DPL0 Frame(CFA_SP, 4)
          CFI (cfiCond6) DPH0 Frame(CFA_SP, 5)
          CFI (cfiCond6) CFA_SP SP+-7
          CFI (cfiCond6) CFA_XSP16 add(XSP16, 4)
          CFI Block cfiCond7 Using cfiCommon0
          CFI (cfiCond7) Function zclMultiSensor_CheckReportConfig
          CFI (cfiCond7) Conditional ??CrossCallReturnLabel_27
          CFI (cfiCond7) R6 load(1, XDATA, add(CFA_XSP16, literal(-17)))
          CFI (cfiCond7) VB load(1, XDATA, add(CFA_XSP16, literal(-16)))
          CFI (cfiCond7) V0 load(1, XDATA, add(CFA_XSP16, literal(-15)))
          CFI (cfiCond7) V1 load(1, XDATA, add(CFA_XSP16, literal(-14)))
          CFI (cfiCond7) V2 load(1, XDATA, add(CFA_XSP16, literal(-13)))
          CFI (cfiCond7) V3 load(1, XDATA, add(CFA_XSP16, literal(-12)))
          CFI (cfiCond7) V4 load(1, XDATA, add(CFA_XSP16, literal(-11)))
          CFI (cfiCond7) V5 load(1, XDATA, add(CFA_XSP16, literal(-10)))
          CFI (cfiCond7) V6 load(1, XDATA, add(CFA_XSP16, literal(-9)))
          CFI (cfiCond7) V7 load(1, XDATA, add(CFA_XSP16, literal(-8)))
          CFI (cfiCond7) V8 load(1, XDATA, add(CFA_XSP16, literal(-7)))
          CFI (cfiCond7) R7 load(1, XDATA, add(CFA_XSP16, literal(-6)))
          CFI (cfiCond7) ?RET_LOW load(1, XDATA, add(CFA_XSP16, literal(-5)))
          CFI (cfiCond7) ?RET_HIGH load(1, XDATA, add(CFA_XSP16, literal(-4)))
          CFI (cfiCond7) ?BRET_EXT load(1, XDATA, add(CFA_XSP16, literal(-3)))
          CFI (cfiCond7) DPL0 load(1, XDATA, add(CFA_XSP16, literal(-2)))
          CFI (cfiCond7) DPH0 load(1, XDATA, add(CFA_XSP16, literal(-1)))
          CFI (cfiCond7) CFA_SP SP+-2
          CFI (cfiCond7) CFA_XSP16 add(XSP16, 21)
          CFI Block cfiPicker8 Using cfiCommon1
          CFI (cfiPicker8) NoFunction
          CFI (cfiPicker8) Picker
        MOV       R3,#0x0
        MOV       DPTR,#zclMultiSensor_TaskID
        MOVX      A,@DPTR
        MOV       R1,A
        LCALL     `??osal_start_timerEx::?relay`; Banked call to: osal_start_timerEx
        MOV       A,#0x4
        RET
          CFI EndBlock cfiCond5
          CFI EndBlock cfiCond6
          CFI EndBlock cfiCond7
          CFI EndBlock cfiPicker8
//  443 
//  444 /*********************************************************************
//  445  * @fn      zclMultiSensor_BasicResetCB
//  446  *
//  447  * @brief   Callback from the ZCL General Cluster Library
//  448  *          to set all the Basic Cluster attributes to default values.
//  449  *
//  450  * @param   none
//  451  *
//  452  * @return  none
//  453  */

        RSEG BANKED_CODE:HUGECODE:NOROOT(0)
//  454 static void zclMultiSensor_BasicResetCB( void )
zclMultiSensor_BasicResetCB:
          CFI Block cfiBlock9 Using cfiCommon0
          CFI Function zclMultiSensor_BasicResetCB
        CODE
//  455 {
        FUNCALL zclMultiSensor_BasicResetCB, zclMultiSensor_ResetAttributesToDefaultValues
        LOCFRAME ISTACK, 2, STACK
        LOCFRAME PSTACK, 0, STACK
        LOCFRAME XSTACK, 0, STACK
        LOCFRAME IOVERLAY, 0, STATIC
        LOCFRAME DOVERLAY, 0, STATIC
        ARGFRAME ISTACK, 2, STACK
        ARGFRAME PSTACK, 0, STACK
        ARGFRAME XSTACK, 0, STACK
        ARGFRAME IOVERLAY, 0, STATIC
        ARGFRAME DOVERLAY, 0, STATIC
        PUSH      DPL
          CFI DPL0 Frame(CFA_SP, 4)
          CFI CFA_SP SP+-4
        PUSH      DPH
          CFI DPH0 Frame(CFA_SP, 5)
          CFI CFA_SP SP+-5
        ; Saved register size: 2
        ; Auto size: 0
//  456   zclMultiSensor_ResetAttributesToDefaultValues();
        ; Setup parameters for call to function zclMultiSensor_ResetAttributesToDefaultValues
        LCALL     ??zclMultiSensor_ResetAttributesToDefaultValues; Banked call to: zclMultiSensor_ResetAttributesToDefaultValues
//  457 }
        SJMP      ?Subroutine1
          CFI EndBlock cfiBlock9
//  458 
//  459 /*********************************************************************
//  460  * @fn      zclMultiSensor_BatteryWarningCB
//  461  *
//  462  * @brief   Called to handle battery-low situation.
//  463  *
//  464  * @param   voltLevel - level of severity
//  465  *
//  466  * @return  none
//  467  */

        RSEG BANKED_CODE:HUGECODE:NOROOT(0)
//  468 void zclMultiSensor_BatteryWarningCB( uint8 voltLevel )
zclMultiSensor_BatteryWarningCB:
          CFI Block cfiBlock10 Using cfiCommon0
          CFI Function zclMultiSensor_BatteryWarningCB
        CODE
//  469 {
        ; Saved register size: 0
        ; Auto size: 0
//  470   if ( voltLevel == VOLT_LEVEL_CAUTIOUS )
//  471   {
//  472     // Send warning message to the gateway and blink LED
//  473   }
//  474   else if ( voltLevel == VOLT_LEVEL_BAD )
//  475   {
//  476     // Shut down the system
//  477   }
//  478 }
        LJMP      ?BRET
          CFI EndBlock cfiBlock10
//  479 
//  480 /******************************************************************************
//  481  *
//  482  *  Functions for processing ZCL Foundation incoming Command/Response messages
//  483  *
//  484  *****************************************************************************/
//  485 
//  486 /*********************************************************************
//  487  * @fn      zclMultiSensor_ProcessIncomingMsg
//  488  *
//  489  * @brief   Process ZCL Foundation incoming message
//  490  *
//  491  * @param   pInMsg - pointer to the received message
//  492  *
//  493  * @return  none
//  494  */

        RSEG BANKED_CODE:HUGECODE:NOROOT(0)
//  495 static void zclMultiSensor_ProcessIncomingMsg( zclIncomingMsg_t *pInMsg)
zclMultiSensor_ProcessIncomingMsg:
          CFI Block cfiBlock11 Using cfiCommon0
          CFI Function zclMultiSensor_ProcessIncomingMsg
        CODE
//  496 {
        FUNCALL zclMultiSensor_ProcessIncomingMsg, zclMultiSensor_ProcessInConfigReportCmd
        LOCFRAME ISTACK, 0, STACK
        LOCFRAME PSTACK, 0, STACK
        LOCFRAME XSTACK, 24, STACK
        LOCFRAME IOVERLAY, 0, STATIC
        LOCFRAME DOVERLAY, 0, STATIC
        ARGFRAME ISTACK, 0, STACK
        ARGFRAME PSTACK, 0, STACK
        ARGFRAME XSTACK, 24, STACK
        ARGFRAME IOVERLAY, 0, STATIC
        ARGFRAME DOVERLAY, 0, STATIC
        FUNCALL zclMultiSensor_ProcessIncomingMsg, osal_mem_free
        LOCFRAME ISTACK, 0, STACK
        LOCFRAME PSTACK, 0, STACK
        LOCFRAME XSTACK, 24, STACK
        LOCFRAME IOVERLAY, 0, STATIC
        LOCFRAME DOVERLAY, 0, STATIC
        ARGFRAME ISTACK, 0, STACK
        ARGFRAME PSTACK, 0, STACK
        ARGFRAME XSTACK, 24, STACK
        ARGFRAME IOVERLAY, 0, STATIC
        ARGFRAME DOVERLAY, 0, STATIC
        FUNCALL zclMultiSensor_ProcessIncomingMsg, zclMultiSensor_ProcessInReadReportCfgCmd
        LOCFRAME ISTACK, 0, STACK
        LOCFRAME PSTACK, 0, STACK
        LOCFRAME XSTACK, 24, STACK
        LOCFRAME IOVERLAY, 0, STATIC
        LOCFRAME DOVERLAY, 0, STATIC
        ARGFRAME ISTACK, 0, STACK
        ARGFRAME PSTACK, 0, STACK
        ARGFRAME XSTACK, 24, STACK
        ARGFRAME IOVERLAY, 0, STATIC
        ARGFRAME DOVERLAY, 0, STATIC
        FUNCALL zclMultiSensor_ProcessIncomingMsg, zcl_SendReportCmd
        LOCFRAME ISTACK, 0, STACK
        LOCFRAME PSTACK, 0, STACK
        LOCFRAME XSTACK, 29, STACK
        LOCFRAME IOVERLAY, 0, STATIC
        LOCFRAME DOVERLAY, 0, STATIC
        ARGFRAME ISTACK, 0, STACK
        ARGFRAME PSTACK, 0, STACK
        ARGFRAME XSTACK, 29, STACK
        ARGFRAME IOVERLAY, 0, STATIC
        ARGFRAME DOVERLAY, 0, STATIC
        REQUIRE ?V0
        REQUIRE ?V1
        REQUIRE ?V2
        REQUIRE ?V3
        MOV       A,#-0xc
        LCALL     ?BANKED_ENTER_XDATA
          CFI DPH0 load(1, XDATA, add(CFA_XSP16, literal(-1)))
          CFI DPL0 load(1, XDATA, add(CFA_XSP16, literal(-2)))
          CFI ?BRET_EXT load(1, XDATA, add(CFA_XSP16, literal(-3)))
          CFI ?RET_HIGH load(1, XDATA, add(CFA_XSP16, literal(-4)))
          CFI ?RET_LOW load(1, XDATA, add(CFA_XSP16, literal(-5)))
          CFI R7 load(1, XDATA, add(CFA_XSP16, literal(-6)))
          CFI V3 load(1, XDATA, add(CFA_XSP16, literal(-7)))
          CFI V2 load(1, XDATA, add(CFA_XSP16, literal(-8)))
          CFI V1 load(1, XDATA, add(CFA_XSP16, literal(-9)))
          CFI V0 load(1, XDATA, add(CFA_XSP16, literal(-10)))
          CFI VB load(1, XDATA, add(CFA_XSP16, literal(-11)))
          CFI R6 load(1, XDATA, add(CFA_XSP16, literal(-12)))
          CFI CFA_SP SP+0
          CFI CFA_XSP16 add(XSP16, 12)
        ; Saved register size: 12
        ; Auto size: 12
        MOV       A,#-0xc
        LCALL     ?ALLOC_XSTACK8
          CFI CFA_XSP16 add(XSP16, 24)
//  497   switch ( pInMsg->zclHdr.commandID )
        MOV       A,R2
        ADD       A,#0x17
        MOV       R6,A
        CLR       A
        ADDC      A,R3
        MOV       R7,A
        MOV       DPL,R2
        MOV       DPH,R3
        INC       DPTR
        INC       DPTR
        INC       DPTR
        INC       DPTR
        INC       DPTR
        INC       DPTR
        INC       DPTR
        MOVX      A,@DPTR
        DEC       A
        JZ        ??zclMultiSensor_ProcessIncomingMsg_0
        ADD       A,#-0x3
        JZ        ??zclMultiSensor_ProcessIncomingMsg_1
        ADD       A,#-0x2
        JZ        ??zclMultiSensor_ProcessIncomingMsg_2
        ADD       A,#-0x2
        JZ        ??zclMultiSensor_ProcessIncomingMsg_3
        ADD       A,#-0x2
        JZ        ??zclMultiSensor_ProcessIncomingMsg_4
        SJMP      ??zclMultiSensor_ProcessIncomingMsg_5
//  498   {
//  499 #ifdef ZCL_READ
//  500     case ZCL_CMD_READ_RSP:
//  501       zclMultiSensor_ProcessInReadRspCmd( pInMsg );
??zclMultiSensor_ProcessIncomingMsg_0:
        LCALL     ?Subroutine22 & 0xFFFF
??CrossCallReturnLabel_30:
        MOVX      A,@DPTR
        MOV       R1,A
        MOV       A,R0
        CLR       C
        SUBB      A,R1
        JNC       ??zclMultiSensor_ProcessIncomingMsg_5
        INC       R0
        SJMP      ??CrossCallReturnLabel_30
//  502       break;
//  503 #endif
//  504 #ifdef ZCL_WRITE
//  505     case ZCL_CMD_WRITE_RSP:
//  506       zclMultiSensor_ProcessInWriteRspCmd( pInMsg );
??zclMultiSensor_ProcessIncomingMsg_1:
        LCALL     ?Subroutine22 & 0xFFFF
??CrossCallReturnLabel_31:
        MOVX      A,@DPTR
        MOV       R1,A
        MOV       A,R0
        CLR       C
        SUBB      A,R1
        JNC       ??zclMultiSensor_ProcessIncomingMsg_5
        INC       R0
        SJMP      ??CrossCallReturnLabel_31
//  507       break;
//  508 #endif
//  509 #ifdef ZCL_REPORT
//  510     // See ZCL Test Applicaiton (zcl_testapp.c) for sample code on Attribute Reporting
//  511     case ZCL_CMD_CONFIG_REPORT:
//  512       zclMultiSensor_ProcessInConfigReportCmd( pInMsg );
??zclMultiSensor_ProcessIncomingMsg_2:
        ; Setup parameters for call to function zclMultiSensor_ProcessInConfigReportCmd
        LCALL     `??zclMultiSensor_ProcessInConfigReportCmd::?rel`; Banked call to: zclMultiSensor_ProcessInConfigReportCmd
//  513       break;
//  514       case ZCL_CMD_READ_REPORT_CFG:
//  515       zclMultiSensor_ProcessInReadReportCfgCmd( pInMsg );
//  516       break;
//  517     case ZCL_CMD_CONFIG_REPORT_RSP:
//  518       //zclMultiSensor_ProcessInConfigReportRspCmd( pInMsg );
//  519       break;
//  520     case ZCL_CMD_READ_REPORT_CFG_RSP:
//  521       //zclMultiSensor_ProcessInReadReportCfgRspCmd( pInMsg );
//  522       break;
//  523 
//  524     case ZCL_CMD_REPORT:
//  525       zclMultiSensor_ProcessInReportCmd( pInMsg );
//  526       break;
//  527 #endif
//  528     case ZCL_CMD_DEFAULT_RSP:
//  529       zclMultiSensor_ProcessInDefaultRspCmd( pInMsg );
//  530       break;
//  531       
//  532     default:
//  533       break;
//  534   }
//  535 
//  536   if ( pInMsg->attrCmd )
??zclMultiSensor_ProcessIncomingMsg_5:
        MOV       DPL,R6
        MOV       DPH,R7
        LCALL     ??Subroutine51_0 & 0xFFFF
??CrossCallReturnLabel_106:
        MOV       A,R2
        ORL       A,R3
        JZ        ??zclMultiSensor_ProcessIncomingMsg_6
//  537   {
//  538     osal_mem_free( pInMsg->attrCmd );
        ; Setup parameters for call to function osal_mem_free
        LCALL     `??osal_mem_free::?relay`; Banked call to: osal_mem_free
//  539   }
//  540 }
??zclMultiSensor_ProcessIncomingMsg_6:
        MOV       A,#0xc
        LJMP      ?Subroutine0 & 0xFFFF
??zclMultiSensor_ProcessIncomingMsg_3:
        ; Setup parameters for call to function zclMultiSensor_ProcessInReadReportCfgCmd
        LCALL     `??zclMultiSensor_ProcessInReadReportCfgCmd::?re`; Banked call to: zclMultiSensor_ProcessInReadReportCfgCmd
        SJMP      ??zclMultiSensor_ProcessIncomingMsg_5
??zclMultiSensor_ProcessIncomingMsg_4:
        MOV       DPL,R6
        MOV       DPH,R7
        MOVX      A,@DPTR
        MOV       ?V0,A
        INC       DPTR
        MOVX      A,@DPTR
        MOV       ?V1,A
        MOV       DPL,?XSP + 0
        MOV       DPH,?XSP + 1
        CLR       A
        MOVX      @DPTR,A
        INC       DPTR
        MOVX      @DPTR,A
        MOV       A,#0x8
        LCALL     ?XSTACK_DISP0_8
        MOV       A,#0x2
        MOVX      @DPTR,A
        MOV       A,R2
        ADD       A,#0x8
        MOV       R0,A
        CLR       A
        ADDC      A,R3
        MOV       R1,A
        MOV       A,R0
        MOV       R2,A
        MOV       A,R1
        MOV       DPL,R0
        MOV       DPH,A
        MOVX      A,@DPTR
        MOV       ?V2,A
        INC       DPTR
        MOVX      A,@DPTR
        MOV       ?V3,A
        MOV       R0,#?V2
        LCALL     ?US_SWITCH_SPARSE
`?<Jumptable for zclMultiSensor_ProcessIncoming_0`:
        DATA
        DATA16
        DATA
        DATA16
        DATA
        DATA16
        DW        0
        DATA
        DATA16
        DATA
        DATA16
        DATA
        DATA16
        DW        6
        DATA
        DATA16
        DATA
        DATA16
        DATA
        DATA16
        DW        1024
        DATA
        DATA16
        DATA
        DATA16
        DATA
        DATA16
        DW        ??zclMultiSensor_ProcessIncomingMsg_7
        DATA
        DATA16
        DATA
        DATA16
        DATA
        DATA16
        DW        1026
        DATA
        DATA16
        DATA
        DATA16
        DATA
        DATA16
        DW        ??zclMultiSensor_ProcessIncomingMsg_8
        DATA
        DATA16
        DATA
        DATA16
        DATA
        DATA16
        DW        1029
        DATA
        DATA16
        DATA
        DATA16
        DATA
        DATA16
        DW        ??zclMultiSensor_ProcessIncomingMsg_9
        DATA
        DATA16
        DATA
        DATA16
        DATA
        DATA16
        DW        1030
        DATA
        DATA16
        DATA
        DATA16
        DATA
        DATA16
        DW        ??zclMultiSensor_ProcessIncomingMsg_10
        DATA
        DATA16
        DATA
        DATA16
        DATA
        DATA16
        DW        3072
        DATA
        DATA16
        DATA
        DATA16
        DATA
        DATA16
        DW        ??zclMultiSensor_ProcessIncomingMsg_11
        DATA
        DATA16
        DATA
        DATA16
        DATA
        DATA16
        DW        3073
        DATA
        DATA16
        DATA
        DATA16
        DATA
        DATA16
        DW        ??zclMultiSensor_ProcessIncomingMsg_12
        DATA
        DATA16
        DATA
        DATA16
        DW        ??zclMultiSensor_ProcessIncomingMsg_13
        CODE
??zclMultiSensor_ProcessIncomingMsg_12:
        MOV       A,#0x9
        LCALL     ?XSTACK_DISP0_8
        MOV       A,#0x7
        SJMP      ??zclMultiSensor_ProcessIncomingMsg_14
??zclMultiSensor_ProcessIncomingMsg_11:
        MOV       A,#0x9
        LCALL     ?XSTACK_DISP0_8
        MOV       A,#0x6
        SJMP      ??zclMultiSensor_ProcessIncomingMsg_14
??zclMultiSensor_ProcessIncomingMsg_10:
        MOV       A,#0x9
        LCALL     ?XSTACK_DISP0_8
        MOV       A,#0x4
        SJMP      ??zclMultiSensor_ProcessIncomingMsg_14
??zclMultiSensor_ProcessIncomingMsg_9:
        MOV       A,#0x9
        LCALL     ?XSTACK_DISP0_8
        MOV       A,#0x3
        SJMP      ??zclMultiSensor_ProcessIncomingMsg_14
??zclMultiSensor_ProcessIncomingMsg_8:
        MOV       A,#0x9
        LCALL     ?XSTACK_DISP0_8
        MOV       A,#0x2
        SJMP      ??zclMultiSensor_ProcessIncomingMsg_14
??zclMultiSensor_ProcessIncomingMsg_7:
        MOV       A,#0x9
        LCALL     ?XSTACK_DISP0_8
        MOV       A,#0x1
??zclMultiSensor_ProcessIncomingMsg_14:
        MOVX      @DPTR,A
??zclMultiSensor_ProcessIncomingMsg_13:
        ; Setup parameters for call to function zcl_SendReportCmd
        MOV       ?V2,#0x0
        MOV       R0,#?V2
        LCALL     ?PUSH_XSTACK_I_ONE
          CFI CFA_XSP16 add(XSP16, 25)
        MOV       R0,#?V2
        LCALL     ?PUSH_XSTACK_I_ONE
          CFI CFA_XSP16 add(XSP16, 26)
        MOV       ?V2,#0x1
        MOV       R0,#?V2
        LCALL     ?PUSH_XSTACK_I_ONE
          CFI CFA_XSP16 add(XSP16, 27)
        MOV       R0,#?V0
        LCALL     ?PUSH_XSTACK_I_TWO
          CFI CFA_XSP16 add(XSP16, 29)
        MOV       DPL,R2
        MOV       DPH,R1
        LCALL     ??Subroutine53_0 & 0xFFFF
??CrossCallReturnLabel_112:
        MOV       A,#0x5
        LCALL     ?XSTACK_DISP101_8
        MOV       R1,#0x8
        LCALL     `??zcl_SendReportCmd::?relay`; Banked call to: zcl_SendReportCmd
        MOV       A,#0x5
        LCALL     ?DEALLOC_XSTACK8
          CFI CFA_XSP16 add(XSP16, 24)
        MOV       A,R1
        JNZ       $+5
        LJMP      ??zclMultiSensor_ProcessIncomingMsg_5 & 0xFFFF
??zclMultiSensor_ProcessIncomingMsg_15:
        SJMP      ??zclMultiSensor_ProcessIncomingMsg_15
          CFI EndBlock cfiBlock11

        RSEG BANKED_CODE:HUGECODE:NOROOT(0)
?Subroutine22:
          CFI Block cfiCond12 Using cfiCommon0
          CFI Function zclMultiSensor_ProcessIncomingMsg
          CFI Conditional ??CrossCallReturnLabel_30
          CFI R6 load(1, XDATA, add(CFA_XSP16, literal(-12)))
          CFI VB load(1, XDATA, add(CFA_XSP16, literal(-11)))
          CFI V0 load(1, XDATA, add(CFA_XSP16, literal(-10)))
          CFI V1 load(1, XDATA, add(CFA_XSP16, literal(-9)))
          CFI V2 load(1, XDATA, add(CFA_XSP16, literal(-8)))
          CFI V3 load(1, XDATA, add(CFA_XSP16, literal(-7)))
          CFI R7 load(1, XDATA, add(CFA_XSP16, literal(-6)))
          CFI ?RET_LOW load(1, XDATA, add(CFA_XSP16, literal(-5)))
          CFI ?RET_HIGH load(1, XDATA, add(CFA_XSP16, literal(-4)))
          CFI ?BRET_EXT load(1, XDATA, add(CFA_XSP16, literal(-3)))
          CFI DPL0 load(1, XDATA, add(CFA_XSP16, literal(-2)))
          CFI DPH0 load(1, XDATA, add(CFA_XSP16, literal(-1)))
          CFI CFA_SP SP+-2
          CFI CFA_XSP16 add(XSP16, 24)
          CFI Block cfiCond13 Using cfiCommon0
          CFI (cfiCond13) Function zclMultiSensor_ProcessIncomingMsg
          CFI (cfiCond13) Conditional ??CrossCallReturnLabel_31
          CFI (cfiCond13) R6 load(1, XDATA, add(CFA_XSP16, literal(-12)))
          CFI (cfiCond13) VB load(1, XDATA, add(CFA_XSP16, literal(-11)))
          CFI (cfiCond13) V0 load(1, XDATA, add(CFA_XSP16, literal(-10)))
          CFI (cfiCond13) V1 load(1, XDATA, add(CFA_XSP16, literal(-9)))
          CFI (cfiCond13) V2 load(1, XDATA, add(CFA_XSP16, literal(-8)))
          CFI (cfiCond13) V3 load(1, XDATA, add(CFA_XSP16, literal(-7)))
          CFI (cfiCond13) R7 load(1, XDATA, add(CFA_XSP16, literal(-6)))
          CFI (cfiCond13) ?RET_LOW load(1, XDATA, add(CFA_XSP16, literal(-5)))
          CFI (cfiCond13) ?RET_HIGH load(1, XDATA, add(CFA_XSP16, literal(-4)))
          CFI (cfiCond13) ?BRET_EXT load(1, XDATA, add(CFA_XSP16, literal(-3)))
          CFI (cfiCond13) DPL0 load(1, XDATA, add(CFA_XSP16, literal(-2)))
          CFI (cfiCond13) DPH0 load(1, XDATA, add(CFA_XSP16, literal(-1)))
          CFI (cfiCond13) CFA_SP SP+-2
          CFI (cfiCond13) CFA_XSP16 add(XSP16, 24)
          CFI Block cfiPicker14 Using cfiCommon1
          CFI (cfiPicker14) NoFunction
          CFI (cfiPicker14) Picker
        MOV       DPL,R6
        MOV       DPH,R7
        LCALL     ??Subroutine50_0 & 0xFFFF
??CrossCallReturnLabel_98:
        MOV       DPL,R0
        MOV       DPH,A
        MOV       R0,#0x0
        RET
          CFI EndBlock cfiCond12
          CFI EndBlock cfiCond13
          CFI EndBlock cfiPicker14
//  541 
//  542 #ifdef ZCL_READ
//  543 /*********************************************************************
//  544  * @fn      zclMultiSensor_ProcessInReadRspCmd
//  545  *
//  546  * @brief   Process the "Profile" Read Response Command
//  547  *
//  548  * @param   pInMsg - incoming message to process
//  549  *
//  550  * @return  none
//  551  */
//  552 static uint8 zclMultiSensor_ProcessInReadRspCmd( zclIncomingMsg_t *pInMsg )
//  553 {
//  554   zclReadRspCmd_t *readRspCmd;
//  555   uint8 i;
//  556 
//  557   readRspCmd = (zclReadRspCmd_t *)pInMsg->attrCmd;
//  558   for ( i = 0; i < readRspCmd->numAttr; i++ )
//  559   {
//  560     // Notify the originator of the results of the original read attributes
//  561     // attempt and, for each successfull request, the value of the requested
//  562     // attribute
//  563   }
//  564 
//  565   return ( TRUE );
//  566 }
//  567 #endif // ZCL_READ
//  568 
//  569 #ifdef ZCL_WRITE
//  570 /*********************************************************************
//  571  * @fn      zclMultiSensor_ProcessInWriteRspCmd
//  572  *
//  573  * @brief   Process the "Profile" Write Response Command
//  574  *
//  575  * @param   pInMsg - incoming message to process
//  576  *
//  577  * @return  none
//  578  */
//  579 static uint8 zclMultiSensor_ProcessInWriteRspCmd( zclIncomingMsg_t *pInMsg )
//  580 {
//  581   zclWriteRspCmd_t *writeRspCmd;
//  582   uint8 i;
//  583 
//  584   writeRspCmd = (zclWriteRspCmd_t *)pInMsg->attrCmd;
//  585   for ( i = 0; i < writeRspCmd->numAttr; i++ )
//  586   {
//  587     // Notify the device of the results of the its original write attributes
//  588     // command.
//  589   }
//  590 
//  591   return ( TRUE );
//  592 }
//  593 #endif // ZCL_WRITE
//  594 
//  595 /*********************************************************************
//  596  * @fn      zclMultiSensor_ProcessInDefaultRspCmd
//  597  *
//  598  * @brief   Process the "Profile" Default Response Command
//  599  *
//  600  * @param   pInMsg - incoming message to process
//  601  *
//  602  * @return  none
//  603  */
//  604 static uint8 zclMultiSensor_ProcessInDefaultRspCmd( zclIncomingMsg_t *pInMsg )
//  605 {
//  606   // zclDefaultRspCmd_t *defaultRspCmd = (zclDefaultRspCmd_t *)pInMsg->attrCmd;
//  607 
//  608   // Device is notified of the Default Response command.
//  609   (void)pInMsg;
//  610 
//  611   return ( TRUE );
//  612 }
//  613 
//  614 /*********************************************************************
//  615  * @fn      zclSampleTemperatureSensor_HandleKeys
//  616  *
//  617  * @brief   Handles all key events for this device.
//  618  *
//  619  * @param   shift - true if in shift/alt.
//  620  * @param   keys - bit field for key events. Valid entries:
//  621  *                 HAL_KEY_SW_5
//  622 *                 HAL_KEY_SW_4
//  623 *                 HAL_KEY_SW_3
//  624 *                 HAL_KEY_SW_2
//  625 *                 HAL_KEY_SW_1
//  626 *
//  627 * @return  none
//  628 */
//  629 static void zclMultiSensor_HandleKeys( byte shift, byte keys )
//  630 {
//  631   if ( keys & HAL_KEY_SW_1 )
//  632   {
//  633     osal_set_event( zclMultiSensor_TaskID, MULTISENSOR_CHECK_HOLD_KEY_EVT);
//  634   }
//  635 }
//  636 
//  637 static void zclMultiSensor_UART_Init(void)
//  638 {
//  639   halUARTCfg_t uartConfig;
//  640   
//  641   // configure UART
//  642   uartConfig.configured           = TRUE;
//  643   uartConfig.baudRate             = HAL_UART_BR_38400;
//  644   uartConfig.flowControl          = FALSE;
//  645   uartConfig.flowControlThreshold = 48;
//  646   uartConfig.rx.maxBufSize        = 75;
//  647   uartConfig.tx.maxBufSize        = 7;
//  648   uartConfig.idleTimeout          = 6;
//  649   uartConfig.intEnable            = TRUE;
//  650   uartConfig.callBackFunc         = uartEventApplicationCB;
//  651   
//  652   HalUARTOpen( HAL_UART_PORT_0, &uartConfig);
//  653 }
//  654 

        RSEG BANKED_CODE:HUGECODE:NOROOT(0)
//  655 void uartEventApplicationCB(uint8 port, uint8 event)
uartEventApplicationCB:
          CFI Block cfiBlock15 Using cfiCommon0
          CFI Function uartEventApplicationCB
        CODE
//  656 {
        FUNCALL uartEventApplicationCB, Hal_UART_RxBufLen
        LOCFRAME ISTACK, 0, STACK
        LOCFRAME PSTACK, 0, STACK
        LOCFRAME XSTACK, 25, STACK
        LOCFRAME IOVERLAY, 0, STATIC
        LOCFRAME DOVERLAY, 0, STATIC
        ARGFRAME ISTACK, 0, STACK
        ARGFRAME PSTACK, 0, STACK
        ARGFRAME XSTACK, 25, STACK
        ARGFRAME IOVERLAY, 0, STATIC
        ARGFRAME DOVERLAY, 0, STATIC
        FUNCALL uartEventApplicationCB, HalUARTRead
        LOCFRAME ISTACK, 0, STACK
        LOCFRAME PSTACK, 0, STACK
        LOCFRAME XSTACK, 25, STACK
        LOCFRAME IOVERLAY, 0, STATIC
        LOCFRAME DOVERLAY, 0, STATIC
        ARGFRAME ISTACK, 0, STACK
        ARGFRAME PSTACK, 0, STACK
        ARGFRAME XSTACK, 25, STACK
        ARGFRAME IOVERLAY, 0, STATIC
        ARGFRAME DOVERLAY, 0, STATIC
        FUNCALL uartEventApplicationCB, sendZclAttrChangeReport
        LOCFRAME ISTACK, 0, STACK
        LOCFRAME PSTACK, 0, STACK
        LOCFRAME XSTACK, 27, STACK
        LOCFRAME IOVERLAY, 0, STATIC
        LOCFRAME DOVERLAY, 0, STATIC
        ARGFRAME ISTACK, 0, STACK
        ARGFRAME PSTACK, 0, STACK
        ARGFRAME XSTACK, 27, STACK
        ARGFRAME IOVERLAY, 0, STATIC
        ARGFRAME DOVERLAY, 0, STATIC
        FUNCALL uartEventApplicationCB, sendZclAttrChangeReport
        LOCFRAME ISTACK, 0, STACK
        LOCFRAME PSTACK, 0, STACK
        LOCFRAME XSTACK, 27, STACK
        LOCFRAME IOVERLAY, 0, STATIC
        LOCFRAME DOVERLAY, 0, STATIC
        ARGFRAME ISTACK, 0, STACK
        ARGFRAME PSTACK, 0, STACK
        ARGFRAME XSTACK, 27, STACK
        ARGFRAME IOVERLAY, 0, STATIC
        ARGFRAME DOVERLAY, 0, STATIC
        FUNCALL uartEventApplicationCB, sendZclAttrChangeReport
        LOCFRAME ISTACK, 0, STACK
        LOCFRAME PSTACK, 0, STACK
        LOCFRAME XSTACK, 27, STACK
        LOCFRAME IOVERLAY, 0, STATIC
        LOCFRAME DOVERLAY, 0, STATIC
        ARGFRAME ISTACK, 0, STACK
        ARGFRAME PSTACK, 0, STACK
        ARGFRAME XSTACK, 27, STACK
        ARGFRAME IOVERLAY, 0, STATIC
        ARGFRAME DOVERLAY, 0, STATIC
        REQUIRE ?V0
        REQUIRE ?V1
        REQUIRE ?V2
        REQUIRE ?V3
        REQUIRE ?V4
        REQUIRE ?V5
        REQUIRE ?V6
        REQUIRE ?V7
        REQUIRE ?V8
        REQUIRE ?V9
        MOV       A,#-0x12
        LCALL     ?BANKED_ENTER_XDATA
          CFI DPH0 load(1, XDATA, add(CFA_XSP16, literal(-1)))
          CFI DPL0 load(1, XDATA, add(CFA_XSP16, literal(-2)))
          CFI ?BRET_EXT load(1, XDATA, add(CFA_XSP16, literal(-3)))
          CFI ?RET_HIGH load(1, XDATA, add(CFA_XSP16, literal(-4)))
          CFI ?RET_LOW load(1, XDATA, add(CFA_XSP16, literal(-5)))
          CFI R7 load(1, XDATA, add(CFA_XSP16, literal(-6)))
          CFI V9 load(1, XDATA, add(CFA_XSP16, literal(-7)))
          CFI V8 load(1, XDATA, add(CFA_XSP16, literal(-8)))
          CFI V7 load(1, XDATA, add(CFA_XSP16, literal(-9)))
          CFI V6 load(1, XDATA, add(CFA_XSP16, literal(-10)))
          CFI V5 load(1, XDATA, add(CFA_XSP16, literal(-11)))
          CFI V4 load(1, XDATA, add(CFA_XSP16, literal(-12)))
          CFI V3 load(1, XDATA, add(CFA_XSP16, literal(-13)))
          CFI V2 load(1, XDATA, add(CFA_XSP16, literal(-14)))
          CFI V1 load(1, XDATA, add(CFA_XSP16, literal(-15)))
          CFI V0 load(1, XDATA, add(CFA_XSP16, literal(-16)))
          CFI VB load(1, XDATA, add(CFA_XSP16, literal(-17)))
          CFI R6 load(1, XDATA, add(CFA_XSP16, literal(-18)))
          CFI CFA_SP SP+0
          CFI CFA_XSP16 add(XSP16, 18)
        ; Saved register size: 18
        ; Auto size: 7
        MOV       A,#-0x7
        LCALL     ?ALLOC_XSTACK8
          CFI CFA_XSP16 add(XSP16, 25)
        MOV       ?V3,R1
//  657     uint16 valueOfSensors[NUMBER_OF_SENSOR] = {0};
        MOV       DPTR,#`?<Constant {0, 0, 0}>`
        MOV       A,#0x1
        LCALL     ?XSTACK_DISP102_8
        MOV       A,#0x6
        LCALL     ?MOVE_LONG8_XDATA_XDATA
//  658     int16 valueOfTemp = 0;
        MOV       R6,A
        MOV       R7,A
//  659     uint16 valueOfHum = 0;
        MOV       ?V0,A
        MOV       ?V1,A
//  660     uint8 valueOfPir = 0;
        MOV       ?V2,#0x0
//  661     int fieldIndex = 0;         
        MOV       ?V4,A
        MOV       ?V5,A
//  662     
//  663     if ( event & HAL_UART_RX_TIMEOUT) 
        MOV       A,R2
        MOV       C,0xE0 /* A   */.2
        JC        ??uartEventApplicationCB_0
        LJMP      ??uartEventApplicationCB_1 & 0xFFFF
//  664     {
//  665       while ( Hal_UART_RxBufLen(port) > 0 )
//  666       {
//  667         uint8 ch;
//  668         HalUARTRead(port, &ch, 1);
//  669         
//  670         if ( ch >= '0' && ch <= '9' )     // is this an ascii digit between 0 and 9 ?
//  671         {
//  672           if ( uartFlag == UART_PERIOD )
//  673           {
//  674             valueOfSensors[fieldIndex] = (valueOfSensors[fieldIndex] * 10) + (ch - '0');
??uartEventApplicationCB_2:
        MOV       R0,?V4
        MOV       A,R0
        ADD       A,R0
        MOV       R0,A
        MOV       A,?V5
        RLC       A
        MOV       R1,A
        MOV       A,#0x1
        LCALL     ?XSTACK_DISP0_8
        MOV       A,DPL
        ADD       A,R0
        MOV       R0,A
        MOV       A,DPH
        ADDC      A,R1
        MOV       R1,A
        MOV       DPL,R0
        MOV       DPH,A
        LCALL     ??Subroutine53_0 & 0xFFFF
//  675           }
??CrossCallReturnLabel_113:
        MOV       A,R4
        MOV       B,#0xa
        MUL       AB
        MOV       R4,A
        MOV       ?V7,B
        MOV       B,#0xa
        MOV       A,R5
        MUL       AB
        ADD       A,?V7
        MOV       R5,A
        MOV       A,R4
        ADD       A,R2
        MOV       R2,A
        MOV       A,R5
        ADDC      A,R3
        MOV       R3,A
        MOV       DPL,R0
        MOV       DPH,R1
        MOV       A,R2
        MOVX      @DPTR,A
        INC       DPTR
        MOV       A,R3
??uartEventApplicationCB_3:
        MOVX      @DPTR,A
??uartEventApplicationCB_0:
        ; Setup parameters for call to function Hal_UART_RxBufLen
        MOV       R1,?V3
        LCALL     `??Hal_UART_RxBufLen::?relay`; Banked call to: Hal_UART_RxBufLen
        MOV       A,R2
        ORL       A,R3
        JNZ       $+5
        LJMP      ??uartEventApplicationCB_4 & 0xFFFF
        ; Setup parameters for call to function HalUARTRead
        MOV       R4,#0x1
        MOV       R5,#0x0
        MOV       R2,?XSP + 0
        MOV       R3,?XSP + 1
        MOV       R1,?V3
        LCALL     `??HalUARTRead::?relay`; Banked call to: HalUARTRead
        MOV       DPL,?XSP + 0
        MOV       DPH,?XSP + 1
        MOVX      A,@DPTR
        ADD       A,#-0x30
        CLR       C
        SUBB      A,#0xa
        MOVX      A,@DPTR
        JNC       ??uartEventApplicationCB_5
        MOV       R0,A
        ADD       A,#-0x30
        MOV       R2,A
        CLR       A
        ADDC      A,#-0x1
        MOV       R3,A
        MOV       DPTR,#uartFlag
        MOVX      A,@DPTR
        XRL       A,#0x1
        JZ        ??uartEventApplicationCB_2
//  676           else if ( uartFlag == UART_TEMP)
        MOVX      A,@DPTR
        XRL       A,#0x2
        JNZ       ??uartEventApplicationCB_6
//  677           {
//  678             valueOfTemp = ( valueOfTemp * 10 ) + (ch - '0');
        MOV       A,R6
        MOV       B,#0xa
        MUL       AB
        MOV       R6,A
        MOV       R2,B
        MOV       B,#0xa
        MOV       A,R7
        MUL       AB
        ADD       A,R2
        MOV       R7,A
        MOV       A,R6
        ADD       A,R0
        MOV       R0,A
        CLR       A
        ADDC      A,R7
        MOV       R1,A
        MOV       A,R0
        ADD       A,#-0x30
        MOV       R6,A
        MOV       A,R1
        ADDC      A,#-0x1
        MOV       R7,A
        SJMP      ??uartEventApplicationCB_0
//  679           }
//  680           else if ( uartFlag == UART_HUM )
??uartEventApplicationCB_6:
        MOVX      A,@DPTR
        XRL       A,#0x3
        JNZ       ??uartEventApplicationCB_7
//  681           {
//  682             valueOfHum = ( valueOfHum * 10 ) + (ch - '0');
        MOV       A,?V0
        MOV       B,#0xa
        MUL       AB
        MOV       ?V0,A
        MOV       R0,B
        MOV       B,#0xa
        MOV       A,?V1
        MUL       AB
        ADD       A,R0
        MOV       ?V1,A
        MOV       A,?V0
        ADD       A,R2
        MOV       ?V0,A
        MOV       A,?V1
        ADDC      A,R3
        MOV       ?V1,A
        SJMP      ??uartEventApplicationCB_0
//  683           }
//  684           else if ( uartFlag == UART_PIR )
??uartEventApplicationCB_7:
        MOVX      A,@DPTR
        XRL       A,#0x4
        JZ        $+5
        LJMP      ??uartEventApplicationCB_0 & 0xFFFF
//  685           {
//  686             valueOfPir = ( valueOfPir * 10 ) + (ch - '0');
        MOV       B,#0xa
        MOV       A,?V2
        MUL       AB
        ADD       A,R0
        ADD       A,#-0x30
        MOV       ?V2,A
        LJMP      ??uartEventApplicationCB_0 & 0xFFFF
//  687           }
//  688         }
//  689         else if (ch == ',')     // comma is our separator, so move on to the next field
??uartEventApplicationCB_5:
        XRL       A,#0x2c
        JNZ       ??uartEventApplicationCB_8
//  690         {
//  691           if ( uartFlag == UART_PERIOD )
        MOV       DPTR,#uartFlag
        MOVX      A,@DPTR
        XRL       A,#0x1
        JZ        $+5
        LJMP      ??uartEventApplicationCB_0 & 0xFFFF
//  692           {
//  693             if (fieldIndex < NUMBER_OF_SENSOR - 1)
        CLR       C
        MOV       A,?V4
        SUBB      A,#0x2
        MOV       A,?V5
        SUBB      A,#0x0
        MOV       C,0xD0 /* PSW */.2
        XRL       A,PSW
        RLC       A
        JC        $+5
        LJMP      ??uartEventApplicationCB_0 & 0xFFFF
//  694               fieldIndex++;       // increment field index
        INC       ?V4
        MOV       A,?V4
        JNZ       ??uartEventApplicationCB_9
        INC       ?V5
??uartEventApplicationCB_9:
        LJMP      ??uartEventApplicationCB_0 & 0xFFFF
//  695           }
//  696 
//  697         }
//  698         else if ( ch == 'O' )
??uartEventApplicationCB_8:
        MOVX      A,@DPTR
        XRL       A,#0x4f
        JNZ       ??uartEventApplicationCB_10
//  699         {
//  700           
//  701           uartFlag = UART_PIR;
        MOV       DPTR,#uartFlag
        MOV       A,#0x4
        LJMP      ??uartEventApplicationCB_3 & 0xFFFF
//  702         }
//  703         else if ( ch == 'P' )
??uartEventApplicationCB_10:
        MOVX      A,@DPTR
        XRL       A,#0x50
        JNZ       ??uartEventApplicationCB_11
//  704         {
//  705           uartFlag = UART_PERIOD;
        MOV       DPTR,#uartFlag
??uartEventApplicationCB_12:
        MOV       A,#0x1
        LJMP      ??uartEventApplicationCB_3 & 0xFFFF
//  706         }
//  707         else if ( ch == 'T' )
??uartEventApplicationCB_11:
        MOVX      A,@DPTR
        XRL       A,#0x54
        JNZ       ??uartEventApplicationCB_13
//  708         {
//  709           uartFlag = UART_TEMP;
        MOV       DPTR,#uartFlag
        MOV       A,#0x2
        LJMP      ??uartEventApplicationCB_3 & 0xFFFF
//  710         }
//  711         else if ( ch == 'H' )
??uartEventApplicationCB_13:
        MOVX      A,@DPTR
        XRL       A,#0x48
        JNZ       ??uartEventApplicationCB_14
//  712         {
//  713           uartFlag = UART_HUM;
        MOV       DPTR,#uartFlag
        MOV       A,#0x3
        LJMP      ??uartEventApplicationCB_3 & 0xFFFF
//  714         }
//  715         else if ( ch == '-' )
??uartEventApplicationCB_14:
        MOVX      A,@DPTR
        XRL       A,#0x2d
        JNZ       ??uartEventApplicationCB_15
//  716         {
//  717           signTempFlag = TRUE;
        MOV       DPTR,#signTempFlag
        SJMP      ??uartEventApplicationCB_12
//  718         }
//  719         else
//  720         {
//  721 //          // any character not a digit or comma ends the acquisition of fields
//  722 //          // In this project, it's the newline character sent by the STM32 MCU
//  723           if(uartFlag == UART_PERIOD )
??uartEventApplicationCB_15:
        MOV       DPTR,#uartFlag
        MOVX      A,@DPTR
        XRL       A,#0x1
        JNZ       ??uartEventApplicationCB_16
//  724           {
//  725             zclMultiSensor_Light_MeasuredValue = valueOfSensors[INDEX_LIGHT];
        MOV       A,#0x1
        LCALL     ?XSTACK_DISP0_8
        LCALL     ??Subroutine43_0 & 0xFFFF
??CrossCallReturnLabel_62:
        MOV       DPTR,#zclMultiSensor_Light_MeasuredValue
        LCALL     ??Subroutine46_0 & 0xFFFF
//  726             zclMultiSensor_TVOC_MeasuredValue = valueOfSensors[INDEX_TVOC];
??CrossCallReturnLabel_81:
        MOV       A,#0x3
        LCALL     ?XSTACK_DISP0_8
        LCALL     ??Subroutine43_0 & 0xFFFF
??CrossCallReturnLabel_63:
        MOV       DPTR,#zclMultiSensor_TVOC_MeasuredValue
        LCALL     ??Subroutine46_0 & 0xFFFF
//  727             zclMultiSensor_CO2_MeasuredValue = valueOfSensors[INDEX_CO2];
??CrossCallReturnLabel_82:
        MOV       A,#0x5
        LCALL     ?XSTACK_DISP0_8
        LCALL     ??Subroutine43_0 & 0xFFFF
//  728           }
??CrossCallReturnLabel_64:
        MOV       DPTR,#zclMultiSensor_CO2_MeasuredValue
        MOV       A,R0
        MOVX      @DPTR,A
        INC       DPTR
        MOV       A,R1
        LJMP      ??uartEventApplicationCB_3 & 0xFFFF
//  729           else if ( uartFlag == UART_HUM )
??uartEventApplicationCB_16:
        MOVX      A,@DPTR
        XRL       A,#0x3
        JNZ       ??uartEventApplicationCB_17
//  730           {
//  731             zclMultiSensor_Humidity_MeasuredValue = valueOfHum;
        MOV       DPTR,#zclMultiSensor_Humidity_MeasuredValue
        MOV       A,?V0
        MOVX      @DPTR,A
        INC       DPTR
        MOV       A,?V1
        MOVX      @DPTR,A
//  732             sendZclAttrChangeReport( ZCL_CLUSTER_ID_MS_RELATIVE_HUMIDITY, ATTRID_MS_RELATIVE_HUMIDITY_MEASURED_VALUE, (uint8 *)&zclMultiSensor_Humidity_MeasuredValue);
        ; Setup parameters for call to function sendZclAttrChangeReport
        MOV       ?V8,#zclMultiSensor_Humidity_MeasuredValue & 0xff
        MOV       ?V9,#(zclMultiSensor_Humidity_MeasuredValue >> 8) & 0xff
        MOV       R0,#?V8
        LCALL     ?PUSH_XSTACK_I_TWO
          CFI CFA_XSP16 add(XSP16, 27)
        MOV       R4,#0x0
        MOV       R5,#0x0
        MOV       R2,#0x5
??uartEventApplicationCB_18:
        MOV       R3,#0x4
        LCALL     `??sendZclAttrChangeReport::?relay`; Banked call to: sendZclAttrChangeReport
        MOV       A,#0x2
        LCALL     ?DEALLOC_XSTACK8
          CFI CFA_XSP16 add(XSP16, 25)
        LJMP      ??uartEventApplicationCB_0 & 0xFFFF
//  733           }
//  734           else if ( uartFlag == UART_TEMP )
??uartEventApplicationCB_17:
        MOVX      A,@DPTR
        XRL       A,#0x2
        JNZ       ??uartEventApplicationCB_19
//  735           {
//  736             if (signTempFlag)
        MOV       DPTR,#signTempFlag
        MOVX      A,@DPTR
        JZ        ??uartEventApplicationCB_20
//  737             {
//  738               zclMultiSensor_Temperature_MeasuredValue = (-1) * valueOfTemp;  
        CLR       C
        CLR       A
        SUBB      A,R6
        MOV       R0,A
        CLR       A
        SUBB      A,R7
        MOV       R1,A
        MOV       DPTR,#zclMultiSensor_Temperature_MeasuredValue
        MOV       A,R0
        MOVX      @DPTR,A
        INC       DPTR
        MOV       A,R1
        SJMP      ??uartEventApplicationCB_21
//  739             }
//  740             else
//  741             {
//  742               zclMultiSensor_Temperature_MeasuredValue = valueOfTemp;  
??uartEventApplicationCB_20:
        MOV       DPTR,#zclMultiSensor_Temperature_MeasuredValue
        MOV       A,R6
        MOVX      @DPTR,A
        INC       DPTR
        MOV       A,R7
??uartEventApplicationCB_21:
        MOVX      @DPTR,A
//  743             }
//  744             sendZclAttrChangeReport( ZCL_CLUSTER_ID_MS_TEMPERATURE_MEASUREMENT, ATTRID_MS_TEMPERATURE_MEASURED_VALUE, (uint8 *)&zclMultiSensor_Temperature_MeasuredValue);
        ; Setup parameters for call to function sendZclAttrChangeReport
        MOV       ?V8,#zclMultiSensor_Temperature_MeasuredValue & 0xff
        MOV       ?V9,#(zclMultiSensor_Temperature_MeasuredValue >> 8) & 0xff
        MOV       R0,#?V8
        LCALL     ?PUSH_XSTACK_I_TWO
          CFI CFA_XSP16 add(XSP16, 27)
        MOV       R4,#0x0
        MOV       R5,#0x0
        MOV       R2,#0x2
        SJMP      ??uartEventApplicationCB_18
          CFI CFA_XSP16 add(XSP16, 25)
//  745           }
//  746 
//  747           else if ( uartFlag == UART_PIR )
??uartEventApplicationCB_19:
        MOVX      A,@DPTR
        XRL       A,#0x4
        JZ        $+5
        LJMP      ??uartEventApplicationCB_0 & 0xFFFF
//  748           {
//  749             zclMultiSensor_Pir_Status = (uint8)valueOfPir;
        MOV       A,?V2
        MOV       DPTR,#zclMultiSensor_Pir_Status
        MOVX      @DPTR,A
//  750             sendZclAttrChangeReport( ZCL_CLUSTER_ID_MS_OCCUPANCY_SENSING, ATTRID_MS_OCCUPANCY_SENSING_CONFIG_OCCUPANCY, &zclMultiSensor_Pir_Status);
        ; Setup parameters for call to function sendZclAttrChangeReport
        MOV       ?V8,#zclMultiSensor_Pir_Status & 0xff
        MOV       ?V9,#(zclMultiSensor_Pir_Status >> 8) & 0xff
        MOV       R0,#?V8
        LCALL     ?PUSH_XSTACK_I_TWO
          CFI CFA_XSP16 add(XSP16, 27)
        MOV       R4,#0x0
        MOV       R5,#0x0
        MOV       R2,#0x6
        SJMP      ??uartEventApplicationCB_18
          CFI CFA_XSP16 add(XSP16, 25)
//  751           }
//  752         }
//  753       }
//  754       uartFlag = UART_NONE;
??uartEventApplicationCB_4:
        MOV       DPTR,#uartFlag
        CLR       A
        MOVX      @DPTR,A
//  755       signTempFlag = FALSE;
        MOV       DPTR,#signTempFlag
        MOVX      @DPTR,A
//  756     }
//  757 }
??uartEventApplicationCB_1:
        MOV       A,#0x7
        LCALL     ?DEALLOC_XSTACK8
          CFI CFA_XSP16 add(XSP16, 18)
        MOV       R7,#0xa
        LJMP      ?BANKED_LEAVE_XDATA
          CFI EndBlock cfiBlock15
//  758 
//  759 #ifdef ZCL_REPORT
//  760 /*********************************************************************
//  761 * @fn      zclMultiSensor_CheckAndSendClusterAttrReport
//  762 *
//  763 * @brief   Check if there is a reportable attribute in all cluster is timeout to report
//  764 *
//  765 * @param   none
//  766 *
//  767 * @return  none
//  768 */

        RSEG BANKED_CODE:HUGECODE:NOROOT(0)
//  769 static void zclMultiSensor_CheckAndSendClusterAttrReport( uint8 endpoint, uint16 clusterId,
zclMultiSensor_CheckAndSendClusterAttrReport:
          CFI Block cfiBlock16 Using cfiCommon0
          CFI Function zclMultiSensor_CheckAndSendClusterAttrReport
        CODE
//  770                                                                      zclConfigReportRecsList *pConfigReportRecsList )
//  771 {
        FUNCALL zclMultiSensor_CheckAndSendClusterAttrReport, osal_mem_alloc
        LOCFRAME ISTACK, 0, STACK
        LOCFRAME PSTACK, 0, STACK
        LOCFRAME XSTACK, 34, STACK
        LOCFRAME IOVERLAY, 0, STATIC
        LOCFRAME DOVERLAY, 0, STATIC
        ARGFRAME ISTACK, 0, STACK
        ARGFRAME PSTACK, 0, STACK
        ARGFRAME XSTACK, 34, STACK
        ARGFRAME IOVERLAY, 0, STATIC
        ARGFRAME DOVERLAY, 0, STATIC
        FUNCALL zclMultiSensor_CheckAndSendClusterAttrReport, osal_memset
        LOCFRAME ISTACK, 0, STACK
        LOCFRAME PSTACK, 0, STACK
        LOCFRAME XSTACK, 34, STACK
        LOCFRAME IOVERLAY, 0, STATIC
        LOCFRAME DOVERLAY, 0, STATIC
        ARGFRAME ISTACK, 0, STACK
        ARGFRAME PSTACK, 0, STACK
        ARGFRAME XSTACK, 34, STACK
        ARGFRAME IOVERLAY, 0, STATIC
        ARGFRAME DOVERLAY, 0, STATIC
        FUNCALL zclMultiSensor_CheckAndSendClusterAttrReport, zclFindAttrRec
        LOCFRAME ISTACK, 0, STACK
        LOCFRAME PSTACK, 0, STACK
        LOCFRAME XSTACK, 36, STACK
        LOCFRAME IOVERLAY, 0, STATIC
        LOCFRAME DOVERLAY, 0, STATIC
        ARGFRAME ISTACK, 0, STACK
        ARGFRAME PSTACK, 0, STACK
        ARGFRAME XSTACK, 36, STACK
        ARGFRAME IOVERLAY, 0, STATIC
        ARGFRAME DOVERLAY, 0, STATIC
        FUNCALL zclMultiSensor_CheckAndSendClusterAttrReport, SendZclAttrReport
        LOCFRAME ISTACK, 0, STACK
        LOCFRAME PSTACK, 0, STACK
        LOCFRAME XSTACK, 35, STACK
        LOCFRAME IOVERLAY, 0, STATIC
        LOCFRAME DOVERLAY, 0, STATIC
        ARGFRAME ISTACK, 0, STACK
        ARGFRAME PSTACK, 0, STACK
        ARGFRAME XSTACK, 35, STACK
        ARGFRAME IOVERLAY, 0, STATIC
        ARGFRAME DOVERLAY, 0, STATIC
        REQUIRE ?V0
        REQUIRE ?V1
        REQUIRE ?V2
        REQUIRE ?V3
        REQUIRE ?V4
        REQUIRE ?V6
        REQUIRE ?V7
        REQUIRE ?V8
        REQUIRE ?V9
        REQUIRE ?V10
        REQUIRE ?V11
        REQUIRE ?V12
        REQUIRE ?V13
        REQUIRE ?V14
        REQUIRE ?V15
        MOV       A,#-0x18
        LCALL     ?BANKED_ENTER_XDATA
          CFI DPH0 load(1, XDATA, add(CFA_XSP16, literal(-1)))
          CFI DPL0 load(1, XDATA, add(CFA_XSP16, literal(-2)))
          CFI ?BRET_EXT load(1, XDATA, add(CFA_XSP16, literal(-3)))
          CFI ?RET_HIGH load(1, XDATA, add(CFA_XSP16, literal(-4)))
          CFI ?RET_LOW load(1, XDATA, add(CFA_XSP16, literal(-5)))
          CFI R7 load(1, XDATA, add(CFA_XSP16, literal(-6)))
          CFI V15 load(1, XDATA, add(CFA_XSP16, literal(-7)))
          CFI V14 load(1, XDATA, add(CFA_XSP16, literal(-8)))
          CFI V13 load(1, XDATA, add(CFA_XSP16, literal(-9)))
          CFI V12 load(1, XDATA, add(CFA_XSP16, literal(-10)))
          CFI V11 load(1, XDATA, add(CFA_XSP16, literal(-11)))
          CFI V10 load(1, XDATA, add(CFA_XSP16, literal(-12)))
          CFI V9 load(1, XDATA, add(CFA_XSP16, literal(-13)))
          CFI V8 load(1, XDATA, add(CFA_XSP16, literal(-14)))
          CFI V7 load(1, XDATA, add(CFA_XSP16, literal(-15)))
          CFI V6 load(1, XDATA, add(CFA_XSP16, literal(-16)))
          CFI V5 load(1, XDATA, add(CFA_XSP16, literal(-17)))
          CFI V4 load(1, XDATA, add(CFA_XSP16, literal(-18)))
          CFI V3 load(1, XDATA, add(CFA_XSP16, literal(-19)))
          CFI V2 load(1, XDATA, add(CFA_XSP16, literal(-20)))
          CFI V1 load(1, XDATA, add(CFA_XSP16, literal(-21)))
          CFI V0 load(1, XDATA, add(CFA_XSP16, literal(-22)))
          CFI VB load(1, XDATA, add(CFA_XSP16, literal(-23)))
          CFI R6 load(1, XDATA, add(CFA_XSP16, literal(-24)))
          CFI CFA_SP SP+0
          CFI CFA_XSP16 add(XSP16, 24)
        ; Saved register size: 24
        ; Auto size: 10
        MOV       A,#-0xa
        LCALL     ?ALLOC_XSTACK8
          CFI CFA_XSP16 add(XSP16, 34)
        MOV       ?V4,R1
        MOV       ?V12,R2
        MOV       ?V13,R3
        MOV       ?V8,R4
        MOV       ?V9,R5
//  772   uint8 numAttr = 0;
        MOV       ?V0,#0x0
//  773   uint8 x;
//  774   uint16 len;
//  775   zclReportCmd_t *pReportCmd;
//  776   zclConfigReportRec_t *pConfigReportRec = NULL;
//  777   zclAttrRec_t attrRec;
//  778   
//  779   for (x = 0; x < pConfigReportRecsList->numConfigReportRec; x++)
        MOV       ?V1,#0x0
        SJMP      ??zclMultiSensor_CheckAndSendClusterAttrReport_0
//  780   {
//  781     pConfigReportRec = &(pConfigReportRecsList->configReportRecs[x]);
??zclMultiSensor_CheckAndSendClusterAttrReport_1:
        MOV       A,?V1
        MOV       B,#0x12
        MUL       AB
        MOV       R0,A
        MOV       R1,B
        MOV       DPL,R4
        MOV       DPH,R5
        LCALL     ?Subroutine16 & 0xFFFF
//  782     
//  783     if (pConfigReportRec->clusterId == clusterId &&
//  784         pConfigReportRec->cfgReportRec.maxReportInt != 0xFFFF)
??CrossCallReturnLabel_18:
        XRL       A,R2
        JNZ       ??zclMultiSensor_CheckAndSendClusterAttrReport_2
        INC       DPTR
        MOVX      A,@DPTR
        XRL       A,R3
??zclMultiSensor_CheckAndSendClusterAttrReport_2:
        JNZ       ??zclMultiSensor_CheckAndSendClusterAttrReport_3
        LCALL     ?Subroutine28 & 0xFFFF
??CrossCallReturnLabel_40:
        JNZ       ??zclMultiSensor_CheckAndSendClusterAttrReport_4
        INC       DPTR
        MOVX      A,@DPTR
        CPL       A
??zclMultiSensor_CheckAndSendClusterAttrReport_4:
        JZ        ??zclMultiSensor_CheckAndSendClusterAttrReport_3
//  785     {
//  786       if (pConfigReportRec->timeup == 0xFFFF || pConfigReportRec->timeup == gTimeCounter)
        MOV       DPL,?V2
        MOV       DPH,?V3
        INC       DPTR
        INC       DPTR
        LCALL     ?Subroutine26 & 0xFFFF
??CrossCallReturnLabel_38:
        JNZ       ??zclMultiSensor_CheckAndSendClusterAttrReport_5
        MOV       A,#-0x1
        XRL       A,R1
??zclMultiSensor_CheckAndSendClusterAttrReport_5:
        JZ        ??zclMultiSensor_CheckAndSendClusterAttrReport_6
        MOV       DPTR,#gTimeCounter
        MOVX      A,@DPTR
        XRL       A,R0
        JNZ       ??zclMultiSensor_CheckAndSendClusterAttrReport_7
        INC       DPTR
        MOVX      A,@DPTR
        XRL       A,R1
??zclMultiSensor_CheckAndSendClusterAttrReport_7:
        JNZ       ??zclMultiSensor_CheckAndSendClusterAttrReport_3
//  787       {
//  788         numAttr++;
??zclMultiSensor_CheckAndSendClusterAttrReport_6:
        INC       ?V0
//  789       }
//  790     }
//  791   }
??zclMultiSensor_CheckAndSendClusterAttrReport_3:
        INC       ?V1
??zclMultiSensor_CheckAndSendClusterAttrReport_0:
        MOV       DPL,R4
        MOV       DPH,R5
        INC       DPTR
        INC       DPTR
        INC       DPTR
        MOVX      A,@DPTR
        MOV       R0,A
        MOV       A,?V1
        CLR       C
        SUBB      A,R0
        JC        ??zclMultiSensor_CheckAndSendClusterAttrReport_1
//  792   
//  793   if (numAttr != 0)
        MOV       A,?V0
        JZ        ??zclMultiSensor_CheckAndSendClusterAttrReport_8
//  794   {
//  795     // we need to send a report - allocate space for it
//  796     len = sizeof(zclReportCmd_t) + (numAttr * sizeof(zclReport_t));
        MOV       B,#0x5
        MUL       AB
        MOV       R1,B
        ADD       A,#0x1
        MOV       R6,A
        CLR       A
        ADDC      A,R1
        MOV       R7,A
//  797     pReportCmd = (zclReportCmd_t *)zcl_mem_alloc( len );
        ; Setup parameters for call to function osal_mem_alloc
        MOV       A,R6
        MOV       R2,A
        MOV       A,R7
        MOV       R3,A
        LCALL     `??osal_mem_alloc::?relay`; Banked call to: osal_mem_alloc
        MOV       DPL,?XSP + 0
        MOV       DPH,?XSP + 1
        LCALL     ?Subroutine4 & 0xFFFF
//  798     pReportCmd->numAttr = numAttr;
//  799   }
??CrossCallReturnLabel_0:
        MOV       A,?V0
        MOVX      @DPTR,A
//  800   
//  801   numAttr = 0;
??zclMultiSensor_CheckAndSendClusterAttrReport_8:
        MOV       ?V0,#0x0
//  802   
//  803   for (x = 0; x < pConfigReportRecsList->numConfigReportRec; x++ )
        MOV       ?V1,#0x0
        SJMP      ??zclMultiSensor_CheckAndSendClusterAttrReport_9
//  804   {
//  805     zclReport_t *reportRec;
//  806     pConfigReportRec = &(pConfigReportRecsList->configReportRecs[x]);
//  807     
//  808     if (pConfigReportRec->clusterId == clusterId && pConfigReportRec->cfgReportRec.maxReportInt != 0xFFFF)      // need report
//  809     {
//  810       if (pConfigReportRec->timeup == 0xFFFF || pConfigReportRec->timeup == gTimeCounter)       //timeup to report
//  811       {
//  812         // fill the record in *pReportCmd
//  813         reportRec = &(pReportCmd->attrList[numAttr]);
//  814         zcl_memset( reportRec, 0, sizeof(zclReport_t));
//  815         numAttr++;
//  816         zclFindAttrRec(endpoint, pConfigReportRec->clusterId, pConfigReportRec->cfgReportRec.attrID, &attrRec);
//  817         
//  818         reportRec->attrID = attrRec.attr.attrId;
//  819         reportRec->dataType = attrRec.attr.dataType;
//  820         reportRec->attrData = attrRec.attr.dataPtr;
//  821         
//  822         if (pConfigReportRec->cfgReportRec.minReportInt == 0)
//  823           pConfigReportRec->timeup = gTimeCounter + pConfigReportRec->cfgReportRec.maxReportInt;
//  824         else
//  825           pConfigReportRec->timeup = gTimeCounter + pConfigReportRec->cfgReportRec.minReportInt;
??zclMultiSensor_CheckAndSendClusterAttrReport_10:
        MOVX      A,@DPTR
        ADD       A,R0
        MOV       R0,A
        INC       DPTR
        MOVX      A,@DPTR
        ADDC      A,R1
        MOV       R1,A
        MOV       DPL,?V14
        MOV       DPH,?V15
        LCALL     ??Subroutine46_0 & 0xFFFF
??CrossCallReturnLabel_83:
        INC       ?V1
??zclMultiSensor_CheckAndSendClusterAttrReport_9:
        MOV       DPL,?V8
        MOV       DPH,?V9
        INC       DPTR
        INC       DPTR
        INC       DPTR
        MOVX      A,@DPTR
        MOV       R0,A
        MOV       A,?V1
        CLR       C
        SUBB      A,R0
        JC        $+5
        LJMP      ??zclMultiSensor_CheckAndSendClusterAttrReport_11 & 0xFFFF
        MOV       A,?V1
        MOV       B,#0x12
        MUL       AB
        MOV       R0,A
        MOV       R1,B
        MOV       DPL,?V8
        MOV       DPH,?V9
        LCALL     ?Subroutine16 & 0xFFFF
??CrossCallReturnLabel_19:
        XRL       A,?V12
        JNZ       ??zclMultiSensor_CheckAndSendClusterAttrReport_12
        INC       DPTR
        MOVX      A,@DPTR
        XRL       A,?V13
??zclMultiSensor_CheckAndSendClusterAttrReport_12:
        JNZ       ??CrossCallReturnLabel_83
        LCALL     ?Subroutine28 & 0xFFFF
??CrossCallReturnLabel_41:
        JNZ       ??zclMultiSensor_CheckAndSendClusterAttrReport_13
        INC       DPTR
        MOVX      A,@DPTR
        CPL       A
??zclMultiSensor_CheckAndSendClusterAttrReport_13:
        JZ        ??CrossCallReturnLabel_83
        MOV       A,?V2
        ADD       A,#0x2
        MOV       ?V14,A
        CLR       A
        ADDC      A,?V3
        MOV       ?V15,A
        MOV       DPL,?V14
        MOV       DPH,A
        LCALL     ?Subroutine26 & 0xFFFF
??CrossCallReturnLabel_39:
        JNZ       ??zclMultiSensor_CheckAndSendClusterAttrReport_14
        MOV       A,#-0x1
        XRL       A,R1
??zclMultiSensor_CheckAndSendClusterAttrReport_14:
        JZ        ??zclMultiSensor_CheckAndSendClusterAttrReport_15
        MOV       DPTR,#gTimeCounter
        MOVX      A,@DPTR
        XRL       A,R0
        JNZ       ??zclMultiSensor_CheckAndSendClusterAttrReport_16
        INC       DPTR
        MOVX      A,@DPTR
        XRL       A,R1
??zclMultiSensor_CheckAndSendClusterAttrReport_16:
        JNZ       ??CrossCallReturnLabel_83
??zclMultiSensor_CheckAndSendClusterAttrReport_15:
        MOV       A,?V0
        MOV       B,#0x5
        MUL       AB
        MOV       R0,A
        MOV       R1,B
        MOV       DPL,?XSP + 0
        MOV       DPH,?XSP + 1
        MOVX      A,@DPTR
        ADD       A,R0
        MOV       R2,A
        INC       DPTR
        MOVX      A,@DPTR
        ADDC      A,R1
        MOV       DPL,R2
        MOV       DPH,A
        INC       DPTR
        MOV       ?V6,DPL
        MOV       ?V7,DPH
        ; Setup parameters for call to function osal_memset
        MOV       R4,#0x5
        MOV       R5,#0x0
        MOV       R1,#0x0
        MOV       R2,?V6
        MOV       R3,?V7
        LCALL     `??osal_memset::?relay`; Banked call to: osal_memset
        INC       ?V0
        ; Setup parameters for call to function zclFindAttrRec
        MOV       A,#0x2
        LCALL     ?XSTACK_DISP100_8
        MOV       ?V10,R0
        MOV       ?V11,R1
        MOV       R0,#?V10
        LCALL     ?PUSH_XSTACK_I_TWO
          CFI CFA_XSP16 add(XSP16, 36)
        MOV       DPL,?V2
        MOV       DPH,?V3
        LCALL     ??Subroutine52_0 & 0xFFFF
??CrossCallReturnLabel_116:
        MOV       DPL,?V2
        MOV       DPH,?V3
        LCALL     ??Subroutine51_0 & 0xFFFF
??CrossCallReturnLabel_107:
        MOV       R1,?V4
        LCALL     ?Subroutine29 & 0xFFFF
??CrossCallReturnLabel_42:
        LCALL     ?DEALLOC_XSTACK8
          CFI CFA_XSP16 add(XSP16, 34)
        MOV       A,#0x4
        LCALL     ?XSTACK_DISP0_8
        LCALL     ?Subroutine21 & 0xFFFF
??CrossCallReturnLabel_28:
        LCALL     ??Subroutine46_0 & 0xFFFF
??CrossCallReturnLabel_84:
        MOV       A,#0x6
        LCALL     ?XSTACK_DISP0_8
        MOVX      A,@DPTR
        MOV       DPL,?V6
        MOV       DPH,?V7
        INC       DPTR
        INC       DPTR
        MOVX      @DPTR,A
        MOV       A,#0x8
        LCALL     ?XSTACK_DISP0_8
        LCALL     ?Subroutine21 & 0xFFFF
??CrossCallReturnLabel_29:
        INC       DPTR
        INC       DPTR
        INC       DPTR
        MOV       A,R0
        MOVX      @DPTR,A
        INC       DPTR
        MOV       A,R1
        LCALL     ?Subroutine7 & 0xFFFF
??CrossCallReturnLabel_6:
        INC       DPTR
        INC       DPTR
        INC       DPTR
        INC       DPTR
        LCALL     ??Subroutine43_0 & 0xFFFF
??CrossCallReturnLabel_65:
        MOV       A,R0
        ORL       A,R1
        MOV       DPTR,#gTimeCounter
        JZ        $+5
        LJMP      ??zclMultiSensor_CheckAndSendClusterAttrReport_10 & 0xFFFF
        LCALL     ??Subroutine43_0 & 0xFFFF
//  826       }
//  827     }
//  828   }
??CrossCallReturnLabel_66:
        LCALL     ?Subroutine39 & 0xFFFF
??CrossCallReturnLabel_58:
        LJMP      ??zclMultiSensor_CheckAndSendClusterAttrReport_10 & 0xFFFF
//  829   
//  830   if (numAttr != 0)
??zclMultiSensor_CheckAndSendClusterAttrReport_11:
        MOV       A,?V0
        JZ        ??zclMultiSensor_CheckAndSendClusterAttrReport_17
//  831   {
//  832     SendZclAttrReport( endpoint, clusterId, pReportCmd, len);
        ; Setup parameters for call to function SendZclAttrReport
        MOV       A,R6
        MOV       ?V0,A
        MOV       R0,#?V0
        LCALL     ?PUSH_XSTACK_I_ONE
          CFI CFA_XSP16 add(XSP16, 35)
        MOV       A,#0x1
        LCALL     ?XSTACK_DISP0_8
        LCALL     ??Subroutine53_0 & 0xFFFF
//  833   }
??CrossCallReturnLabel_114:
        MOV       R2,?V12
        MOV       R3,?V13
        MOV       R1,?V4
        LCALL     `??SendZclAttrReport::?relay`; Banked call to: SendZclAttrReport
        MOV       A,#0x1
        LCALL     ?DEALLOC_XSTACK8
          CFI CFA_XSP16 add(XSP16, 34)
//  834 }
??zclMultiSensor_CheckAndSendClusterAttrReport_17:
          CFI EndBlock cfiBlock16
        REQUIRE ?Subroutine2
        ; // Fall through to label ?Subroutine2

        RSEG BANKED_CODE:HUGECODE:NOROOT(0)
?Subroutine2:
          CFI Block cfiBlock17 Using cfiCommon0
          CFI NoFunction
          CFI CFA_SP SP+0
          CFI CFA_XSP16 add(XSP16, 34)
          CFI VB load(1, XDATA, add(CFA_XSP16, literal(-23)))
          CFI DPL0 load(1, XDATA, add(CFA_XSP16, literal(-2)))
          CFI DPH0 load(1, XDATA, add(CFA_XSP16, literal(-1)))
          CFI R6 load(1, XDATA, add(CFA_XSP16, literal(-24)))
          CFI R7 load(1, XDATA, add(CFA_XSP16, literal(-6)))
          CFI V0 load(1, XDATA, add(CFA_XSP16, literal(-22)))
          CFI V1 load(1, XDATA, add(CFA_XSP16, literal(-21)))
          CFI V2 load(1, XDATA, add(CFA_XSP16, literal(-20)))
          CFI V3 load(1, XDATA, add(CFA_XSP16, literal(-19)))
          CFI V4 load(1, XDATA, add(CFA_XSP16, literal(-18)))
          CFI V5 load(1, XDATA, add(CFA_XSP16, literal(-17)))
          CFI V6 load(1, XDATA, add(CFA_XSP16, literal(-16)))
          CFI V7 load(1, XDATA, add(CFA_XSP16, literal(-15)))
          CFI V8 load(1, XDATA, add(CFA_XSP16, literal(-14)))
          CFI V9 load(1, XDATA, add(CFA_XSP16, literal(-13)))
          CFI V10 load(1, XDATA, add(CFA_XSP16, literal(-12)))
          CFI V11 load(1, XDATA, add(CFA_XSP16, literal(-11)))
          CFI V12 load(1, XDATA, add(CFA_XSP16, literal(-10)))
          CFI V13 load(1, XDATA, add(CFA_XSP16, literal(-9)))
          CFI V14 load(1, XDATA, add(CFA_XSP16, literal(-8)))
          CFI V15 load(1, XDATA, add(CFA_XSP16, literal(-7)))
          CFI ?BRET_EXT load(1, XDATA, add(CFA_XSP16, literal(-3)))
          CFI ?RET_HIGH load(1, XDATA, add(CFA_XSP16, literal(-4)))
          CFI ?RET_LOW load(1, XDATA, add(CFA_XSP16, literal(-5)))
        MOV       A,#0xa
          CFI EndBlock cfiBlock17
        REQUIRE ??Subroutine42_0
        ; // Fall through to label ??Subroutine42_0

        RSEG BANKED_CODE:HUGECODE:NOROOT(0)
??Subroutine42_0:
          CFI Block cfiBlock18 Using cfiCommon0
          CFI NoFunction
          CFI CFA_SP SP+0
          CFI CFA_XSP16 add(XSP16, 36)
          CFI VB load(1, XDATA, add(CFA_XSP16, literal(-23)))
          CFI DPL0 load(1, XDATA, add(CFA_XSP16, literal(-2)))
          CFI DPH0 load(1, XDATA, add(CFA_XSP16, literal(-1)))
          CFI R6 load(1, XDATA, add(CFA_XSP16, literal(-24)))
          CFI R7 load(1, XDATA, add(CFA_XSP16, literal(-6)))
          CFI V0 load(1, XDATA, add(CFA_XSP16, literal(-22)))
          CFI V1 load(1, XDATA, add(CFA_XSP16, literal(-21)))
          CFI V2 load(1, XDATA, add(CFA_XSP16, literal(-20)))
          CFI V3 load(1, XDATA, add(CFA_XSP16, literal(-19)))
          CFI V4 load(1, XDATA, add(CFA_XSP16, literal(-18)))
          CFI V5 load(1, XDATA, add(CFA_XSP16, literal(-17)))
          CFI V6 load(1, XDATA, add(CFA_XSP16, literal(-16)))
          CFI V7 load(1, XDATA, add(CFA_XSP16, literal(-15)))
          CFI V8 load(1, XDATA, add(CFA_XSP16, literal(-14)))
          CFI V9 load(1, XDATA, add(CFA_XSP16, literal(-13)))
          CFI V10 load(1, XDATA, add(CFA_XSP16, literal(-12)))
          CFI V11 load(1, XDATA, add(CFA_XSP16, literal(-11)))
          CFI V12 load(1, XDATA, add(CFA_XSP16, literal(-10)))
          CFI V13 load(1, XDATA, add(CFA_XSP16, literal(-9)))
          CFI V14 load(1, XDATA, add(CFA_XSP16, literal(-8)))
          CFI V15 load(1, XDATA, add(CFA_XSP16, literal(-7)))
          CFI ?BRET_EXT load(1, XDATA, add(CFA_XSP16, literal(-3)))
          CFI ?RET_HIGH load(1, XDATA, add(CFA_XSP16, literal(-4)))
          CFI ?RET_LOW load(1, XDATA, add(CFA_XSP16, literal(-5)))
          CFI Invalid
        LCALL     ?DEALLOC_XSTACK8
          CFI CFA_XSP16 add(XSP16, 24)
          CFI Valid
        MOV       R7,#0x10
        LJMP      ?BANKED_LEAVE_XDATA
          CFI EndBlock cfiBlock18

        RSEG BANKED_CODE:HUGECODE:NOROOT(0)
?Subroutine28:
          CFI Block cfiCond19 Using cfiCommon0
          CFI Function zclMultiSensor_CheckAndSendClusterAttrReport
          CFI Conditional ??CrossCallReturnLabel_40
          CFI R6 load(1, XDATA, add(CFA_XSP16, literal(-24)))
          CFI VB load(1, XDATA, add(CFA_XSP16, literal(-23)))
          CFI V0 load(1, XDATA, add(CFA_XSP16, literal(-22)))
          CFI V1 load(1, XDATA, add(CFA_XSP16, literal(-21)))
          CFI V2 load(1, XDATA, add(CFA_XSP16, literal(-20)))
          CFI V3 load(1, XDATA, add(CFA_XSP16, literal(-19)))
          CFI V4 load(1, XDATA, add(CFA_XSP16, literal(-18)))
          CFI V5 load(1, XDATA, add(CFA_XSP16, literal(-17)))
          CFI V6 load(1, XDATA, add(CFA_XSP16, literal(-16)))
          CFI V7 load(1, XDATA, add(CFA_XSP16, literal(-15)))
          CFI V8 load(1, XDATA, add(CFA_XSP16, literal(-14)))
          CFI V9 load(1, XDATA, add(CFA_XSP16, literal(-13)))
          CFI V10 load(1, XDATA, add(CFA_XSP16, literal(-12)))
          CFI V11 load(1, XDATA, add(CFA_XSP16, literal(-11)))
          CFI V12 load(1, XDATA, add(CFA_XSP16, literal(-10)))
          CFI V13 load(1, XDATA, add(CFA_XSP16, literal(-9)))
          CFI V14 load(1, XDATA, add(CFA_XSP16, literal(-8)))
          CFI V15 load(1, XDATA, add(CFA_XSP16, literal(-7)))
          CFI R7 load(1, XDATA, add(CFA_XSP16, literal(-6)))
          CFI ?RET_LOW load(1, XDATA, add(CFA_XSP16, literal(-5)))
          CFI ?RET_HIGH load(1, XDATA, add(CFA_XSP16, literal(-4)))
          CFI ?BRET_EXT load(1, XDATA, add(CFA_XSP16, literal(-3)))
          CFI DPL0 load(1, XDATA, add(CFA_XSP16, literal(-2)))
          CFI DPH0 load(1, XDATA, add(CFA_XSP16, literal(-1)))
          CFI CFA_SP SP+-2
          CFI CFA_XSP16 add(XSP16, 34)
          CFI Block cfiCond20 Using cfiCommon0
          CFI (cfiCond20) Function zclMultiSensor_CheckAndSendClusterAttrReport
          CFI (cfiCond20) Conditional ??CrossCallReturnLabel_41
          CFI (cfiCond20) R6 load(1, XDATA, add(CFA_XSP16, literal(-24)))
          CFI (cfiCond20) VB load(1, XDATA, add(CFA_XSP16, literal(-23)))
          CFI (cfiCond20) V0 load(1, XDATA, add(CFA_XSP16, literal(-22)))
          CFI (cfiCond20) V1 load(1, XDATA, add(CFA_XSP16, literal(-21)))
          CFI (cfiCond20) V2 load(1, XDATA, add(CFA_XSP16, literal(-20)))
          CFI (cfiCond20) V3 load(1, XDATA, add(CFA_XSP16, literal(-19)))
          CFI (cfiCond20) V4 load(1, XDATA, add(CFA_XSP16, literal(-18)))
          CFI (cfiCond20) V5 load(1, XDATA, add(CFA_XSP16, literal(-17)))
          CFI (cfiCond20) V6 load(1, XDATA, add(CFA_XSP16, literal(-16)))
          CFI (cfiCond20) V7 load(1, XDATA, add(CFA_XSP16, literal(-15)))
          CFI (cfiCond20) V8 load(1, XDATA, add(CFA_XSP16, literal(-14)))
          CFI (cfiCond20) V9 load(1, XDATA, add(CFA_XSP16, literal(-13)))
          CFI (cfiCond20) V10 load(1, XDATA, add(CFA_XSP16, literal(-12)))
          CFI (cfiCond20) V11 load(1, XDATA, add(CFA_XSP16, literal(-11)))
          CFI (cfiCond20) V12 load(1, XDATA, add(CFA_XSP16, literal(-10)))
          CFI (cfiCond20) V13 load(1, XDATA, add(CFA_XSP16, literal(-9)))
          CFI (cfiCond20) V14 load(1, XDATA, add(CFA_XSP16, literal(-8)))
          CFI (cfiCond20) V15 load(1, XDATA, add(CFA_XSP16, literal(-7)))
          CFI (cfiCond20) R7 load(1, XDATA, add(CFA_XSP16, literal(-6)))
          CFI (cfiCond20) ?RET_LOW load(1, XDATA, add(CFA_XSP16, literal(-5)))
          CFI (cfiCond20) ?RET_HIGH load(1, XDATA, add(CFA_XSP16, literal(-4)))
          CFI (cfiCond20) ?BRET_EXT load(1, XDATA, add(CFA_XSP16, literal(-3)))
          CFI (cfiCond20) DPL0 load(1, XDATA, add(CFA_XSP16, literal(-2)))
          CFI (cfiCond20) DPH0 load(1, XDATA, add(CFA_XSP16, literal(-1)))
          CFI (cfiCond20) CFA_SP SP+-2
          CFI (cfiCond20) CFA_XSP16 add(XSP16, 34)
          CFI Block cfiPicker21 Using cfiCommon1
          CFI (cfiPicker21) NoFunction
          CFI (cfiPicker21) Picker
        LCALL     ?Subroutine39 & 0xFFFF
??CrossCallReturnLabel_59:
        MOVX      A,@DPTR
        CPL       A
        RET
          CFI EndBlock cfiCond19
          CFI EndBlock cfiCond20
          CFI EndBlock cfiPicker21

        RSEG BANKED_CODE:HUGECODE:NOROOT(0)
?Subroutine39:
          CFI Block cfiCond22 Using cfiCommon0
          CFI Function zclMultiSensor_CheckAndSendClusterAttrReport
          CFI Conditional ??CrossCallReturnLabel_58
          CFI R6 load(1, XDATA, add(CFA_XSP16, literal(-24)))
          CFI VB load(1, XDATA, add(CFA_XSP16, literal(-23)))
          CFI V0 load(1, XDATA, add(CFA_XSP16, literal(-22)))
          CFI V1 load(1, XDATA, add(CFA_XSP16, literal(-21)))
          CFI V2 load(1, XDATA, add(CFA_XSP16, literal(-20)))
          CFI V3 load(1, XDATA, add(CFA_XSP16, literal(-19)))
          CFI V4 load(1, XDATA, add(CFA_XSP16, literal(-18)))
          CFI V5 load(1, XDATA, add(CFA_XSP16, literal(-17)))
          CFI V6 load(1, XDATA, add(CFA_XSP16, literal(-16)))
          CFI V7 load(1, XDATA, add(CFA_XSP16, literal(-15)))
          CFI V8 load(1, XDATA, add(CFA_XSP16, literal(-14)))
          CFI V9 load(1, XDATA, add(CFA_XSP16, literal(-13)))
          CFI V10 load(1, XDATA, add(CFA_XSP16, literal(-12)))
          CFI V11 load(1, XDATA, add(CFA_XSP16, literal(-11)))
          CFI V12 load(1, XDATA, add(CFA_XSP16, literal(-10)))
          CFI V13 load(1, XDATA, add(CFA_XSP16, literal(-9)))
          CFI V14 load(1, XDATA, add(CFA_XSP16, literal(-8)))
          CFI V15 load(1, XDATA, add(CFA_XSP16, literal(-7)))
          CFI R7 load(1, XDATA, add(CFA_XSP16, literal(-6)))
          CFI ?RET_LOW load(1, XDATA, add(CFA_XSP16, literal(-5)))
          CFI ?RET_HIGH load(1, XDATA, add(CFA_XSP16, literal(-4)))
          CFI ?BRET_EXT load(1, XDATA, add(CFA_XSP16, literal(-3)))
          CFI DPL0 load(1, XDATA, add(CFA_XSP16, literal(-2)))
          CFI DPH0 load(1, XDATA, add(CFA_XSP16, literal(-1)))
          CFI CFA_SP SP+-2
          CFI CFA_XSP16 add(XSP16, 34)
          CFI Block cfiCond23 Using cfiCommon0
          CFI (cfiCond23) Function zclMultiSensor_CheckAndSendClusterAttrReport
          CFI (cfiCond23) Conditional ??CrossCallReturnLabel_59, ??CrossCallReturnLabel_40
          CFI (cfiCond23) R6 load(1, XDATA, add(CFA_XSP16, literal(-24)))
          CFI (cfiCond23) VB load(1, XDATA, add(CFA_XSP16, literal(-23)))
          CFI (cfiCond23) V0 load(1, XDATA, add(CFA_XSP16, literal(-22)))
          CFI (cfiCond23) V1 load(1, XDATA, add(CFA_XSP16, literal(-21)))
          CFI (cfiCond23) V2 load(1, XDATA, add(CFA_XSP16, literal(-20)))
          CFI (cfiCond23) V3 load(1, XDATA, add(CFA_XSP16, literal(-19)))
          CFI (cfiCond23) V4 load(1, XDATA, add(CFA_XSP16, literal(-18)))
          CFI (cfiCond23) V5 load(1, XDATA, add(CFA_XSP16, literal(-17)))
          CFI (cfiCond23) V6 load(1, XDATA, add(CFA_XSP16, literal(-16)))
          CFI (cfiCond23) V7 load(1, XDATA, add(CFA_XSP16, literal(-15)))
          CFI (cfiCond23) V8 load(1, XDATA, add(CFA_XSP16, literal(-14)))
          CFI (cfiCond23) V9 load(1, XDATA, add(CFA_XSP16, literal(-13)))
          CFI (cfiCond23) V10 load(1, XDATA, add(CFA_XSP16, literal(-12)))
          CFI (cfiCond23) V11 load(1, XDATA, add(CFA_XSP16, literal(-11)))
          CFI (cfiCond23) V12 load(1, XDATA, add(CFA_XSP16, literal(-10)))
          CFI (cfiCond23) V13 load(1, XDATA, add(CFA_XSP16, literal(-9)))
          CFI (cfiCond23) V14 load(1, XDATA, add(CFA_XSP16, literal(-8)))
          CFI (cfiCond23) V15 load(1, XDATA, add(CFA_XSP16, literal(-7)))
          CFI (cfiCond23) R7 load(1, XDATA, add(CFA_XSP16, literal(-6)))
          CFI (cfiCond23) ?RET_LOW load(1, XDATA, add(CFA_XSP16, literal(-5)))
          CFI (cfiCond23) ?RET_HIGH load(1, XDATA, add(CFA_XSP16, literal(-4)))
          CFI (cfiCond23) ?BRET_EXT load(1, XDATA, add(CFA_XSP16, literal(-3)))
          CFI (cfiCond23) DPL0 load(1, XDATA, add(CFA_XSP16, literal(-2)))
          CFI (cfiCond23) DPH0 load(1, XDATA, add(CFA_XSP16, literal(-1)))
          CFI (cfiCond23) CFA_SP SP+-4
          CFI (cfiCond23) CFA_XSP16 add(XSP16, 34)
          CFI Block cfiCond24 Using cfiCommon0
          CFI (cfiCond24) Function zclMultiSensor_CheckAndSendClusterAttrReport
          CFI (cfiCond24) Conditional ??CrossCallReturnLabel_59, ??CrossCallReturnLabel_41
          CFI (cfiCond24) R6 load(1, XDATA, add(CFA_XSP16, literal(-24)))
          CFI (cfiCond24) VB load(1, XDATA, add(CFA_XSP16, literal(-23)))
          CFI (cfiCond24) V0 load(1, XDATA, add(CFA_XSP16, literal(-22)))
          CFI (cfiCond24) V1 load(1, XDATA, add(CFA_XSP16, literal(-21)))
          CFI (cfiCond24) V2 load(1, XDATA, add(CFA_XSP16, literal(-20)))
          CFI (cfiCond24) V3 load(1, XDATA, add(CFA_XSP16, literal(-19)))
          CFI (cfiCond24) V4 load(1, XDATA, add(CFA_XSP16, literal(-18)))
          CFI (cfiCond24) V5 load(1, XDATA, add(CFA_XSP16, literal(-17)))
          CFI (cfiCond24) V6 load(1, XDATA, add(CFA_XSP16, literal(-16)))
          CFI (cfiCond24) V7 load(1, XDATA, add(CFA_XSP16, literal(-15)))
          CFI (cfiCond24) V8 load(1, XDATA, add(CFA_XSP16, literal(-14)))
          CFI (cfiCond24) V9 load(1, XDATA, add(CFA_XSP16, literal(-13)))
          CFI (cfiCond24) V10 load(1, XDATA, add(CFA_XSP16, literal(-12)))
          CFI (cfiCond24) V11 load(1, XDATA, add(CFA_XSP16, literal(-11)))
          CFI (cfiCond24) V12 load(1, XDATA, add(CFA_XSP16, literal(-10)))
          CFI (cfiCond24) V13 load(1, XDATA, add(CFA_XSP16, literal(-9)))
          CFI (cfiCond24) V14 load(1, XDATA, add(CFA_XSP16, literal(-8)))
          CFI (cfiCond24) V15 load(1, XDATA, add(CFA_XSP16, literal(-7)))
          CFI (cfiCond24) R7 load(1, XDATA, add(CFA_XSP16, literal(-6)))
          CFI (cfiCond24) ?RET_LOW load(1, XDATA, add(CFA_XSP16, literal(-5)))
          CFI (cfiCond24) ?RET_HIGH load(1, XDATA, add(CFA_XSP16, literal(-4)))
          CFI (cfiCond24) ?BRET_EXT load(1, XDATA, add(CFA_XSP16, literal(-3)))
          CFI (cfiCond24) DPL0 load(1, XDATA, add(CFA_XSP16, literal(-2)))
          CFI (cfiCond24) DPH0 load(1, XDATA, add(CFA_XSP16, literal(-1)))
          CFI (cfiCond24) CFA_SP SP+-4
          CFI (cfiCond24) CFA_XSP16 add(XSP16, 34)
          CFI Block cfiPicker25 Using cfiCommon1
          CFI (cfiPicker25) NoFunction
          CFI (cfiPicker25) Picker
        MOV       A,?V2
        ADD       A,#0xc
        MOV       DPL,A
        CLR       A
        ADDC      A,?V3
        MOV       DPH,A
        RET
          CFI EndBlock cfiCond22
          CFI EndBlock cfiCond23
          CFI EndBlock cfiCond24
          CFI EndBlock cfiPicker25

        RSEG BANKED_CODE:HUGECODE:NOROOT(0)
?Subroutine26:
          CFI Block cfiCond26 Using cfiCommon0
          CFI Function zclMultiSensor_CheckAndSendClusterAttrReport
          CFI Conditional ??CrossCallReturnLabel_38
          CFI R6 load(1, XDATA, add(CFA_XSP16, literal(-24)))
          CFI VB load(1, XDATA, add(CFA_XSP16, literal(-23)))
          CFI V0 load(1, XDATA, add(CFA_XSP16, literal(-22)))
          CFI V1 load(1, XDATA, add(CFA_XSP16, literal(-21)))
          CFI V2 load(1, XDATA, add(CFA_XSP16, literal(-20)))
          CFI V3 load(1, XDATA, add(CFA_XSP16, literal(-19)))
          CFI V4 load(1, XDATA, add(CFA_XSP16, literal(-18)))
          CFI V5 load(1, XDATA, add(CFA_XSP16, literal(-17)))
          CFI V6 load(1, XDATA, add(CFA_XSP16, literal(-16)))
          CFI V7 load(1, XDATA, add(CFA_XSP16, literal(-15)))
          CFI V8 load(1, XDATA, add(CFA_XSP16, literal(-14)))
          CFI V9 load(1, XDATA, add(CFA_XSP16, literal(-13)))
          CFI V10 load(1, XDATA, add(CFA_XSP16, literal(-12)))
          CFI V11 load(1, XDATA, add(CFA_XSP16, literal(-11)))
          CFI V12 load(1, XDATA, add(CFA_XSP16, literal(-10)))
          CFI V13 load(1, XDATA, add(CFA_XSP16, literal(-9)))
          CFI V14 load(1, XDATA, add(CFA_XSP16, literal(-8)))
          CFI V15 load(1, XDATA, add(CFA_XSP16, literal(-7)))
          CFI R7 load(1, XDATA, add(CFA_XSP16, literal(-6)))
          CFI ?RET_LOW load(1, XDATA, add(CFA_XSP16, literal(-5)))
          CFI ?RET_HIGH load(1, XDATA, add(CFA_XSP16, literal(-4)))
          CFI ?BRET_EXT load(1, XDATA, add(CFA_XSP16, literal(-3)))
          CFI DPL0 load(1, XDATA, add(CFA_XSP16, literal(-2)))
          CFI DPH0 load(1, XDATA, add(CFA_XSP16, literal(-1)))
          CFI CFA_SP SP+-2
          CFI CFA_XSP16 add(XSP16, 34)
          CFI Block cfiCond27 Using cfiCommon0
          CFI (cfiCond27) Function zclMultiSensor_CheckAndSendClusterAttrReport
          CFI (cfiCond27) Conditional ??CrossCallReturnLabel_39
          CFI (cfiCond27) R6 load(1, XDATA, add(CFA_XSP16, literal(-24)))
          CFI (cfiCond27) VB load(1, XDATA, add(CFA_XSP16, literal(-23)))
          CFI (cfiCond27) V0 load(1, XDATA, add(CFA_XSP16, literal(-22)))
          CFI (cfiCond27) V1 load(1, XDATA, add(CFA_XSP16, literal(-21)))
          CFI (cfiCond27) V2 load(1, XDATA, add(CFA_XSP16, literal(-20)))
          CFI (cfiCond27) V3 load(1, XDATA, add(CFA_XSP16, literal(-19)))
          CFI (cfiCond27) V4 load(1, XDATA, add(CFA_XSP16, literal(-18)))
          CFI (cfiCond27) V5 load(1, XDATA, add(CFA_XSP16, literal(-17)))
          CFI (cfiCond27) V6 load(1, XDATA, add(CFA_XSP16, literal(-16)))
          CFI (cfiCond27) V7 load(1, XDATA, add(CFA_XSP16, literal(-15)))
          CFI (cfiCond27) V8 load(1, XDATA, add(CFA_XSP16, literal(-14)))
          CFI (cfiCond27) V9 load(1, XDATA, add(CFA_XSP16, literal(-13)))
          CFI (cfiCond27) V10 load(1, XDATA, add(CFA_XSP16, literal(-12)))
          CFI (cfiCond27) V11 load(1, XDATA, add(CFA_XSP16, literal(-11)))
          CFI (cfiCond27) V12 load(1, XDATA, add(CFA_XSP16, literal(-10)))
          CFI (cfiCond27) V13 load(1, XDATA, add(CFA_XSP16, literal(-9)))
          CFI (cfiCond27) V14 load(1, XDATA, add(CFA_XSP16, literal(-8)))
          CFI (cfiCond27) V15 load(1, XDATA, add(CFA_XSP16, literal(-7)))
          CFI (cfiCond27) R7 load(1, XDATA, add(CFA_XSP16, literal(-6)))
          CFI (cfiCond27) ?RET_LOW load(1, XDATA, add(CFA_XSP16, literal(-5)))
          CFI (cfiCond27) ?RET_HIGH load(1, XDATA, add(CFA_XSP16, literal(-4)))
          CFI (cfiCond27) ?BRET_EXT load(1, XDATA, add(CFA_XSP16, literal(-3)))
          CFI (cfiCond27) DPL0 load(1, XDATA, add(CFA_XSP16, literal(-2)))
          CFI (cfiCond27) DPH0 load(1, XDATA, add(CFA_XSP16, literal(-1)))
          CFI (cfiCond27) CFA_SP SP+-2
          CFI (cfiCond27) CFA_XSP16 add(XSP16, 34)
          CFI Block cfiPicker28 Using cfiCommon1
          CFI (cfiPicker28) NoFunction
          CFI (cfiPicker28) Picker
        LCALL     ?Subroutine36 & 0xFFFF
??CrossCallReturnLabel_73:
        MOV       A,#-0x1
        XRL       A,R0
        RET
          CFI EndBlock cfiCond26
          CFI EndBlock cfiCond27
          CFI EndBlock cfiPicker28

        RSEG BANKED_CODE:HUGECODE:NOROOT(0)
?Subroutine21:
          CFI Block cfiCond29 Using cfiCommon0
          CFI Function zclMultiSensor_CheckAndSendClusterAttrReport
          CFI Conditional ??CrossCallReturnLabel_28
          CFI R6 load(1, XDATA, add(CFA_XSP16, literal(-24)))
          CFI VB load(1, XDATA, add(CFA_XSP16, literal(-23)))
          CFI V0 load(1, XDATA, add(CFA_XSP16, literal(-22)))
          CFI V1 load(1, XDATA, add(CFA_XSP16, literal(-21)))
          CFI V2 load(1, XDATA, add(CFA_XSP16, literal(-20)))
          CFI V3 load(1, XDATA, add(CFA_XSP16, literal(-19)))
          CFI V4 load(1, XDATA, add(CFA_XSP16, literal(-18)))
          CFI V5 load(1, XDATA, add(CFA_XSP16, literal(-17)))
          CFI V6 load(1, XDATA, add(CFA_XSP16, literal(-16)))
          CFI V7 load(1, XDATA, add(CFA_XSP16, literal(-15)))
          CFI V8 load(1, XDATA, add(CFA_XSP16, literal(-14)))
          CFI V9 load(1, XDATA, add(CFA_XSP16, literal(-13)))
          CFI V10 load(1, XDATA, add(CFA_XSP16, literal(-12)))
          CFI V11 load(1, XDATA, add(CFA_XSP16, literal(-11)))
          CFI V12 load(1, XDATA, add(CFA_XSP16, literal(-10)))
          CFI V13 load(1, XDATA, add(CFA_XSP16, literal(-9)))
          CFI V14 load(1, XDATA, add(CFA_XSP16, literal(-8)))
          CFI V15 load(1, XDATA, add(CFA_XSP16, literal(-7)))
          CFI R7 load(1, XDATA, add(CFA_XSP16, literal(-6)))
          CFI ?RET_LOW load(1, XDATA, add(CFA_XSP16, literal(-5)))
          CFI ?RET_HIGH load(1, XDATA, add(CFA_XSP16, literal(-4)))
          CFI ?BRET_EXT load(1, XDATA, add(CFA_XSP16, literal(-3)))
          CFI DPL0 load(1, XDATA, add(CFA_XSP16, literal(-2)))
          CFI DPH0 load(1, XDATA, add(CFA_XSP16, literal(-1)))
          CFI CFA_SP SP+-2
          CFI CFA_XSP16 add(XSP16, 34)
          CFI Block cfiCond30 Using cfiCommon0
          CFI (cfiCond30) Function zclMultiSensor_CheckAndSendClusterAttrReport
          CFI (cfiCond30) Conditional ??CrossCallReturnLabel_29
          CFI (cfiCond30) R6 load(1, XDATA, add(CFA_XSP16, literal(-24)))
          CFI (cfiCond30) VB load(1, XDATA, add(CFA_XSP16, literal(-23)))
          CFI (cfiCond30) V0 load(1, XDATA, add(CFA_XSP16, literal(-22)))
          CFI (cfiCond30) V1 load(1, XDATA, add(CFA_XSP16, literal(-21)))
          CFI (cfiCond30) V2 load(1, XDATA, add(CFA_XSP16, literal(-20)))
          CFI (cfiCond30) V3 load(1, XDATA, add(CFA_XSP16, literal(-19)))
          CFI (cfiCond30) V4 load(1, XDATA, add(CFA_XSP16, literal(-18)))
          CFI (cfiCond30) V5 load(1, XDATA, add(CFA_XSP16, literal(-17)))
          CFI (cfiCond30) V6 load(1, XDATA, add(CFA_XSP16, literal(-16)))
          CFI (cfiCond30) V7 load(1, XDATA, add(CFA_XSP16, literal(-15)))
          CFI (cfiCond30) V8 load(1, XDATA, add(CFA_XSP16, literal(-14)))
          CFI (cfiCond30) V9 load(1, XDATA, add(CFA_XSP16, literal(-13)))
          CFI (cfiCond30) V10 load(1, XDATA, add(CFA_XSP16, literal(-12)))
          CFI (cfiCond30) V11 load(1, XDATA, add(CFA_XSP16, literal(-11)))
          CFI (cfiCond30) V12 load(1, XDATA, add(CFA_XSP16, literal(-10)))
          CFI (cfiCond30) V13 load(1, XDATA, add(CFA_XSP16, literal(-9)))
          CFI (cfiCond30) V14 load(1, XDATA, add(CFA_XSP16, literal(-8)))
          CFI (cfiCond30) V15 load(1, XDATA, add(CFA_XSP16, literal(-7)))
          CFI (cfiCond30) R7 load(1, XDATA, add(CFA_XSP16, literal(-6)))
          CFI (cfiCond30) ?RET_LOW load(1, XDATA, add(CFA_XSP16, literal(-5)))
          CFI (cfiCond30) ?RET_HIGH load(1, XDATA, add(CFA_XSP16, literal(-4)))
          CFI (cfiCond30) ?BRET_EXT load(1, XDATA, add(CFA_XSP16, literal(-3)))
          CFI (cfiCond30) DPL0 load(1, XDATA, add(CFA_XSP16, literal(-2)))
          CFI (cfiCond30) DPH0 load(1, XDATA, add(CFA_XSP16, literal(-1)))
          CFI (cfiCond30) CFA_SP SP+-2
          CFI (cfiCond30) CFA_XSP16 add(XSP16, 34)
          CFI Block cfiPicker31 Using cfiCommon1
          CFI (cfiPicker31) NoFunction
          CFI (cfiPicker31) Picker
        LCALL     ?Subroutine36 & 0xFFFF
??CrossCallReturnLabel_71:
        MOV       DPL,?V6
        MOV       DPH,?V7
        RET
          CFI EndBlock cfiCond29
          CFI EndBlock cfiCond30
          CFI EndBlock cfiPicker31

        RSEG BANKED_CODE:HUGECODE:NOROOT(0)
?Subroutine16:
          CFI Block cfiCond32 Using cfiCommon0
          CFI Function zclMultiSensor_CheckAndSendClusterAttrReport
          CFI Conditional ??CrossCallReturnLabel_18
          CFI R6 load(1, XDATA, add(CFA_XSP16, literal(-24)))
          CFI VB load(1, XDATA, add(CFA_XSP16, literal(-23)))
          CFI V0 load(1, XDATA, add(CFA_XSP16, literal(-22)))
          CFI V1 load(1, XDATA, add(CFA_XSP16, literal(-21)))
          CFI V2 load(1, XDATA, add(CFA_XSP16, literal(-20)))
          CFI V3 load(1, XDATA, add(CFA_XSP16, literal(-19)))
          CFI V4 load(1, XDATA, add(CFA_XSP16, literal(-18)))
          CFI V5 load(1, XDATA, add(CFA_XSP16, literal(-17)))
          CFI V6 load(1, XDATA, add(CFA_XSP16, literal(-16)))
          CFI V7 load(1, XDATA, add(CFA_XSP16, literal(-15)))
          CFI V8 load(1, XDATA, add(CFA_XSP16, literal(-14)))
          CFI V9 load(1, XDATA, add(CFA_XSP16, literal(-13)))
          CFI V10 load(1, XDATA, add(CFA_XSP16, literal(-12)))
          CFI V11 load(1, XDATA, add(CFA_XSP16, literal(-11)))
          CFI V12 load(1, XDATA, add(CFA_XSP16, literal(-10)))
          CFI V13 load(1, XDATA, add(CFA_XSP16, literal(-9)))
          CFI V14 load(1, XDATA, add(CFA_XSP16, literal(-8)))
          CFI V15 load(1, XDATA, add(CFA_XSP16, literal(-7)))
          CFI R7 load(1, XDATA, add(CFA_XSP16, literal(-6)))
          CFI ?RET_LOW load(1, XDATA, add(CFA_XSP16, literal(-5)))
          CFI ?RET_HIGH load(1, XDATA, add(CFA_XSP16, literal(-4)))
          CFI ?BRET_EXT load(1, XDATA, add(CFA_XSP16, literal(-3)))
          CFI DPL0 load(1, XDATA, add(CFA_XSP16, literal(-2)))
          CFI DPH0 load(1, XDATA, add(CFA_XSP16, literal(-1)))
          CFI CFA_SP SP+-2
          CFI CFA_XSP16 add(XSP16, 34)
          CFI Block cfiCond33 Using cfiCommon0
          CFI (cfiCond33) Function zclMultiSensor_CheckAndSendClusterAttrReport
          CFI (cfiCond33) Conditional ??CrossCallReturnLabel_19
          CFI (cfiCond33) R6 load(1, XDATA, add(CFA_XSP16, literal(-24)))
          CFI (cfiCond33) VB load(1, XDATA, add(CFA_XSP16, literal(-23)))
          CFI (cfiCond33) V0 load(1, XDATA, add(CFA_XSP16, literal(-22)))
          CFI (cfiCond33) V1 load(1, XDATA, add(CFA_XSP16, literal(-21)))
          CFI (cfiCond33) V2 load(1, XDATA, add(CFA_XSP16, literal(-20)))
          CFI (cfiCond33) V3 load(1, XDATA, add(CFA_XSP16, literal(-19)))
          CFI (cfiCond33) V4 load(1, XDATA, add(CFA_XSP16, literal(-18)))
          CFI (cfiCond33) V5 load(1, XDATA, add(CFA_XSP16, literal(-17)))
          CFI (cfiCond33) V6 load(1, XDATA, add(CFA_XSP16, literal(-16)))
          CFI (cfiCond33) V7 load(1, XDATA, add(CFA_XSP16, literal(-15)))
          CFI (cfiCond33) V8 load(1, XDATA, add(CFA_XSP16, literal(-14)))
          CFI (cfiCond33) V9 load(1, XDATA, add(CFA_XSP16, literal(-13)))
          CFI (cfiCond33) V10 load(1, XDATA, add(CFA_XSP16, literal(-12)))
          CFI (cfiCond33) V11 load(1, XDATA, add(CFA_XSP16, literal(-11)))
          CFI (cfiCond33) V12 load(1, XDATA, add(CFA_XSP16, literal(-10)))
          CFI (cfiCond33) V13 load(1, XDATA, add(CFA_XSP16, literal(-9)))
          CFI (cfiCond33) V14 load(1, XDATA, add(CFA_XSP16, literal(-8)))
          CFI (cfiCond33) V15 load(1, XDATA, add(CFA_XSP16, literal(-7)))
          CFI (cfiCond33) R7 load(1, XDATA, add(CFA_XSP16, literal(-6)))
          CFI (cfiCond33) ?RET_LOW load(1, XDATA, add(CFA_XSP16, literal(-5)))
          CFI (cfiCond33) ?RET_HIGH load(1, XDATA, add(CFA_XSP16, literal(-4)))
          CFI (cfiCond33) ?BRET_EXT load(1, XDATA, add(CFA_XSP16, literal(-3)))
          CFI (cfiCond33) DPL0 load(1, XDATA, add(CFA_XSP16, literal(-2)))
          CFI (cfiCond33) DPH0 load(1, XDATA, add(CFA_XSP16, literal(-1)))
          CFI (cfiCond33) CFA_SP SP+-2
          CFI (cfiCond33) CFA_XSP16 add(XSP16, 34)
          CFI Block cfiPicker34 Using cfiCommon1
          CFI (cfiPicker34) NoFunction
          CFI (cfiPicker34) Picker
        INC       DPTR
        INC       DPTR
        INC       DPTR
        INC       DPTR
        MOVX      A,@DPTR
        ADD       A,R0
        MOV       ?V2,A
        INC       DPTR
        MOVX      A,@DPTR
        ADDC      A,R1
        MOV       ?V3,A
        MOV       DPL,?V2
        MOV       DPH,A
        MOVX      A,@DPTR
        RET
          CFI EndBlock cfiCond32
          CFI EndBlock cfiCond33
          CFI EndBlock cfiPicker34
//  835 
//  836 /*********************************************************************
//  837 * @fn      SendZclAttrReport
//  838 *
//  839 * @brief   Send the attr report. Let ZCL_CMD_REPORT event handler handle this
//  840 *
//  841 * @param   srcEp - source endpoint
//  842 *          clusterID - cluster id
//  843 *          pReportCmd - pointer to the report command packet
//  844 *          dataLen - data length of the report command
//  845 *
//  846 * @return  none
//  847 */

        RSEG BANKED_CODE:HUGECODE:NOROOT(0)
//  848 static uint8 SendZclAttrReport(uint8 srcEp, uint16 clusterId, zclReportCmd_t *pReportCmd,
SendZclAttrReport:
          CFI Block cfiBlock35 Using cfiCommon0
          CFI Function SendZclAttrReport
        CODE
//  849                                uint8 datalen)
//  850 {
        FUNCALL SendZclAttrReport, osal_msg_allocate
        LOCFRAME ISTACK, 0, STACK
        LOCFRAME PSTACK, 0, STACK
        LOCFRAME XSTACK, 14, STACK
        LOCFRAME IOVERLAY, 0, STATIC
        LOCFRAME DOVERLAY, 0, STATIC
        ARGFRAME ISTACK, 0, STACK
        ARGFRAME PSTACK, 0, STACK
        ARGFRAME XSTACK, 14, STACK
        ARGFRAME IOVERLAY, 0, STATIC
        ARGFRAME DOVERLAY, 0, STATIC
        FUNCALL SendZclAttrReport, osal_msg_send
        LOCFRAME ISTACK, 0, STACK
        LOCFRAME PSTACK, 0, STACK
        LOCFRAME XSTACK, 14, STACK
        LOCFRAME IOVERLAY, 0, STATIC
        LOCFRAME DOVERLAY, 0, STATIC
        ARGFRAME ISTACK, 0, STACK
        ARGFRAME PSTACK, 0, STACK
        ARGFRAME XSTACK, 14, STACK
        ARGFRAME IOVERLAY, 0, STATIC
        ARGFRAME DOVERLAY, 0, STATIC
        REQUIRE ?V0
        REQUIRE ?V1
        REQUIRE ?V2
        REQUIRE ?V4
        REQUIRE ?V5
        MOV       A,#-0xe
        LCALL     ?BANKED_ENTER_XDATA
          CFI DPH0 load(1, XDATA, add(CFA_XSP16, literal(-1)))
          CFI DPL0 load(1, XDATA, add(CFA_XSP16, literal(-2)))
          CFI ?BRET_EXT load(1, XDATA, add(CFA_XSP16, literal(-3)))
          CFI ?RET_HIGH load(1, XDATA, add(CFA_XSP16, literal(-4)))
          CFI ?RET_LOW load(1, XDATA, add(CFA_XSP16, literal(-5)))
          CFI R7 load(1, XDATA, add(CFA_XSP16, literal(-6)))
          CFI V5 load(1, XDATA, add(CFA_XSP16, literal(-7)))
          CFI V4 load(1, XDATA, add(CFA_XSP16, literal(-8)))
          CFI V3 load(1, XDATA, add(CFA_XSP16, literal(-9)))
          CFI V2 load(1, XDATA, add(CFA_XSP16, literal(-10)))
          CFI V1 load(1, XDATA, add(CFA_XSP16, literal(-11)))
          CFI V0 load(1, XDATA, add(CFA_XSP16, literal(-12)))
          CFI VB load(1, XDATA, add(CFA_XSP16, literal(-13)))
          CFI R6 load(1, XDATA, add(CFA_XSP16, literal(-14)))
          CFI CFA_SP SP+0
          CFI CFA_XSP16 add(XSP16, 14)
        ; Saved register size: 14
        ; Auto size: 0
        MOV       ?V2,R1
        MOV       ?V0,R2
        MOV       ?V1,R3
        MOV       A,R4
        MOV       R6,A
        MOV       A,R5
        MOV       R7,A
//  851   // this is for the inner-app osal msg, not OTA msg, thus some fields are not important
//  852   zclIncomingMsg_t *pMsg;       
//  853   
//  854   // pMsg will be released by zclMultiSensor_event_loop()
//  855   pMsg = (zclIncomingMsg_t *)osal_msg_allocate(sizeof(zclIncomingMsg_t) + (datalen));
        ; Setup parameters for call to function osal_msg_allocate
        MOV       A,#0xe
        LCALL     ?XSTACK_DISP0_8
        MOVX      A,@DPTR
        ADD       A,#0x19
        MOV       R2,A
        CLR       A
        ADDC      A,#0x0
        MOV       R3,A
        LCALL     `??osal_msg_allocate::?relay`; Banked call to: osal_msg_allocate
//  856   
//  857   if (pMsg == NULL)
        MOV       A,R2
        ORL       A,R3
        JNZ       ??SendZclAttrReport_0
//  858   {
//  859     return FALSE;
        MOV       R1,#0x0
        SJMP      ??SendZclAttrReport_1
//  860   }
//  861   
//  862   if (pMsg)
//  863   {
//  864       pMsg->hdr.event = ZCL_INCOMING_MSG;
??SendZclAttrReport_0:
        MOV       DPL,R2
        MOV       DPH,R3
        MOV       A,#0x34
        MOVX      @DPTR,A
//  865       pMsg->hdr.status = 0;
        INC       DPTR
        CLR       A
        LCALL     ?Subroutine11 & 0xFFFF
//  866       //pMsg->zclHdr.fc = NULL;         // not important
//  867       pMsg->zclHdr.manuCode = 0;        // not important
??CrossCallReturnLabel_12:
        MOVX      @DPTR,A
        INC       DPTR
        LCALL     ?Subroutine11 & 0xFFFF
//  868       pMsg->zclHdr.transSeqNum = 0;     // not important
??CrossCallReturnLabel_13:
        INC       DPTR
        INC       DPTR
        LCALL     ?Subroutine9 & 0xFFFF
//  869       pMsg->zclHdr.commandID = ZCL_CMD_REPORT;
??CrossCallReturnLabel_10:
        MOV       A,#0xa
        LCALL     ?Subroutine8 & 0xFFFF
//  870       pMsg->clusterId = clusterId;
??CrossCallReturnLabel_8:
        MOV       A,?V0
        MOVX      @DPTR,A
        INC       DPTR
        MOV       A,?V1
        MOVX      @DPTR,A
//  871       pMsg->srcAddr.addrMode = (afAddrMode_t)Addr16Bit;
        MOV       A,R2
        ADD       A,#0x12
        MOV       DPL,A
        CLR       A
        ADDC      A,R3
        MOV       DPH,A
        MOV       A,#0x2
        LCALL     ?Subroutine8 & 0xFFFF
//  872       pMsg->srcAddr.addr.shortAddr = 0; // not important
??CrossCallReturnLabel_9:
        INC       DPTR
        INC       DPTR
        CLR       A
        MOVX      @DPTR,A
        INC       DPTR
        MOVX      @DPTR,A
//  873       pMsg->srcAddr.panId = 0;          // inner-PAN, not important
        MOV       A,R2
        ADD       A,#0x14
        MOV       DPL,A
        CLR       A
        ADDC      A,R3
        MOV       DPH,A
        CLR       A
        MOVX      @DPTR,A
        INC       DPTR
        MOVX      @DPTR,A
//  874       pMsg->srcAddr.endPoint = srcEp;   // src ep, SAMPLELIGHT_ENDPOINT send to himself
        MOV       A,R2
        ADD       A,#0x13
        MOV       DPL,A
        CLR       A
        ADDC      A,R3
        MOV       DPH,A
        MOV       A,?V2
        MOVX      @DPTR,A
//  875       pMsg->endPoint = srcEp;           // dest ep, send to SAMPLELIGHT_ENDPOINT himself
        MOV       A,R2
        ADD       A,#0x16
        MOV       DPL,A
        CLR       A
        ADDC      A,R3
        MOV       DPH,A
        MOV       A,?V2
        MOVX      @DPTR,A
//  876       pMsg->attrCmd = (zclReportCmd_t *)pReportCmd;
        MOV       A,R2
        ADD       A,#0x17
        MOV       DPL,A
        CLR       A
        ADDC      A,R3
        MOV       DPH,A
        MOV       A,R6
        MOVX      @DPTR,A
        INC       DPTR
        MOV       A,R7
        MOVX      @DPTR,A
//  877   }
//  878   
//  879   osal_msg_send( zclMultiSensor_TaskID, (uint8 *)pMsg);
        ; Setup parameters for call to function osal_msg_send
        MOV       DPTR,#zclMultiSensor_TaskID
        MOVX      A,@DPTR
        MOV       R1,A
        LCALL     `??osal_msg_send::?relay`; Banked call to: osal_msg_send
//  880   return TRUE;
        MOV       R1,#0x1
??SendZclAttrReport_1:
        MOV       R7,#0x6
        LJMP      ?BANKED_LEAVE_XDATA
//  881 }
          CFI EndBlock cfiBlock35

        RSEG BANKED_CODE:HUGECODE:NOROOT(0)
?Subroutine11:
          CFI Block cfiCond36 Using cfiCommon0
          CFI Function SendZclAttrReport
          CFI Conditional ??CrossCallReturnLabel_12
          CFI R6 load(1, XDATA, add(CFA_XSP16, literal(-14)))
          CFI VB load(1, XDATA, add(CFA_XSP16, literal(-13)))
          CFI V0 load(1, XDATA, add(CFA_XSP16, literal(-12)))
          CFI V1 load(1, XDATA, add(CFA_XSP16, literal(-11)))
          CFI V2 load(1, XDATA, add(CFA_XSP16, literal(-10)))
          CFI V3 load(1, XDATA, add(CFA_XSP16, literal(-9)))
          CFI V4 load(1, XDATA, add(CFA_XSP16, literal(-8)))
          CFI V5 load(1, XDATA, add(CFA_XSP16, literal(-7)))
          CFI R7 load(1, XDATA, add(CFA_XSP16, literal(-6)))
          CFI ?RET_LOW load(1, XDATA, add(CFA_XSP16, literal(-5)))
          CFI ?RET_HIGH load(1, XDATA, add(CFA_XSP16, literal(-4)))
          CFI ?BRET_EXT load(1, XDATA, add(CFA_XSP16, literal(-3)))
          CFI DPL0 load(1, XDATA, add(CFA_XSP16, literal(-2)))
          CFI DPH0 load(1, XDATA, add(CFA_XSP16, literal(-1)))
          CFI CFA_SP SP+-2
          CFI CFA_XSP16 add(XSP16, 14)
          CFI Block cfiCond37 Using cfiCommon0
          CFI (cfiCond37) Function SendZclAttrReport
          CFI (cfiCond37) Conditional ??CrossCallReturnLabel_13
          CFI (cfiCond37) R6 load(1, XDATA, add(CFA_XSP16, literal(-14)))
          CFI (cfiCond37) VB load(1, XDATA, add(CFA_XSP16, literal(-13)))
          CFI (cfiCond37) V0 load(1, XDATA, add(CFA_XSP16, literal(-12)))
          CFI (cfiCond37) V1 load(1, XDATA, add(CFA_XSP16, literal(-11)))
          CFI (cfiCond37) V2 load(1, XDATA, add(CFA_XSP16, literal(-10)))
          CFI (cfiCond37) V3 load(1, XDATA, add(CFA_XSP16, literal(-9)))
          CFI (cfiCond37) V4 load(1, XDATA, add(CFA_XSP16, literal(-8)))
          CFI (cfiCond37) V5 load(1, XDATA, add(CFA_XSP16, literal(-7)))
          CFI (cfiCond37) R7 load(1, XDATA, add(CFA_XSP16, literal(-6)))
          CFI (cfiCond37) ?RET_LOW load(1, XDATA, add(CFA_XSP16, literal(-5)))
          CFI (cfiCond37) ?RET_HIGH load(1, XDATA, add(CFA_XSP16, literal(-4)))
          CFI (cfiCond37) ?BRET_EXT load(1, XDATA, add(CFA_XSP16, literal(-3)))
          CFI (cfiCond37) DPL0 load(1, XDATA, add(CFA_XSP16, literal(-2)))
          CFI (cfiCond37) DPH0 load(1, XDATA, add(CFA_XSP16, literal(-1)))
          CFI (cfiCond37) CFA_SP SP+-2
          CFI (cfiCond37) CFA_XSP16 add(XSP16, 14)
          CFI Block cfiPicker38 Using cfiCommon1
          CFI (cfiPicker38) NoFunction
          CFI (cfiPicker38) Picker
        LCALL     ?Subroutine40 & 0xFFFF
??CrossCallReturnLabel_60:
        RET
          CFI EndBlock cfiCond36
          CFI EndBlock cfiCond37
          CFI EndBlock cfiPicker38

        RSEG BANKED_CODE:HUGECODE:NOROOT(0)
?Subroutine40:
          CFI Block cfiCond39 Using cfiCommon0
          CFI Function SendZclAttrReport
          CFI Conditional ??CrossCallReturnLabel_60, ??CrossCallReturnLabel_12
          CFI R6 load(1, XDATA, add(CFA_XSP16, literal(-14)))
          CFI VB load(1, XDATA, add(CFA_XSP16, literal(-13)))
          CFI V0 load(1, XDATA, add(CFA_XSP16, literal(-12)))
          CFI V1 load(1, XDATA, add(CFA_XSP16, literal(-11)))
          CFI V2 load(1, XDATA, add(CFA_XSP16, literal(-10)))
          CFI V3 load(1, XDATA, add(CFA_XSP16, literal(-9)))
          CFI V4 load(1, XDATA, add(CFA_XSP16, literal(-8)))
          CFI V5 load(1, XDATA, add(CFA_XSP16, literal(-7)))
          CFI R7 load(1, XDATA, add(CFA_XSP16, literal(-6)))
          CFI ?RET_LOW load(1, XDATA, add(CFA_XSP16, literal(-5)))
          CFI ?RET_HIGH load(1, XDATA, add(CFA_XSP16, literal(-4)))
          CFI ?BRET_EXT load(1, XDATA, add(CFA_XSP16, literal(-3)))
          CFI DPL0 load(1, XDATA, add(CFA_XSP16, literal(-2)))
          CFI DPH0 load(1, XDATA, add(CFA_XSP16, literal(-1)))
          CFI CFA_SP SP+-4
          CFI CFA_XSP16 add(XSP16, 14)
          CFI Block cfiCond40 Using cfiCommon0
          CFI (cfiCond40) Function SendZclAttrReport
          CFI (cfiCond40) Conditional ??CrossCallReturnLabel_60, ??CrossCallReturnLabel_13
          CFI (cfiCond40) R6 load(1, XDATA, add(CFA_XSP16, literal(-14)))
          CFI (cfiCond40) VB load(1, XDATA, add(CFA_XSP16, literal(-13)))
          CFI (cfiCond40) V0 load(1, XDATA, add(CFA_XSP16, literal(-12)))
          CFI (cfiCond40) V1 load(1, XDATA, add(CFA_XSP16, literal(-11)))
          CFI (cfiCond40) V2 load(1, XDATA, add(CFA_XSP16, literal(-10)))
          CFI (cfiCond40) V3 load(1, XDATA, add(CFA_XSP16, literal(-9)))
          CFI (cfiCond40) V4 load(1, XDATA, add(CFA_XSP16, literal(-8)))
          CFI (cfiCond40) V5 load(1, XDATA, add(CFA_XSP16, literal(-7)))
          CFI (cfiCond40) R7 load(1, XDATA, add(CFA_XSP16, literal(-6)))
          CFI (cfiCond40) ?RET_LOW load(1, XDATA, add(CFA_XSP16, literal(-5)))
          CFI (cfiCond40) ?RET_HIGH load(1, XDATA, add(CFA_XSP16, literal(-4)))
          CFI (cfiCond40) ?BRET_EXT load(1, XDATA, add(CFA_XSP16, literal(-3)))
          CFI (cfiCond40) DPL0 load(1, XDATA, add(CFA_XSP16, literal(-2)))
          CFI (cfiCond40) DPH0 load(1, XDATA, add(CFA_XSP16, literal(-1)))
          CFI (cfiCond40) CFA_SP SP+-4
          CFI (cfiCond40) CFA_XSP16 add(XSP16, 14)
          CFI Block cfiCond41 Using cfiCommon0
          CFI (cfiCond41) Function SendZclAttrReport
          CFI (cfiCond41) Conditional ??CrossCallReturnLabel_61, ??CrossCallReturnLabel_48, ??CrossCallReturnLabel_8
          CFI (cfiCond41) R6 load(1, XDATA, add(CFA_XSP16, literal(-14)))
          CFI (cfiCond41) VB load(1, XDATA, add(CFA_XSP16, literal(-13)))
          CFI (cfiCond41) V0 load(1, XDATA, add(CFA_XSP16, literal(-12)))
          CFI (cfiCond41) V1 load(1, XDATA, add(CFA_XSP16, literal(-11)))
          CFI (cfiCond41) V2 load(1, XDATA, add(CFA_XSP16, literal(-10)))
          CFI (cfiCond41) V3 load(1, XDATA, add(CFA_XSP16, literal(-9)))
          CFI (cfiCond41) V4 load(1, XDATA, add(CFA_XSP16, literal(-8)))
          CFI (cfiCond41) V5 load(1, XDATA, add(CFA_XSP16, literal(-7)))
          CFI (cfiCond41) R7 load(1, XDATA, add(CFA_XSP16, literal(-6)))
          CFI (cfiCond41) ?RET_LOW load(1, XDATA, add(CFA_XSP16, literal(-5)))
          CFI (cfiCond41) ?RET_HIGH load(1, XDATA, add(CFA_XSP16, literal(-4)))
          CFI (cfiCond41) ?BRET_EXT load(1, XDATA, add(CFA_XSP16, literal(-3)))
          CFI (cfiCond41) DPL0 load(1, XDATA, add(CFA_XSP16, literal(-2)))
          CFI (cfiCond41) DPH0 load(1, XDATA, add(CFA_XSP16, literal(-1)))
          CFI (cfiCond41) CFA_SP SP+-6
          CFI (cfiCond41) CFA_XSP16 add(XSP16, 14)
          CFI Block cfiCond42 Using cfiCommon0
          CFI (cfiCond42) Function SendZclAttrReport
          CFI (cfiCond42) Conditional ??CrossCallReturnLabel_61, ??CrossCallReturnLabel_48, ??CrossCallReturnLabel_9
          CFI (cfiCond42) R6 load(1, XDATA, add(CFA_XSP16, literal(-14)))
          CFI (cfiCond42) VB load(1, XDATA, add(CFA_XSP16, literal(-13)))
          CFI (cfiCond42) V0 load(1, XDATA, add(CFA_XSP16, literal(-12)))
          CFI (cfiCond42) V1 load(1, XDATA, add(CFA_XSP16, literal(-11)))
          CFI (cfiCond42) V2 load(1, XDATA, add(CFA_XSP16, literal(-10)))
          CFI (cfiCond42) V3 load(1, XDATA, add(CFA_XSP16, literal(-9)))
          CFI (cfiCond42) V4 load(1, XDATA, add(CFA_XSP16, literal(-8)))
          CFI (cfiCond42) V5 load(1, XDATA, add(CFA_XSP16, literal(-7)))
          CFI (cfiCond42) R7 load(1, XDATA, add(CFA_XSP16, literal(-6)))
          CFI (cfiCond42) ?RET_LOW load(1, XDATA, add(CFA_XSP16, literal(-5)))
          CFI (cfiCond42) ?RET_HIGH load(1, XDATA, add(CFA_XSP16, literal(-4)))
          CFI (cfiCond42) ?BRET_EXT load(1, XDATA, add(CFA_XSP16, literal(-3)))
          CFI (cfiCond42) DPL0 load(1, XDATA, add(CFA_XSP16, literal(-2)))
          CFI (cfiCond42) DPH0 load(1, XDATA, add(CFA_XSP16, literal(-1)))
          CFI (cfiCond42) CFA_SP SP+-6
          CFI (cfiCond42) CFA_XSP16 add(XSP16, 14)
          CFI Block cfiCond43 Using cfiCommon0
          CFI (cfiCond43) Function SendZclAttrReport
          CFI (cfiCond43) Conditional ??CrossCallReturnLabel_61, ??CrossCallReturnLabel_49, ??CrossCallReturnLabel_10
          CFI (cfiCond43) R6 load(1, XDATA, add(CFA_XSP16, literal(-14)))
          CFI (cfiCond43) VB load(1, XDATA, add(CFA_XSP16, literal(-13)))
          CFI (cfiCond43) V0 load(1, XDATA, add(CFA_XSP16, literal(-12)))
          CFI (cfiCond43) V1 load(1, XDATA, add(CFA_XSP16, literal(-11)))
          CFI (cfiCond43) V2 load(1, XDATA, add(CFA_XSP16, literal(-10)))
          CFI (cfiCond43) V3 load(1, XDATA, add(CFA_XSP16, literal(-9)))
          CFI (cfiCond43) V4 load(1, XDATA, add(CFA_XSP16, literal(-8)))
          CFI (cfiCond43) V5 load(1, XDATA, add(CFA_XSP16, literal(-7)))
          CFI (cfiCond43) R7 load(1, XDATA, add(CFA_XSP16, literal(-6)))
          CFI (cfiCond43) ?RET_LOW load(1, XDATA, add(CFA_XSP16, literal(-5)))
          CFI (cfiCond43) ?RET_HIGH load(1, XDATA, add(CFA_XSP16, literal(-4)))
          CFI (cfiCond43) ?BRET_EXT load(1, XDATA, add(CFA_XSP16, literal(-3)))
          CFI (cfiCond43) DPL0 load(1, XDATA, add(CFA_XSP16, literal(-2)))
          CFI (cfiCond43) DPH0 load(1, XDATA, add(CFA_XSP16, literal(-1)))
          CFI (cfiCond43) CFA_SP SP+-6
          CFI (cfiCond43) CFA_XSP16 add(XSP16, 14)
          CFI Block cfiCond44 Using cfiCommon0
          CFI (cfiCond44) Function zclMultiSensor_ProcessInConfigReportCmd
          CFI (cfiCond44) Conditional ??CrossCallReturnLabel_61, ??CrossCallReturnLabel_49, ??CrossCallReturnLabel_11
          CFI (cfiCond44) R6 load(1, XDATA, add(CFA_XSP16, literal(-24)))
          CFI (cfiCond44) VB load(1, XDATA, add(CFA_XSP16, literal(-23)))
          CFI (cfiCond44) V0 load(1, XDATA, add(CFA_XSP16, literal(-22)))
          CFI (cfiCond44) V1 load(1, XDATA, add(CFA_XSP16, literal(-21)))
          CFI (cfiCond44) V2 load(1, XDATA, add(CFA_XSP16, literal(-20)))
          CFI (cfiCond44) V3 load(1, XDATA, add(CFA_XSP16, literal(-19)))
          CFI (cfiCond44) V4 load(1, XDATA, add(CFA_XSP16, literal(-18)))
          CFI (cfiCond44) V5 load(1, XDATA, add(CFA_XSP16, literal(-17)))
          CFI (cfiCond44) V6 load(1, XDATA, add(CFA_XSP16, literal(-16)))
          CFI (cfiCond44) V7 load(1, XDATA, add(CFA_XSP16, literal(-15)))
          CFI (cfiCond44) V8 load(1, XDATA, add(CFA_XSP16, literal(-14)))
          CFI (cfiCond44) V9 load(1, XDATA, add(CFA_XSP16, literal(-13)))
          CFI (cfiCond44) V10 load(1, XDATA, add(CFA_XSP16, literal(-12)))
          CFI (cfiCond44) V11 load(1, XDATA, add(CFA_XSP16, literal(-11)))
          CFI (cfiCond44) V12 load(1, XDATA, add(CFA_XSP16, literal(-10)))
          CFI (cfiCond44) V13 load(1, XDATA, add(CFA_XSP16, literal(-9)))
          CFI (cfiCond44) V14 load(1, XDATA, add(CFA_XSP16, literal(-8)))
          CFI (cfiCond44) V15 load(1, XDATA, add(CFA_XSP16, literal(-7)))
          CFI (cfiCond44) R7 load(1, XDATA, add(CFA_XSP16, literal(-6)))
          CFI (cfiCond44) ?RET_LOW load(1, XDATA, add(CFA_XSP16, literal(-5)))
          CFI (cfiCond44) ?RET_HIGH load(1, XDATA, add(CFA_XSP16, literal(-4)))
          CFI (cfiCond44) ?BRET_EXT load(1, XDATA, add(CFA_XSP16, literal(-3)))
          CFI (cfiCond44) DPL0 load(1, XDATA, add(CFA_XSP16, literal(-2)))
          CFI (cfiCond44) DPH0 load(1, XDATA, add(CFA_XSP16, literal(-1)))
          CFI (cfiCond44) CFA_SP SP+-6
          CFI (cfiCond44) CFA_XSP16 add(XSP16, 36)
          CFI Block cfiPicker45 Using cfiCommon1
          CFI (cfiPicker45) NoFunction
          CFI (cfiPicker45) Picker
        MOVX      @DPTR,A
        MOV       DPL,R2
        MOV       DPH,R3
        INC       DPTR
        INC       DPTR
        INC       DPTR
        INC       DPTR
        RET
          CFI EndBlock cfiCond39
          CFI EndBlock cfiCond40
          CFI EndBlock cfiCond41
          CFI EndBlock cfiCond42
          CFI EndBlock cfiCond43
          CFI EndBlock cfiCond44
          CFI EndBlock cfiPicker45

        RSEG BANKED_CODE:HUGECODE:NOROOT(0)
?Subroutine8:
          CFI Block cfiCond46 Using cfiCommon0
          CFI Function SendZclAttrReport
          CFI Conditional ??CrossCallReturnLabel_8
          CFI R6 load(1, XDATA, add(CFA_XSP16, literal(-14)))
          CFI VB load(1, XDATA, add(CFA_XSP16, literal(-13)))
          CFI V0 load(1, XDATA, add(CFA_XSP16, literal(-12)))
          CFI V1 load(1, XDATA, add(CFA_XSP16, literal(-11)))
          CFI V2 load(1, XDATA, add(CFA_XSP16, literal(-10)))
          CFI V3 load(1, XDATA, add(CFA_XSP16, literal(-9)))
          CFI V4 load(1, XDATA, add(CFA_XSP16, literal(-8)))
          CFI V5 load(1, XDATA, add(CFA_XSP16, literal(-7)))
          CFI R7 load(1, XDATA, add(CFA_XSP16, literal(-6)))
          CFI ?RET_LOW load(1, XDATA, add(CFA_XSP16, literal(-5)))
          CFI ?RET_HIGH load(1, XDATA, add(CFA_XSP16, literal(-4)))
          CFI ?BRET_EXT load(1, XDATA, add(CFA_XSP16, literal(-3)))
          CFI DPL0 load(1, XDATA, add(CFA_XSP16, literal(-2)))
          CFI DPH0 load(1, XDATA, add(CFA_XSP16, literal(-1)))
          CFI CFA_SP SP+-2
          CFI CFA_XSP16 add(XSP16, 14)
          CFI Block cfiCond47 Using cfiCommon0
          CFI (cfiCond47) Function SendZclAttrReport
          CFI (cfiCond47) Conditional ??CrossCallReturnLabel_9
          CFI (cfiCond47) R6 load(1, XDATA, add(CFA_XSP16, literal(-14)))
          CFI (cfiCond47) VB load(1, XDATA, add(CFA_XSP16, literal(-13)))
          CFI (cfiCond47) V0 load(1, XDATA, add(CFA_XSP16, literal(-12)))
          CFI (cfiCond47) V1 load(1, XDATA, add(CFA_XSP16, literal(-11)))
          CFI (cfiCond47) V2 load(1, XDATA, add(CFA_XSP16, literal(-10)))
          CFI (cfiCond47) V3 load(1, XDATA, add(CFA_XSP16, literal(-9)))
          CFI (cfiCond47) V4 load(1, XDATA, add(CFA_XSP16, literal(-8)))
          CFI (cfiCond47) V5 load(1, XDATA, add(CFA_XSP16, literal(-7)))
          CFI (cfiCond47) R7 load(1, XDATA, add(CFA_XSP16, literal(-6)))
          CFI (cfiCond47) ?RET_LOW load(1, XDATA, add(CFA_XSP16, literal(-5)))
          CFI (cfiCond47) ?RET_HIGH load(1, XDATA, add(CFA_XSP16, literal(-4)))
          CFI (cfiCond47) ?BRET_EXT load(1, XDATA, add(CFA_XSP16, literal(-3)))
          CFI (cfiCond47) DPL0 load(1, XDATA, add(CFA_XSP16, literal(-2)))
          CFI (cfiCond47) DPH0 load(1, XDATA, add(CFA_XSP16, literal(-1)))
          CFI (cfiCond47) CFA_SP SP+-2
          CFI (cfiCond47) CFA_XSP16 add(XSP16, 14)
          CFI Block cfiPicker48 Using cfiCommon1
          CFI (cfiPicker48) NoFunction
          CFI (cfiPicker48) Picker
        LCALL     ?Subroutine31 & 0xFFFF
??CrossCallReturnLabel_48:
        INC       DPTR
        RET
          CFI EndBlock cfiCond46
          CFI EndBlock cfiCond47
          CFI EndBlock cfiPicker48
//  882 
//  883 static void zclMultiSensor_ProcessInReportCmd( zclIncomingMsg_t *pInMsg )
//  884 {
//  885   zclReportCmd_t *pReportCmd;                           // numAttr, attrList[] : (zclReport_t) attrID, dataType, *attrData
//  886   pReportCmd = (zclReportCmd_t *)pInMsg->attrCmd;       // *pReportCmd will be free by handle
//  887   afAddrType_t dstAddr;
//  888   
//  889   dstAddr.addr.shortAddr = 0x0000;
//  890   dstAddr.addrMode = (afAddrMode_t)Addr16Bit;
//  891   switch ( pInMsg->clusterId )
//  892   {
//  893   case ZCL_CLUSTER_ID_MS_ILLUMINANCE_MEASUREMENT:
//  894     dstAddr.endPoint = 1;
//  895     break;
//  896   case ZCL_CLUSTER_ID_MS_TEMPERATURE_MEASUREMENT:
//  897     dstAddr.endPoint = 2;
//  898     break;
//  899   case ZCL_CLUSTER_ID_MS_RELATIVE_HUMIDITY:
//  900     dstAddr.endPoint = 3;
//  901     break;
//  902   case ZCL_CLUSTER_ID_MS_OCCUPANCY_SENSING:
//  903     dstAddr.endPoint = 4;
//  904     break;
//  905   case ZCL_CLUSTER_ID_MS_TVOC_MEASUREMENT:
//  906     dstAddr.endPoint = 6;
//  907     break;
//  908   case ZCL_CLUSTER_ID_MS_CO2_MEASUREMENT:
//  909     dstAddr.endPoint = 7;
//  910     break;
//  911   default:
//  912     break;
//  913   }
//  914   
//  915   if( zcl_SendReportCmd( MULTISENSOR_ENDPOINT, &dstAddr, pInMsg->clusterId, pReportCmd, ZCL_REPORT_RECEIVE, FALSE, NULL) != ZSuccess )
//  916   {
//  917     while(1);
//  918   }  
//  919 }
//  920 

        RSEG BANKED_CODE:HUGECODE:NOROOT(0)
//  921 static uint8 zclMultiSensor_ProcessInConfigReportCmd( zclIncomingMsg_t *pInMsg )
zclMultiSensor_ProcessInConfigReportCmd:
          CFI Block cfiBlock49 Using cfiCommon0
          CFI Function zclMultiSensor_ProcessInConfigReportCmd
        CODE
//  922 {
        FUNCALL zclMultiSensor_ProcessInConfigReportCmd, osal_mem_alloc
        LOCFRAME ISTACK, 0, STACK
        LOCFRAME PSTACK, 0, STACK
        LOCFRAME XSTACK, 36, STACK
        LOCFRAME IOVERLAY, 0, STATIC
        LOCFRAME DOVERLAY, 0, STATIC
        ARGFRAME ISTACK, 0, STACK
        ARGFRAME PSTACK, 0, STACK
        ARGFRAME XSTACK, 36, STACK
        ARGFRAME IOVERLAY, 0, STATIC
        ARGFRAME DOVERLAY, 0, STATIC
        FUNCALL zclMultiSensor_ProcessInConfigReportCmd, osal_memset
        LOCFRAME ISTACK, 0, STACK
        LOCFRAME PSTACK, 0, STACK
        LOCFRAME XSTACK, 36, STACK
        LOCFRAME IOVERLAY, 0, STATIC
        LOCFRAME DOVERLAY, 0, STATIC
        ARGFRAME ISTACK, 0, STACK
        ARGFRAME PSTACK, 0, STACK
        ARGFRAME XSTACK, 36, STACK
        ARGFRAME IOVERLAY, 0, STATIC
        ARGFRAME DOVERLAY, 0, STATIC
        FUNCALL zclMultiSensor_ProcessInConfigReportCmd, zclFindConfigReportRec
        LOCFRAME ISTACK, 0, STACK
        LOCFRAME PSTACK, 0, STACK
        LOCFRAME XSTACK, 38, STACK
        LOCFRAME IOVERLAY, 0, STATIC
        LOCFRAME DOVERLAY, 0, STATIC
        ARGFRAME ISTACK, 0, STACK
        ARGFRAME PSTACK, 0, STACK
        ARGFRAME XSTACK, 38, STACK
        ARGFRAME IOVERLAY, 0, STATIC
        ARGFRAME DOVERLAY, 0, STATIC
        FUNCALL zclMultiSensor_ProcessInConfigReportCmd, zclFindAttrRec
        LOCFRAME ISTACK, 0, STACK
        LOCFRAME PSTACK, 0, STACK
        LOCFRAME XSTACK, 38, STACK
        LOCFRAME IOVERLAY, 0, STATIC
        LOCFRAME DOVERLAY, 0, STATIC
        ARGFRAME ISTACK, 0, STACK
        ARGFRAME PSTACK, 0, STACK
        ARGFRAME XSTACK, 38, STACK
        ARGFRAME IOVERLAY, 0, STATIC
        ARGFRAME DOVERLAY, 0, STATIC
        FUNCALL zclMultiSensor_ProcessInConfigReportCmd, zcl_SendConfigReportRspCmd
        LOCFRAME ISTACK, 0, STACK
        LOCFRAME PSTACK, 0, STACK
        LOCFRAME XSTACK, 41, STACK
        LOCFRAME IOVERLAY, 0, STATIC
        LOCFRAME DOVERLAY, 0, STATIC
        ARGFRAME ISTACK, 0, STACK
        ARGFRAME PSTACK, 0, STACK
        ARGFRAME XSTACK, 41, STACK
        ARGFRAME IOVERLAY, 0, STATIC
        ARGFRAME DOVERLAY, 0, STATIC
        FUNCALL zclMultiSensor_ProcessInConfigReportCmd, osal_mem_free
        LOCFRAME ISTACK, 0, STACK
        LOCFRAME PSTACK, 0, STACK
        LOCFRAME XSTACK, 36, STACK
        LOCFRAME IOVERLAY, 0, STATIC
        LOCFRAME DOVERLAY, 0, STATIC
        ARGFRAME ISTACK, 0, STACK
        ARGFRAME PSTACK, 0, STACK
        ARGFRAME XSTACK, 36, STACK
        ARGFRAME IOVERLAY, 0, STATIC
        ARGFRAME DOVERLAY, 0, STATIC
        FUNCALL zclMultiSensor_ProcessInConfigReportCmd, zclMultiSensor_CheckReportConfig
        LOCFRAME ISTACK, 0, STACK
        LOCFRAME PSTACK, 0, STACK
        LOCFRAME XSTACK, 36, STACK
        LOCFRAME IOVERLAY, 0, STATIC
        LOCFRAME DOVERLAY, 0, STATIC
        ARGFRAME ISTACK, 0, STACK
        ARGFRAME PSTACK, 0, STACK
        ARGFRAME XSTACK, 36, STACK
        ARGFRAME IOVERLAY, 0, STATIC
        ARGFRAME DOVERLAY, 0, STATIC
        REQUIRE ?V0
        REQUIRE ?V1
        REQUIRE ?V2
        REQUIRE ?V3
        REQUIRE ?V4
        REQUIRE ?V5
        REQUIRE ?V6
        REQUIRE ?V7
        REQUIRE ?V8
        REQUIRE ?V9
        REQUIRE ?V10
        REQUIRE ?V11
        REQUIRE ?V12
        REQUIRE ?V13
        REQUIRE ?V14
        REQUIRE ?V15
        MOV       A,#-0x18
        LCALL     ?BANKED_ENTER_XDATA
          CFI DPH0 load(1, XDATA, add(CFA_XSP16, literal(-1)))
          CFI DPL0 load(1, XDATA, add(CFA_XSP16, literal(-2)))
          CFI ?BRET_EXT load(1, XDATA, add(CFA_XSP16, literal(-3)))
          CFI ?RET_HIGH load(1, XDATA, add(CFA_XSP16, literal(-4)))
          CFI ?RET_LOW load(1, XDATA, add(CFA_XSP16, literal(-5)))
          CFI R7 load(1, XDATA, add(CFA_XSP16, literal(-6)))
          CFI V15 load(1, XDATA, add(CFA_XSP16, literal(-7)))
          CFI V14 load(1, XDATA, add(CFA_XSP16, literal(-8)))
          CFI V13 load(1, XDATA, add(CFA_XSP16, literal(-9)))
          CFI V12 load(1, XDATA, add(CFA_XSP16, literal(-10)))
          CFI V11 load(1, XDATA, add(CFA_XSP16, literal(-11)))
          CFI V10 load(1, XDATA, add(CFA_XSP16, literal(-12)))
          CFI V9 load(1, XDATA, add(CFA_XSP16, literal(-13)))
          CFI V8 load(1, XDATA, add(CFA_XSP16, literal(-14)))
          CFI V7 load(1, XDATA, add(CFA_XSP16, literal(-15)))
          CFI V6 load(1, XDATA, add(CFA_XSP16, literal(-16)))
          CFI V5 load(1, XDATA, add(CFA_XSP16, literal(-17)))
          CFI V4 load(1, XDATA, add(CFA_XSP16, literal(-18)))
          CFI V3 load(1, XDATA, add(CFA_XSP16, literal(-19)))
          CFI V2 load(1, XDATA, add(CFA_XSP16, literal(-20)))
          CFI V1 load(1, XDATA, add(CFA_XSP16, literal(-21)))
          CFI V0 load(1, XDATA, add(CFA_XSP16, literal(-22)))
          CFI VB load(1, XDATA, add(CFA_XSP16, literal(-23)))
          CFI R6 load(1, XDATA, add(CFA_XSP16, literal(-24)))
          CFI CFA_SP SP+0
          CFI CFA_XSP16 add(XSP16, 24)
        ; Saved register size: 24
        ; Auto size: 12
        MOV       A,#-0xc
        LCALL     ?ALLOC_XSTACK8
          CFI CFA_XSP16 add(XSP16, 36)
        MOV       ?V0,R2
        MOV       ?V1,R3
//  923   zclCfgReportCmd_t *pCfgReportCmd;             // this is used to look up table
//  924   zclCfgReportRspCmd_t *pCfgReportRspCmd;       // This is used to send responde message
//  925   uint8 sendRsp = FALSE;                        // status of initialize dynamic memory for responde message
        CLR       ?VB.0
//  926   uint16 len;
//  927   uint8 j = 0;
        MOV       ?V6,#0x0
//  928   uint8 i;
//  929   
//  930   //1. Initialize message responde ( using structure zclCfgReportRspCmd_t )
//  931   pCfgReportCmd = (zclCfgReportCmd_t *)pInMsg->attrCmd;
        MOV       A,R2
        ADD       A,#0x17
        MOV       DPL,A
        CLR       A
        ADDC      A,?V1
        LCALL     ?Subroutine27 & 0xFFFF
??CrossCallReturnLabel_69:
        MOV       A,#0x2
        LCALL     ?XSTACK_DISP0_8
        MOV       A,R0
        MOVX      @DPTR,A
        INC       DPTR
        MOV       A,R1
        LCALL     ?Subroutine9 & 0xFFFF
//  932   
//  933   if ( pInMsg->zclHdr.commandID == ZCL_CMD_CONFIG_REPORT )
??CrossCallReturnLabel_11:
        MOVX      A,@DPTR
        XRL       A,#0x6
        JNZ       ??zclMultiSensor_ProcessInConfigReportCmd_0
//  934   {
//  935     // We need to send a response back - allocate space for it
//  936     len = sizeof( zclCfgReportRspCmd_t ) + (pCfgReportCmd->numAttr * sizeof( zclCfgReportStatus_t ));
//  937     pCfgReportRspCmd = (zclCfgReportRspCmd_t *)zcl_mem_alloc( len );
        ; Setup parameters for call to function osal_mem_alloc
        MOV       A,#0x2
        LCALL     ?XSTACK_DISP0_8
        LCALL     ?Subroutine25 & 0xFFFF
??CrossCallReturnLabel_36:
        MOV       ?V2,A
        MOV       ?V3,#0x0
        MOV       A,#0x2
        MOV       R0,#?V2
        LCALL     ?S_SHL
        MOV       A,?V2
        ADD       A,#0x1
        MOV       R2,A
        CLR       A
        ADDC      A,?V3
        MOV       R3,A
        LCALL     `??osal_mem_alloc::?relay`; Banked call to: osal_mem_alloc
        MOV       ?V2,R2
        MOV       ?V3,R3
//  938     
//  939     if ( pCfgReportRspCmd == NULL )
        MOV       A,R2
        ORL       A,R3
        JNZ       ??zclMultiSensor_ProcessInConfigReportCmd_1
//  940     {
//  941       return FALSE;     // embedded return
        MOV       R1,#0x0
        LJMP      ??zclMultiSensor_ProcessInConfigReportCmd_2 & 0xFFFF
//  942     }
//  943     sendRsp = TRUE;     // sendRsp is active when we got correct commandID
??zclMultiSensor_ProcessInConfigReportCmd_1:
        SETB      ?VB.0
//  944   }
//  945   
//  946   for ( i = 0; i < pCfgReportCmd->numAttr; i++ )
??zclMultiSensor_ProcessInConfigReportCmd_0:
        MOV       ?V7,#0x0
        SJMP      ??zclMultiSensor_ProcessInConfigReportCmd_3
//  947   {
//  948     
//  949     //2. Look up config. report record of the incomming message in table "config. Report Record List"
//  950     zclConfigReportRec_t *pConfigReportRec = NULL;      // find the rec and store here
//  951     zclAttrRec_t attrRec;
//  952     
//  953     zclCfgReportStatus_t *statusRec = &(pCfgReportRspCmd->attrList[i]);
//  954     zcl_memset( statusRec, 0, sizeof( zclCfgReportStatus_t ));
//  955     
//  956     if ( zclFindConfigReportRec( pInMsg->endPoint, pInMsg->clusterId,
//  957                                 pCfgReportCmd->attrList[i].attrID, &pConfigReportRec))
//  958     {
//  959       
//  960       //3. Check "dataType" of variable to variable in incomming message
//  961       uint8 status = ZCL_STATUS_SUCCESS;
//  962       
//  963       if (pCfgReportCmd->attrList[i].dataType != pConfigReportRec->cfgReportRec.dataType )
//  964       {        
//  965         status = ZCL_STATUS_INVALID_DATA_TYPE;
//  966       }
//  967       else 
//  968       {
//  969         
//  970         //4. Look up Attribute record of incomming message in tabel "attribute list"
//  971         if ( zclFindAttrRec( pInMsg->endPoint, pInMsg->clusterId,
//  972                             pCfgReportCmd->attrList[i].attrID, &attrRec))
//  973         {
//  974           //5. Check "dataType" of variable to variable in incomming message
//  975           if (pCfgReportCmd->attrList[i].dataType != attrRec.attr.dataType )
//  976           {
//  977             status = ZCL_STATUS_INVALID_DATA_TYPE;
//  978           }
//  979           else
//  980           {
//  981             //6. Check Access control type of each attribute in incomming message to attribute in table "attribute list"
//  982             if ( !zcl_AccessCtrlRead(attrRec.attr.accessControl))
//  983             {
//  984               status = ZCL_STATUS_WRITE_ONLY;
//  985             }
//  986           }
//  987         }
//  988       }
//  989       
//  990       //7. Write config. value into variable in table "config. report record list"
//  991       // If successful, store the record, and a CfgReportStatus record shall NOT be generated
//  992       if ( sendRsp && status != ZCL_STATUS_SUCCESS )
//  993       {
//  994         //Attribute is write only or invalid data type - move on to the next record
//  995         statusRec->status = status;
//  996         statusRec->direction = pCfgReportCmd->attrList[i].direction;
//  997         statusRec->attrID = pCfgReportCmd->attrList[i].attrID;
//  998         j++;
//  999       }
// 1000       else    // Success, set the config report rec
// 1001       {
// 1002         pConfigReportRec->cfgReportRec.direction = pCfgReportCmd->attrList[i].direction;
// 1003         pConfigReportRec->cfgReportRec.minReportInt = pCfgReportCmd->attrList[i].minReportInt;
// 1004         pConfigReportRec->cfgReportRec.maxReportInt = pCfgReportCmd->attrList[i].maxReportInt;
// 1005         pConfigReportRec->cfgReportRec.timeoutPeriod = pCfgReportCmd->attrList[i].timeoutPeriod;
// 1006         pConfigReportRec->timeup = 0xFFFF;
// 1007       }
// 1008     }
// 1009     else
// 1010     {
// 1011       //Attribute is not supported - move on to the next configReportRec record
// 1012       if (sendRsp)
??zclMultiSensor_ProcessInConfigReportCmd_4:
        MOV       C,?VB.0
        JNC       ??zclMultiSensor_ProcessInConfigReportCmd_5
// 1013       {
// 1014         statusRec->status = ZCL_STATUS_UNSUPPORTED_ATTRIBUTE;
        MOV       DPL,?V4
        MOV       DPH,?V5
        MOV       A,#-0x7a
        LCALL     ?Subroutine6 & 0xFFFF
// 1015         statusRec->status = pCfgReportCmd->attrList[i].direction;
??CrossCallReturnLabel_4:
        MOVX      @DPTR,A
// 1016         statusRec->attrID = pCfgReportCmd->attrList[i].attrID;
        MOV       DPL,?V8
        MOV       DPH,?V9
        LCALL     ??Subroutine43_0 & 0xFFFF
??CrossCallReturnLabel_67:
        MOV       DPL,?V4
        MOV       DPH,?V5
        LCALL     ?Subroutine10 & 0xFFFF
// 1017         j++;
??CrossCallReturnLabel_87:
        INC       ?V6
// 1018       }
// 1019     }
??zclMultiSensor_ProcessInConfigReportCmd_5:
        INC       ?V7
??zclMultiSensor_ProcessInConfigReportCmd_3:
        MOV       A,#0x2
        LCALL     ?XSTACK_DISP0_8
        LCALL     ?Subroutine25 & 0xFFFF
??CrossCallReturnLabel_37:
        MOV       R0,A
        MOV       A,?V7
        CLR       C
        SUBB      A,R0
        JC        $+5
        LJMP      ??zclMultiSensor_ProcessInConfigReportCmd_6 & 0xFFFF
        MOV       DPL,?XSP + 0
        MOV       DPH,?XSP + 1
        CLR       A
        MOVX      @DPTR,A
        INC       DPTR
        MOVX      @DPTR,A
        MOV       R6,?V7
        MOV       ?V4,R6
        MOV       ?V5,A
        MOV       A,#0x2
        MOV       R0,#?V4
        LCALL     ?S_SHL
        MOV       A,?V2
        ADD       A,?V4
        MOV       DPL,A
        MOV       A,?V3
        ADDC      A,?V5
        MOV       DPH,A
        INC       DPTR
        MOV       ?V4,DPL
        MOV       ?V5,DPH
        ; Setup parameters for call to function osal_memset
        MOV       R4,#0x4
        MOV       R5,#0x0
        MOV       R1,#0x0
        MOV       R2,?V4
        MOV       R3,?V5
        LCALL     `??osal_memset::?relay`; Banked call to: osal_memset
        MOV       A,R6
        MOV       B,#0xc
        MUL       AB
        MOV       R6,A
        MOV       R7,B
        MOV       A,#0x2
        LCALL     ?XSTACK_DISP0_8
        MOVX      A,@DPTR
        ADD       A,R6
        MOV       R6,A
        INC       DPTR
        MOVX      A,@DPTR
        ADDC      A,R7
        MOV       R7,A
        MOV       DPL,R6
        MOV       DPH,A
        INC       DPTR
        MOV       ?V12,DPL
        MOV       ?V13,DPH
        MOV       A,R6
        ADD       A,#0x2
        MOV       ?V8,A
        CLR       A
        ADDC      A,R7
        MOV       ?V9,A
        ; Setup parameters for call to function zclFindConfigReportRec
        MOV       R0,?XSP + 0
        MOV       R1,?XSP + 1
        MOV       ?V10,R0
        MOV       ?V11,R1
        MOV       R0,#?V10
        LCALL     ?PUSH_XSTACK_I_TWO
          CFI CFA_XSP16 add(XSP16, 38)
        LCALL     ?Subroutine13 & 0xFFFF
??CrossCallReturnLabel_16:
        LCALL     `??zclFindConfigReportRec::?relay`; Banked call to: zclFindConfigReportRec
        MOV       A,#0x2
        LCALL     ?DEALLOC_XSTACK8
          CFI CFA_XSP16 add(XSP16, 36)
        MOV       A,R1
        JNZ       $+5
        LJMP      ??zclMultiSensor_ProcessInConfigReportCmd_4 & 0xFFFF
        MOV       A,R6
        ADD       A,#0x4
        MOV       ?V14,A
        CLR       A
        ADDC      A,R7
        MOV       ?V15,A
        MOV       DPL,?V14
        MOV       DPH,A
        MOVX      A,@DPTR
        MOV       R1,A
        LCALL     ?Subroutine41 & 0xFFFF
??CrossCallReturnLabel_102:
        XCH       A,R0
        ADD       A,#0x9
        MOV       DPL,A
        CLR       A
        ADDC      A,R0
        MOV       DPH,A
        MOVX      A,@DPTR
        XRL       A,R1
        JNZ       ??zclMultiSensor_ProcessInConfigReportCmd_7
        ; Setup parameters for call to function zclFindAttrRec
        MOV       A,#0x4
        LCALL     ?XSTACK_DISP100_8
        MOV       ?V10,R0
        MOV       ?V11,R1
        MOV       R0,#?V10
        LCALL     ?PUSH_XSTACK_I_TWO
          CFI CFA_XSP16 add(XSP16, 38)
        LCALL     ?Subroutine13 & 0xFFFF
??CrossCallReturnLabel_17:
        LCALL     ?Subroutine29 & 0xFFFF
??CrossCallReturnLabel_43:
        LCALL     ?DEALLOC_XSTACK8
          CFI CFA_XSP16 add(XSP16, 36)
        MOV       A,R1
        JZ        ??zclMultiSensor_ProcessInConfigReportCmd_8
        MOV       DPL,?V14
        MOV       DPH,?V15
        MOVX      A,@DPTR
        MOV       R0,A
        MOV       A,#0x8
        LCALL     ?XSTACK_DISP0_8
        MOVX      A,@DPTR
        XRL       A,R0
        JZ        ??zclMultiSensor_ProcessInConfigReportCmd_9
??zclMultiSensor_ProcessInConfigReportCmd_7:
        MOV       A,#-0x73
        SJMP      ??zclMultiSensor_ProcessInConfigReportCmd_10
??zclMultiSensor_ProcessInConfigReportCmd_9:
        MOV       A,#0x9
        LCALL     ?XSTACK_DISP0_8
        MOVX      A,@DPTR
        MOV       C,0xE0 /* A   */.0
        JC        ??zclMultiSensor_ProcessInConfigReportCmd_8
        MOV       A,#-0x71
??zclMultiSensor_ProcessInConfigReportCmd_10:
        MOV       C,?VB.0
        JNC       ??zclMultiSensor_ProcessInConfigReportCmd_8
        MOV       DPL,?V4
        MOV       DPH,?V5
        LCALL     ?Subroutine6 & 0xFFFF
??CrossCallReturnLabel_5:
        INC       DPTR
        LJMP      ??CrossCallReturnLabel_4 & 0xFFFF
??zclMultiSensor_ProcessInConfigReportCmd_8:
        MOV       DPL,?V12
        MOV       DPH,?V13
        MOVX      A,@DPTR
        PUSH      A
          CFI CFA_SP SP+-1
        LCALL     ?Subroutine41 & 0xFFFF
// 1020   }//for loop
??CrossCallReturnLabel_103:
        XCH       A,R0
        ADD       A,#0x6
        MOV       DPL,A
        CLR       A
        ADDC      A,R0
        MOV       DPH,A
        POP       A
          CFI CFA_SP SP+0
        LCALL     ?Subroutine33 & 0xFFFF
??CrossCallReturnLabel_50:
        LCALL     ?Subroutine14 & 0xFFFF
??CrossCallReturnLabel_76:
        ADD       A,#0xa
        LCALL     ?Subroutine5 & 0xFFFF
??CrossCallReturnLabel_2:
        LCALL     ??Subroutine44_0 & 0xFFFF
??CrossCallReturnLabel_75:
        ADD       A,#0xc
        LCALL     ?Subroutine5 & 0xFFFF
??CrossCallReturnLabel_3:
        LCALL     ?Subroutine14 & 0xFFFF
??CrossCallReturnLabel_77:
        LCALL     ?Subroutine30 & 0xFFFF
??CrossCallReturnLabel_46:
        LCALL     ?Subroutine4 & 0xFFFF
??CrossCallReturnLabel_1:
        INC       DPTR
        INC       DPTR
        MOV       A,#-0x1
        MOVX      @DPTR,A
        INC       DPTR
        MOVX      @DPTR,A
        LJMP      ??zclMultiSensor_ProcessInConfigReportCmd_5 & 0xFFFF
// 1021   //8. Send respond message with function "zcl_SendConfigReportRspCmd"
// 1022   if ( sendRsp )
??zclMultiSensor_ProcessInConfigReportCmd_6:
        MOV       C,?VB.0
        JNC       ??zclMultiSensor_ProcessInConfigReportCmd_11
// 1023   {
// 1024     pCfgReportRspCmd->numAttr = j;
        MOV       DPL,?V2
        MOV       DPH,?V3
        MOV       A,?V6
        MOVX      @DPTR,A
// 1025     if (pCfgReportRspCmd->numAttr == 0)
        JNZ       ??zclMultiSensor_ProcessInConfigReportCmd_12
// 1026     {
// 1027       //Since all records were written successful, include a single status record
// 1028       // in the response command with the status field set to SUCCESS and the
// 1029       // attribute ID and direction fields omitted.
// 1030       pCfgReportRspCmd->attrList[0].status = ZCL_STATUS_SUCCESS;
        INC       DPTR
        CLR       A
        MOVX      @DPTR,A
// 1031       pCfgReportRspCmd->numAttr = 1;
        MOV       DPL,?V2
        MOV       DPH,?V3
        INC       A
        MOVX      @DPTR,A
// 1032     }
// 1033     
// 1034     zcl_SendConfigReportRspCmd(pInMsg->endPoint, &(pInMsg->srcAddr),
// 1035                                pInMsg->clusterId, pCfgReportRspCmd,
// 1036                                !pInMsg->zclHdr.fc.direction, TRUE,
// 1037                                pInMsg->zclHdr.transSeqNum );
??zclMultiSensor_ProcessInConfigReportCmd_12:
        ; Setup parameters for call to function zcl_SendConfigReportRspCmd
        MOV       DPL,?V0
        MOV       DPH,?V1
        INC       DPTR
        INC       DPTR
        INC       DPTR
        INC       DPTR
        INC       DPTR
        INC       DPTR
        MOVX      A,@DPTR
        MOV       ?V4,A
        MOV       R0,#?V4
        LCALL     ?PUSH_XSTACK_I_ONE
          CFI CFA_XSP16 add(XSP16, 37)
        MOV       ?V4,#0x1
        MOV       R0,#?V4
        LCALL     ?PUSH_XSTACK_I_ONE
          CFI CFA_XSP16 add(XSP16, 38)
        MOV       DPL,?V0
        MOV       DPH,?V1
        LCALL     ?Subroutine23 & 0xFFFF
??CrossCallReturnLabel_32:
        MOV       ?V4,A
        MOV       R0,#?V4
        LCALL     ?PUSH_XSTACK_I_ONE
          CFI CFA_XSP16 add(XSP16, 39)
        MOV       R0,#?V2
        LCALL     ?PUSH_XSTACK_I_TWO
          CFI CFA_XSP16 add(XSP16, 41)
        MOV       DPL,?V0
        MOV       DPH,?V1
        LCALL     ?Subroutine15 & 0xFFFF
??CrossCallReturnLabel_117:
        MOV       A,?V0
        ADD       A,#0xa
        MOV       R2,A
        CLR       A
        ADDC      A,?V1
        MOV       R3,A
        LCALL     ?Subroutine37 & 0xFFFF
??CrossCallReturnLabel_54:
        LCALL     `??zcl_SendConfigReportRspCmd::?relay`; Banked call to: zcl_SendConfigReportRspCmd
        MOV       A,#0x5
        LCALL     ?DEALLOC_XSTACK8
          CFI CFA_XSP16 add(XSP16, 36)
// 1038     zcl_mem_free ( pCfgReportRspCmd );
        ; Setup parameters for call to function osal_mem_free
        MOV       R2,?V2
        MOV       R3,?V3
        LCALL     `??osal_mem_free::?relay`; Banked call to: osal_mem_free
// 1039   }
// 1040   
// 1041   //9. When configured, check report config immediately with function "xxx_CheckReportConfig()"
// 1042   // when configured, check report config immediately
// 1043   zclMultiSensor_CheckReportConfig();
??zclMultiSensor_ProcessInConfigReportCmd_11:
        ; Setup parameters for call to function zclMultiSensor_CheckReportConfig
        LCALL     `??zclMultiSensor_CheckReportConfig::?relay`; Banked call to: zclMultiSensor_CheckReportConfig
// 1044   // The MULTISENSOR_CHECK_REPORT_EVT will then be triggered again and again
// 1045   // if we never received the ConfiReportCmd, the MULTISENSOR_CHECK_REPORT_EVT
// 1046   // has no change to be triggered.
// 1047   
// 1048   // We think this makes sense, since there is no reason for your app to perform
// 1049   // constantly report unless the app is configured to report.
// 1050   // if your app just need to automatically report after bootup, you can trigger
// 1051   // MULTISENSOR_CHECK_REPORT_EVT in zclXXX_Init().
// 1052   return TRUE;
        MOV       R1,#0x1
??zclMultiSensor_ProcessInConfigReportCmd_2:
        MOV       A,#0xc
        LJMP      ??Subroutine42_0 & 0xFFFF
// 1053 }
          CFI EndBlock cfiBlock49

        RSEG BANKED_CODE:HUGECODE:NOROOT(0)
?Subroutine27:
          CFI Block cfiCond50 Using cfiCommon0
          CFI Function zclMultiSensor_ProcessInConfigReportCmd
          CFI Conditional ??CrossCallReturnLabel_69
          CFI R6 load(1, XDATA, add(CFA_XSP16, literal(-24)))
          CFI VB load(1, XDATA, add(CFA_XSP16, literal(-23)))
          CFI V0 load(1, XDATA, add(CFA_XSP16, literal(-22)))
          CFI V1 load(1, XDATA, add(CFA_XSP16, literal(-21)))
          CFI V2 load(1, XDATA, add(CFA_XSP16, literal(-20)))
          CFI V3 load(1, XDATA, add(CFA_XSP16, literal(-19)))
          CFI V4 load(1, XDATA, add(CFA_XSP16, literal(-18)))
          CFI V5 load(1, XDATA, add(CFA_XSP16, literal(-17)))
          CFI V6 load(1, XDATA, add(CFA_XSP16, literal(-16)))
          CFI V7 load(1, XDATA, add(CFA_XSP16, literal(-15)))
          CFI V8 load(1, XDATA, add(CFA_XSP16, literal(-14)))
          CFI V9 load(1, XDATA, add(CFA_XSP16, literal(-13)))
          CFI V10 load(1, XDATA, add(CFA_XSP16, literal(-12)))
          CFI V11 load(1, XDATA, add(CFA_XSP16, literal(-11)))
          CFI V12 load(1, XDATA, add(CFA_XSP16, literal(-10)))
          CFI V13 load(1, XDATA, add(CFA_XSP16, literal(-9)))
          CFI V14 load(1, XDATA, add(CFA_XSP16, literal(-8)))
          CFI V15 load(1, XDATA, add(CFA_XSP16, literal(-7)))
          CFI R7 load(1, XDATA, add(CFA_XSP16, literal(-6)))
          CFI ?RET_LOW load(1, XDATA, add(CFA_XSP16, literal(-5)))
          CFI ?RET_HIGH load(1, XDATA, add(CFA_XSP16, literal(-4)))
          CFI ?BRET_EXT load(1, XDATA, add(CFA_XSP16, literal(-3)))
          CFI DPL0 load(1, XDATA, add(CFA_XSP16, literal(-2)))
          CFI DPH0 load(1, XDATA, add(CFA_XSP16, literal(-1)))
          CFI CFA_SP SP+-2
          CFI CFA_XSP16 add(XSP16, 36)
          CFI Block cfiCond51 Using cfiCommon0
          CFI (cfiCond51) Function zclMultiSensor_ProcessInReadReportCfgCmd
          CFI (cfiCond51) Conditional ??CrossCallReturnLabel_70
          CFI (cfiCond51) R6 load(1, XDATA, add(CFA_XSP16, literal(-24)))
          CFI (cfiCond51) VB load(1, XDATA, add(CFA_XSP16, literal(-23)))
          CFI (cfiCond51) V0 load(1, XDATA, add(CFA_XSP16, literal(-22)))
          CFI (cfiCond51) V1 load(1, XDATA, add(CFA_XSP16, literal(-21)))
          CFI (cfiCond51) V2 load(1, XDATA, add(CFA_XSP16, literal(-20)))
          CFI (cfiCond51) V3 load(1, XDATA, add(CFA_XSP16, literal(-19)))
          CFI (cfiCond51) V4 load(1, XDATA, add(CFA_XSP16, literal(-18)))
          CFI (cfiCond51) V5 load(1, XDATA, add(CFA_XSP16, literal(-17)))
          CFI (cfiCond51) V6 load(1, XDATA, add(CFA_XSP16, literal(-16)))
          CFI (cfiCond51) V7 load(1, XDATA, add(CFA_XSP16, literal(-15)))
          CFI (cfiCond51) V8 load(1, XDATA, add(CFA_XSP16, literal(-14)))
          CFI (cfiCond51) V9 load(1, XDATA, add(CFA_XSP16, literal(-13)))
          CFI (cfiCond51) V10 load(1, XDATA, add(CFA_XSP16, literal(-12)))
          CFI (cfiCond51) V11 load(1, XDATA, add(CFA_XSP16, literal(-11)))
          CFI (cfiCond51) V12 load(1, XDATA, add(CFA_XSP16, literal(-10)))
          CFI (cfiCond51) V13 load(1, XDATA, add(CFA_XSP16, literal(-9)))
          CFI (cfiCond51) V14 load(1, XDATA, add(CFA_XSP16, literal(-8)))
          CFI (cfiCond51) V15 load(1, XDATA, add(CFA_XSP16, literal(-7)))
          CFI (cfiCond51) R7 load(1, XDATA, add(CFA_XSP16, literal(-6)))
          CFI (cfiCond51) ?RET_LOW load(1, XDATA, add(CFA_XSP16, literal(-5)))
          CFI (cfiCond51) ?RET_HIGH load(1, XDATA, add(CFA_XSP16, literal(-4)))
          CFI (cfiCond51) ?BRET_EXT load(1, XDATA, add(CFA_XSP16, literal(-3)))
          CFI (cfiCond51) DPL0 load(1, XDATA, add(CFA_XSP16, literal(-2)))
          CFI (cfiCond51) DPH0 load(1, XDATA, add(CFA_XSP16, literal(-1)))
          CFI (cfiCond51) CFA_SP SP+-2
          CFI (cfiCond51) CFA_XSP16 add(XSP16, 34)
          CFI Block cfiPicker52 Using cfiCommon1
          CFI (cfiPicker52) NoFunction
          CFI (cfiPicker52) Picker
        MOV       DPH,A
          CFI EndBlock cfiCond50
          CFI EndBlock cfiCond51
          CFI EndBlock cfiPicker52
        REQUIRE ??Subroutine43_0
        ; // Fall through to label ??Subroutine43_0

        RSEG BANKED_CODE:HUGECODE:NOROOT(0)
??Subroutine43_0:
          CFI Block cfiCond53 Using cfiCommon0
          CFI Function uartEventApplicationCB
          CFI Conditional ??CrossCallReturnLabel_62
          CFI R6 load(1, XDATA, add(CFA_XSP16, literal(-18)))
          CFI VB load(1, XDATA, add(CFA_XSP16, literal(-17)))
          CFI V0 load(1, XDATA, add(CFA_XSP16, literal(-16)))
          CFI V1 load(1, XDATA, add(CFA_XSP16, literal(-15)))
          CFI V2 load(1, XDATA, add(CFA_XSP16, literal(-14)))
          CFI V3 load(1, XDATA, add(CFA_XSP16, literal(-13)))
          CFI V4 load(1, XDATA, add(CFA_XSP16, literal(-12)))
          CFI V5 load(1, XDATA, add(CFA_XSP16, literal(-11)))
          CFI V6 load(1, XDATA, add(CFA_XSP16, literal(-10)))
          CFI V7 load(1, XDATA, add(CFA_XSP16, literal(-9)))
          CFI V8 load(1, XDATA, add(CFA_XSP16, literal(-8)))
          CFI V9 load(1, XDATA, add(CFA_XSP16, literal(-7)))
          CFI R7 load(1, XDATA, add(CFA_XSP16, literal(-6)))
          CFI ?RET_LOW load(1, XDATA, add(CFA_XSP16, literal(-5)))
          CFI ?RET_HIGH load(1, XDATA, add(CFA_XSP16, literal(-4)))
          CFI ?BRET_EXT load(1, XDATA, add(CFA_XSP16, literal(-3)))
          CFI DPL0 load(1, XDATA, add(CFA_XSP16, literal(-2)))
          CFI DPH0 load(1, XDATA, add(CFA_XSP16, literal(-1)))
          CFI CFA_SP SP+-2
          CFI CFA_XSP16 add(XSP16, 25)
          CFI Block cfiCond54 Using cfiCommon0
          CFI (cfiCond54) Function uartEventApplicationCB
          CFI (cfiCond54) Conditional ??CrossCallReturnLabel_63
          CFI (cfiCond54) R6 load(1, XDATA, add(CFA_XSP16, literal(-18)))
          CFI (cfiCond54) VB load(1, XDATA, add(CFA_XSP16, literal(-17)))
          CFI (cfiCond54) V0 load(1, XDATA, add(CFA_XSP16, literal(-16)))
          CFI (cfiCond54) V1 load(1, XDATA, add(CFA_XSP16, literal(-15)))
          CFI (cfiCond54) V2 load(1, XDATA, add(CFA_XSP16, literal(-14)))
          CFI (cfiCond54) V3 load(1, XDATA, add(CFA_XSP16, literal(-13)))
          CFI (cfiCond54) V4 load(1, XDATA, add(CFA_XSP16, literal(-12)))
          CFI (cfiCond54) V5 load(1, XDATA, add(CFA_XSP16, literal(-11)))
          CFI (cfiCond54) V6 load(1, XDATA, add(CFA_XSP16, literal(-10)))
          CFI (cfiCond54) V7 load(1, XDATA, add(CFA_XSP16, literal(-9)))
          CFI (cfiCond54) V8 load(1, XDATA, add(CFA_XSP16, literal(-8)))
          CFI (cfiCond54) V9 load(1, XDATA, add(CFA_XSP16, literal(-7)))
          CFI (cfiCond54) R7 load(1, XDATA, add(CFA_XSP16, literal(-6)))
          CFI (cfiCond54) ?RET_LOW load(1, XDATA, add(CFA_XSP16, literal(-5)))
          CFI (cfiCond54) ?RET_HIGH load(1, XDATA, add(CFA_XSP16, literal(-4)))
          CFI (cfiCond54) ?BRET_EXT load(1, XDATA, add(CFA_XSP16, literal(-3)))
          CFI (cfiCond54) DPL0 load(1, XDATA, add(CFA_XSP16, literal(-2)))
          CFI (cfiCond54) DPH0 load(1, XDATA, add(CFA_XSP16, literal(-1)))
          CFI (cfiCond54) CFA_SP SP+-2
          CFI (cfiCond54) CFA_XSP16 add(XSP16, 25)
          CFI Block cfiCond55 Using cfiCommon0
          CFI (cfiCond55) Function uartEventApplicationCB
          CFI (cfiCond55) Conditional ??CrossCallReturnLabel_64
          CFI (cfiCond55) R6 load(1, XDATA, add(CFA_XSP16, literal(-18)))
          CFI (cfiCond55) VB load(1, XDATA, add(CFA_XSP16, literal(-17)))
          CFI (cfiCond55) V0 load(1, XDATA, add(CFA_XSP16, literal(-16)))
          CFI (cfiCond55) V1 load(1, XDATA, add(CFA_XSP16, literal(-15)))
          CFI (cfiCond55) V2 load(1, XDATA, add(CFA_XSP16, literal(-14)))
          CFI (cfiCond55) V3 load(1, XDATA, add(CFA_XSP16, literal(-13)))
          CFI (cfiCond55) V4 load(1, XDATA, add(CFA_XSP16, literal(-12)))
          CFI (cfiCond55) V5 load(1, XDATA, add(CFA_XSP16, literal(-11)))
          CFI (cfiCond55) V6 load(1, XDATA, add(CFA_XSP16, literal(-10)))
          CFI (cfiCond55) V7 load(1, XDATA, add(CFA_XSP16, literal(-9)))
          CFI (cfiCond55) V8 load(1, XDATA, add(CFA_XSP16, literal(-8)))
          CFI (cfiCond55) V9 load(1, XDATA, add(CFA_XSP16, literal(-7)))
          CFI (cfiCond55) R7 load(1, XDATA, add(CFA_XSP16, literal(-6)))
          CFI (cfiCond55) ?RET_LOW load(1, XDATA, add(CFA_XSP16, literal(-5)))
          CFI (cfiCond55) ?RET_HIGH load(1, XDATA, add(CFA_XSP16, literal(-4)))
          CFI (cfiCond55) ?BRET_EXT load(1, XDATA, add(CFA_XSP16, literal(-3)))
          CFI (cfiCond55) DPL0 load(1, XDATA, add(CFA_XSP16, literal(-2)))
          CFI (cfiCond55) DPH0 load(1, XDATA, add(CFA_XSP16, literal(-1)))
          CFI (cfiCond55) CFA_SP SP+-2
          CFI (cfiCond55) CFA_XSP16 add(XSP16, 25)
          CFI Block cfiCond56 Using cfiCommon0
          CFI (cfiCond56) Function zclMultiSensor_CheckAndSendClusterAttrReport
          CFI (cfiCond56) Conditional ??CrossCallReturnLabel_65
          CFI (cfiCond56) R6 load(1, XDATA, add(CFA_XSP16, literal(-24)))
          CFI (cfiCond56) VB load(1, XDATA, add(CFA_XSP16, literal(-23)))
          CFI (cfiCond56) V0 load(1, XDATA, add(CFA_XSP16, literal(-22)))
          CFI (cfiCond56) V1 load(1, XDATA, add(CFA_XSP16, literal(-21)))
          CFI (cfiCond56) V2 load(1, XDATA, add(CFA_XSP16, literal(-20)))
          CFI (cfiCond56) V3 load(1, XDATA, add(CFA_XSP16, literal(-19)))
          CFI (cfiCond56) V4 load(1, XDATA, add(CFA_XSP16, literal(-18)))
          CFI (cfiCond56) V5 load(1, XDATA, add(CFA_XSP16, literal(-17)))
          CFI (cfiCond56) V6 load(1, XDATA, add(CFA_XSP16, literal(-16)))
          CFI (cfiCond56) V7 load(1, XDATA, add(CFA_XSP16, literal(-15)))
          CFI (cfiCond56) V8 load(1, XDATA, add(CFA_XSP16, literal(-14)))
          CFI (cfiCond56) V9 load(1, XDATA, add(CFA_XSP16, literal(-13)))
          CFI (cfiCond56) V10 load(1, XDATA, add(CFA_XSP16, literal(-12)))
          CFI (cfiCond56) V11 load(1, XDATA, add(CFA_XSP16, literal(-11)))
          CFI (cfiCond56) V12 load(1, XDATA, add(CFA_XSP16, literal(-10)))
          CFI (cfiCond56) V13 load(1, XDATA, add(CFA_XSP16, literal(-9)))
          CFI (cfiCond56) V14 load(1, XDATA, add(CFA_XSP16, literal(-8)))
          CFI (cfiCond56) V15 load(1, XDATA, add(CFA_XSP16, literal(-7)))
          CFI (cfiCond56) R7 load(1, XDATA, add(CFA_XSP16, literal(-6)))
          CFI (cfiCond56) ?RET_LOW load(1, XDATA, add(CFA_XSP16, literal(-5)))
          CFI (cfiCond56) ?RET_HIGH load(1, XDATA, add(CFA_XSP16, literal(-4)))
          CFI (cfiCond56) ?BRET_EXT load(1, XDATA, add(CFA_XSP16, literal(-3)))
          CFI (cfiCond56) DPL0 load(1, XDATA, add(CFA_XSP16, literal(-2)))
          CFI (cfiCond56) DPH0 load(1, XDATA, add(CFA_XSP16, literal(-1)))
          CFI (cfiCond56) CFA_SP SP+-2
          CFI (cfiCond56) CFA_XSP16 add(XSP16, 34)
          CFI Block cfiCond57 Using cfiCommon0
          CFI (cfiCond57) Function zclMultiSensor_CheckAndSendClusterAttrReport
          CFI (cfiCond57) Conditional ??CrossCallReturnLabel_66
          CFI (cfiCond57) R6 load(1, XDATA, add(CFA_XSP16, literal(-24)))
          CFI (cfiCond57) VB load(1, XDATA, add(CFA_XSP16, literal(-23)))
          CFI (cfiCond57) V0 load(1, XDATA, add(CFA_XSP16, literal(-22)))
          CFI (cfiCond57) V1 load(1, XDATA, add(CFA_XSP16, literal(-21)))
          CFI (cfiCond57) V2 load(1, XDATA, add(CFA_XSP16, literal(-20)))
          CFI (cfiCond57) V3 load(1, XDATA, add(CFA_XSP16, literal(-19)))
          CFI (cfiCond57) V4 load(1, XDATA, add(CFA_XSP16, literal(-18)))
          CFI (cfiCond57) V5 load(1, XDATA, add(CFA_XSP16, literal(-17)))
          CFI (cfiCond57) V6 load(1, XDATA, add(CFA_XSP16, literal(-16)))
          CFI (cfiCond57) V7 load(1, XDATA, add(CFA_XSP16, literal(-15)))
          CFI (cfiCond57) V8 load(1, XDATA, add(CFA_XSP16, literal(-14)))
          CFI (cfiCond57) V9 load(1, XDATA, add(CFA_XSP16, literal(-13)))
          CFI (cfiCond57) V10 load(1, XDATA, add(CFA_XSP16, literal(-12)))
          CFI (cfiCond57) V11 load(1, XDATA, add(CFA_XSP16, literal(-11)))
          CFI (cfiCond57) V12 load(1, XDATA, add(CFA_XSP16, literal(-10)))
          CFI (cfiCond57) V13 load(1, XDATA, add(CFA_XSP16, literal(-9)))
          CFI (cfiCond57) V14 load(1, XDATA, add(CFA_XSP16, literal(-8)))
          CFI (cfiCond57) V15 load(1, XDATA, add(CFA_XSP16, literal(-7)))
          CFI (cfiCond57) R7 load(1, XDATA, add(CFA_XSP16, literal(-6)))
          CFI (cfiCond57) ?RET_LOW load(1, XDATA, add(CFA_XSP16, literal(-5)))
          CFI (cfiCond57) ?RET_HIGH load(1, XDATA, add(CFA_XSP16, literal(-4)))
          CFI (cfiCond57) ?BRET_EXT load(1, XDATA, add(CFA_XSP16, literal(-3)))
          CFI (cfiCond57) DPL0 load(1, XDATA, add(CFA_XSP16, literal(-2)))
          CFI (cfiCond57) DPH0 load(1, XDATA, add(CFA_XSP16, literal(-1)))
          CFI (cfiCond57) CFA_SP SP+-2
          CFI (cfiCond57) CFA_XSP16 add(XSP16, 34)
          CFI Block cfiCond58 Using cfiCommon0
          CFI (cfiCond58) Function zclMultiSensor_ProcessInConfigReportCmd
          CFI (cfiCond58) Conditional ??CrossCallReturnLabel_67
          CFI (cfiCond58) R6 load(1, XDATA, add(CFA_XSP16, literal(-24)))
          CFI (cfiCond58) VB load(1, XDATA, add(CFA_XSP16, literal(-23)))
          CFI (cfiCond58) V0 load(1, XDATA, add(CFA_XSP16, literal(-22)))
          CFI (cfiCond58) V1 load(1, XDATA, add(CFA_XSP16, literal(-21)))
          CFI (cfiCond58) V2 load(1, XDATA, add(CFA_XSP16, literal(-20)))
          CFI (cfiCond58) V3 load(1, XDATA, add(CFA_XSP16, literal(-19)))
          CFI (cfiCond58) V4 load(1, XDATA, add(CFA_XSP16, literal(-18)))
          CFI (cfiCond58) V5 load(1, XDATA, add(CFA_XSP16, literal(-17)))
          CFI (cfiCond58) V6 load(1, XDATA, add(CFA_XSP16, literal(-16)))
          CFI (cfiCond58) V7 load(1, XDATA, add(CFA_XSP16, literal(-15)))
          CFI (cfiCond58) V8 load(1, XDATA, add(CFA_XSP16, literal(-14)))
          CFI (cfiCond58) V9 load(1, XDATA, add(CFA_XSP16, literal(-13)))
          CFI (cfiCond58) V10 load(1, XDATA, add(CFA_XSP16, literal(-12)))
          CFI (cfiCond58) V11 load(1, XDATA, add(CFA_XSP16, literal(-11)))
          CFI (cfiCond58) V12 load(1, XDATA, add(CFA_XSP16, literal(-10)))
          CFI (cfiCond58) V13 load(1, XDATA, add(CFA_XSP16, literal(-9)))
          CFI (cfiCond58) V14 load(1, XDATA, add(CFA_XSP16, literal(-8)))
          CFI (cfiCond58) V15 load(1, XDATA, add(CFA_XSP16, literal(-7)))
          CFI (cfiCond58) R7 load(1, XDATA, add(CFA_XSP16, literal(-6)))
          CFI (cfiCond58) ?RET_LOW load(1, XDATA, add(CFA_XSP16, literal(-5)))
          CFI (cfiCond58) ?RET_HIGH load(1, XDATA, add(CFA_XSP16, literal(-4)))
          CFI (cfiCond58) ?BRET_EXT load(1, XDATA, add(CFA_XSP16, literal(-3)))
          CFI (cfiCond58) DPL0 load(1, XDATA, add(CFA_XSP16, literal(-2)))
          CFI (cfiCond58) DPH0 load(1, XDATA, add(CFA_XSP16, literal(-1)))
          CFI (cfiCond58) CFA_SP SP+-2
          CFI (cfiCond58) CFA_XSP16 add(XSP16, 36)
          CFI Block cfiCond59 Using cfiCommon0
          CFI (cfiCond59) Function zclMultiSensor_CheckReportConfig
          CFI (cfiCond59) Conditional ??CrossCallReturnLabel_68
          CFI (cfiCond59) R6 load(1, XDATA, add(CFA_XSP16, literal(-17)))
          CFI (cfiCond59) VB load(1, XDATA, add(CFA_XSP16, literal(-16)))
          CFI (cfiCond59) V0 load(1, XDATA, add(CFA_XSP16, literal(-15)))
          CFI (cfiCond59) V1 load(1, XDATA, add(CFA_XSP16, literal(-14)))
          CFI (cfiCond59) V2 load(1, XDATA, add(CFA_XSP16, literal(-13)))
          CFI (cfiCond59) V3 load(1, XDATA, add(CFA_XSP16, literal(-12)))
          CFI (cfiCond59) V4 load(1, XDATA, add(CFA_XSP16, literal(-11)))
          CFI (cfiCond59) V5 load(1, XDATA, add(CFA_XSP16, literal(-10)))
          CFI (cfiCond59) V6 load(1, XDATA, add(CFA_XSP16, literal(-9)))
          CFI (cfiCond59) V7 load(1, XDATA, add(CFA_XSP16, literal(-8)))
          CFI (cfiCond59) V8 load(1, XDATA, add(CFA_XSP16, literal(-7)))
          CFI (cfiCond59) R7 load(1, XDATA, add(CFA_XSP16, literal(-6)))
          CFI (cfiCond59) ?RET_LOW load(1, XDATA, add(CFA_XSP16, literal(-5)))
          CFI (cfiCond59) ?RET_HIGH load(1, XDATA, add(CFA_XSP16, literal(-4)))
          CFI (cfiCond59) ?BRET_EXT load(1, XDATA, add(CFA_XSP16, literal(-3)))
          CFI (cfiCond59) DPL0 load(1, XDATA, add(CFA_XSP16, literal(-2)))
          CFI (cfiCond59) DPH0 load(1, XDATA, add(CFA_XSP16, literal(-1)))
          CFI (cfiCond59) CFA_SP SP+-2
          CFI (cfiCond59) CFA_XSP16 add(XSP16, 17)
          CFI Block cfiCond60 Using cfiCommon0
          CFI (cfiCond60) Function zclMultiSensor_ProcessInConfigReportCmd
          CFI (cfiCond60) Conditional ??CrossCallReturnLabel_69
          CFI (cfiCond60) R6 load(1, XDATA, add(CFA_XSP16, literal(-24)))
          CFI (cfiCond60) VB load(1, XDATA, add(CFA_XSP16, literal(-23)))
          CFI (cfiCond60) V0 load(1, XDATA, add(CFA_XSP16, literal(-22)))
          CFI (cfiCond60) V1 load(1, XDATA, add(CFA_XSP16, literal(-21)))
          CFI (cfiCond60) V2 load(1, XDATA, add(CFA_XSP16, literal(-20)))
          CFI (cfiCond60) V3 load(1, XDATA, add(CFA_XSP16, literal(-19)))
          CFI (cfiCond60) V4 load(1, XDATA, add(CFA_XSP16, literal(-18)))
          CFI (cfiCond60) V5 load(1, XDATA, add(CFA_XSP16, literal(-17)))
          CFI (cfiCond60) V6 load(1, XDATA, add(CFA_XSP16, literal(-16)))
          CFI (cfiCond60) V7 load(1, XDATA, add(CFA_XSP16, literal(-15)))
          CFI (cfiCond60) V8 load(1, XDATA, add(CFA_XSP16, literal(-14)))
          CFI (cfiCond60) V9 load(1, XDATA, add(CFA_XSP16, literal(-13)))
          CFI (cfiCond60) V10 load(1, XDATA, add(CFA_XSP16, literal(-12)))
          CFI (cfiCond60) V11 load(1, XDATA, add(CFA_XSP16, literal(-11)))
          CFI (cfiCond60) V12 load(1, XDATA, add(CFA_XSP16, literal(-10)))
          CFI (cfiCond60) V13 load(1, XDATA, add(CFA_XSP16, literal(-9)))
          CFI (cfiCond60) V14 load(1, XDATA, add(CFA_XSP16, literal(-8)))
          CFI (cfiCond60) V15 load(1, XDATA, add(CFA_XSP16, literal(-7)))
          CFI (cfiCond60) R7 load(1, XDATA, add(CFA_XSP16, literal(-6)))
          CFI (cfiCond60) ?RET_LOW load(1, XDATA, add(CFA_XSP16, literal(-5)))
          CFI (cfiCond60) ?RET_HIGH load(1, XDATA, add(CFA_XSP16, literal(-4)))
          CFI (cfiCond60) ?BRET_EXT load(1, XDATA, add(CFA_XSP16, literal(-3)))
          CFI (cfiCond60) DPL0 load(1, XDATA, add(CFA_XSP16, literal(-2)))
          CFI (cfiCond60) DPH0 load(1, XDATA, add(CFA_XSP16, literal(-1)))
          CFI (cfiCond60) CFA_SP SP+-2
          CFI (cfiCond60) CFA_XSP16 add(XSP16, 36)
          CFI Block cfiCond61 Using cfiCommon0
          CFI (cfiCond61) Function zclMultiSensor_ProcessInReadReportCfgCmd
          CFI (cfiCond61) Conditional ??CrossCallReturnLabel_70
          CFI (cfiCond61) R6 load(1, XDATA, add(CFA_XSP16, literal(-24)))
          CFI (cfiCond61) VB load(1, XDATA, add(CFA_XSP16, literal(-23)))
          CFI (cfiCond61) V0 load(1, XDATA, add(CFA_XSP16, literal(-22)))
          CFI (cfiCond61) V1 load(1, XDATA, add(CFA_XSP16, literal(-21)))
          CFI (cfiCond61) V2 load(1, XDATA, add(CFA_XSP16, literal(-20)))
          CFI (cfiCond61) V3 load(1, XDATA, add(CFA_XSP16, literal(-19)))
          CFI (cfiCond61) V4 load(1, XDATA, add(CFA_XSP16, literal(-18)))
          CFI (cfiCond61) V5 load(1, XDATA, add(CFA_XSP16, literal(-17)))
          CFI (cfiCond61) V6 load(1, XDATA, add(CFA_XSP16, literal(-16)))
          CFI (cfiCond61) V7 load(1, XDATA, add(CFA_XSP16, literal(-15)))
          CFI (cfiCond61) V8 load(1, XDATA, add(CFA_XSP16, literal(-14)))
          CFI (cfiCond61) V9 load(1, XDATA, add(CFA_XSP16, literal(-13)))
          CFI (cfiCond61) V10 load(1, XDATA, add(CFA_XSP16, literal(-12)))
          CFI (cfiCond61) V11 load(1, XDATA, add(CFA_XSP16, literal(-11)))
          CFI (cfiCond61) V12 load(1, XDATA, add(CFA_XSP16, literal(-10)))
          CFI (cfiCond61) V13 load(1, XDATA, add(CFA_XSP16, literal(-9)))
          CFI (cfiCond61) V14 load(1, XDATA, add(CFA_XSP16, literal(-8)))
          CFI (cfiCond61) V15 load(1, XDATA, add(CFA_XSP16, literal(-7)))
          CFI (cfiCond61) R7 load(1, XDATA, add(CFA_XSP16, literal(-6)))
          CFI (cfiCond61) ?RET_LOW load(1, XDATA, add(CFA_XSP16, literal(-5)))
          CFI (cfiCond61) ?RET_HIGH load(1, XDATA, add(CFA_XSP16, literal(-4)))
          CFI (cfiCond61) ?BRET_EXT load(1, XDATA, add(CFA_XSP16, literal(-3)))
          CFI (cfiCond61) DPL0 load(1, XDATA, add(CFA_XSP16, literal(-2)))
          CFI (cfiCond61) DPH0 load(1, XDATA, add(CFA_XSP16, literal(-1)))
          CFI (cfiCond61) CFA_SP SP+-2
          CFI (cfiCond61) CFA_XSP16 add(XSP16, 34)
          CFI Block cfiPicker62 Using cfiCommon1
          CFI (cfiPicker62) NoFunction
          CFI (cfiPicker62) Picker
        LCALL     ?Subroutine36 & 0xFFFF
??CrossCallReturnLabel_74:
        RET
          CFI EndBlock cfiCond53
          CFI EndBlock cfiCond54
          CFI EndBlock cfiCond55
          CFI EndBlock cfiCond56
          CFI EndBlock cfiCond57
          CFI EndBlock cfiCond58
          CFI EndBlock cfiCond59
          CFI EndBlock cfiCond60
          CFI EndBlock cfiCond61
          CFI EndBlock cfiPicker62

        RSEG BANKED_CODE:HUGECODE:NOROOT(0)
?Subroutine36:
          CFI Block cfiCond63 Using cfiCommon0
          CFI Function zclMultiSensor_CheckAndSendClusterAttrReport
          CFI Conditional ??CrossCallReturnLabel_73, ??CrossCallReturnLabel_38
          CFI R6 load(1, XDATA, add(CFA_XSP16, literal(-24)))
          CFI VB load(1, XDATA, add(CFA_XSP16, literal(-23)))
          CFI V0 load(1, XDATA, add(CFA_XSP16, literal(-22)))
          CFI V1 load(1, XDATA, add(CFA_XSP16, literal(-21)))
          CFI V2 load(1, XDATA, add(CFA_XSP16, literal(-20)))
          CFI V3 load(1, XDATA, add(CFA_XSP16, literal(-19)))
          CFI V4 load(1, XDATA, add(CFA_XSP16, literal(-18)))
          CFI V5 load(1, XDATA, add(CFA_XSP16, literal(-17)))
          CFI V6 load(1, XDATA, add(CFA_XSP16, literal(-16)))
          CFI V7 load(1, XDATA, add(CFA_XSP16, literal(-15)))
          CFI V8 load(1, XDATA, add(CFA_XSP16, literal(-14)))
          CFI V9 load(1, XDATA, add(CFA_XSP16, literal(-13)))
          CFI V10 load(1, XDATA, add(CFA_XSP16, literal(-12)))
          CFI V11 load(1, XDATA, add(CFA_XSP16, literal(-11)))
          CFI V12 load(1, XDATA, add(CFA_XSP16, literal(-10)))
          CFI V13 load(1, XDATA, add(CFA_XSP16, literal(-9)))
          CFI V14 load(1, XDATA, add(CFA_XSP16, literal(-8)))
          CFI V15 load(1, XDATA, add(CFA_XSP16, literal(-7)))
          CFI R7 load(1, XDATA, add(CFA_XSP16, literal(-6)))
          CFI ?RET_LOW load(1, XDATA, add(CFA_XSP16, literal(-5)))
          CFI ?RET_HIGH load(1, XDATA, add(CFA_XSP16, literal(-4)))
          CFI ?BRET_EXT load(1, XDATA, add(CFA_XSP16, literal(-3)))
          CFI DPL0 load(1, XDATA, add(CFA_XSP16, literal(-2)))
          CFI DPH0 load(1, XDATA, add(CFA_XSP16, literal(-1)))
          CFI CFA_SP SP+-4
          CFI CFA_XSP16 add(XSP16, 34)
          CFI Block cfiCond64 Using cfiCommon0
          CFI (cfiCond64) Function zclMultiSensor_CheckAndSendClusterAttrReport
          CFI (cfiCond64) Conditional ??CrossCallReturnLabel_73, ??CrossCallReturnLabel_39
          CFI (cfiCond64) R6 load(1, XDATA, add(CFA_XSP16, literal(-24)))
          CFI (cfiCond64) VB load(1, XDATA, add(CFA_XSP16, literal(-23)))
          CFI (cfiCond64) V0 load(1, XDATA, add(CFA_XSP16, literal(-22)))
          CFI (cfiCond64) V1 load(1, XDATA, add(CFA_XSP16, literal(-21)))
          CFI (cfiCond64) V2 load(1, XDATA, add(CFA_XSP16, literal(-20)))
          CFI (cfiCond64) V3 load(1, XDATA, add(CFA_XSP16, literal(-19)))
          CFI (cfiCond64) V4 load(1, XDATA, add(CFA_XSP16, literal(-18)))
          CFI (cfiCond64) V5 load(1, XDATA, add(CFA_XSP16, literal(-17)))
          CFI (cfiCond64) V6 load(1, XDATA, add(CFA_XSP16, literal(-16)))
          CFI (cfiCond64) V7 load(1, XDATA, add(CFA_XSP16, literal(-15)))
          CFI (cfiCond64) V8 load(1, XDATA, add(CFA_XSP16, literal(-14)))
          CFI (cfiCond64) V9 load(1, XDATA, add(CFA_XSP16, literal(-13)))
          CFI (cfiCond64) V10 load(1, XDATA, add(CFA_XSP16, literal(-12)))
          CFI (cfiCond64) V11 load(1, XDATA, add(CFA_XSP16, literal(-11)))
          CFI (cfiCond64) V12 load(1, XDATA, add(CFA_XSP16, literal(-10)))
          CFI (cfiCond64) V13 load(1, XDATA, add(CFA_XSP16, literal(-9)))
          CFI (cfiCond64) V14 load(1, XDATA, add(CFA_XSP16, literal(-8)))
          CFI (cfiCond64) V15 load(1, XDATA, add(CFA_XSP16, literal(-7)))
          CFI (cfiCond64) R7 load(1, XDATA, add(CFA_XSP16, literal(-6)))
          CFI (cfiCond64) ?RET_LOW load(1, XDATA, add(CFA_XSP16, literal(-5)))
          CFI (cfiCond64) ?RET_HIGH load(1, XDATA, add(CFA_XSP16, literal(-4)))
          CFI (cfiCond64) ?BRET_EXT load(1, XDATA, add(CFA_XSP16, literal(-3)))
          CFI (cfiCond64) DPL0 load(1, XDATA, add(CFA_XSP16, literal(-2)))
          CFI (cfiCond64) DPH0 load(1, XDATA, add(CFA_XSP16, literal(-1)))
          CFI (cfiCond64) CFA_SP SP+-4
          CFI (cfiCond64) CFA_XSP16 add(XSP16, 34)
          CFI Block cfiCond65 Using cfiCommon0
          CFI (cfiCond65) Function zclMultiSensor_CheckAndSendClusterAttrReport
          CFI (cfiCond65) Conditional ??CrossCallReturnLabel_71, ??CrossCallReturnLabel_28
          CFI (cfiCond65) R6 load(1, XDATA, add(CFA_XSP16, literal(-24)))
          CFI (cfiCond65) VB load(1, XDATA, add(CFA_XSP16, literal(-23)))
          CFI (cfiCond65) V0 load(1, XDATA, add(CFA_XSP16, literal(-22)))
          CFI (cfiCond65) V1 load(1, XDATA, add(CFA_XSP16, literal(-21)))
          CFI (cfiCond65) V2 load(1, XDATA, add(CFA_XSP16, literal(-20)))
          CFI (cfiCond65) V3 load(1, XDATA, add(CFA_XSP16, literal(-19)))
          CFI (cfiCond65) V4 load(1, XDATA, add(CFA_XSP16, literal(-18)))
          CFI (cfiCond65) V5 load(1, XDATA, add(CFA_XSP16, literal(-17)))
          CFI (cfiCond65) V6 load(1, XDATA, add(CFA_XSP16, literal(-16)))
          CFI (cfiCond65) V7 load(1, XDATA, add(CFA_XSP16, literal(-15)))
          CFI (cfiCond65) V8 load(1, XDATA, add(CFA_XSP16, literal(-14)))
          CFI (cfiCond65) V9 load(1, XDATA, add(CFA_XSP16, literal(-13)))
          CFI (cfiCond65) V10 load(1, XDATA, add(CFA_XSP16, literal(-12)))
          CFI (cfiCond65) V11 load(1, XDATA, add(CFA_XSP16, literal(-11)))
          CFI (cfiCond65) V12 load(1, XDATA, add(CFA_XSP16, literal(-10)))
          CFI (cfiCond65) V13 load(1, XDATA, add(CFA_XSP16, literal(-9)))
          CFI (cfiCond65) V14 load(1, XDATA, add(CFA_XSP16, literal(-8)))
          CFI (cfiCond65) V15 load(1, XDATA, add(CFA_XSP16, literal(-7)))
          CFI (cfiCond65) R7 load(1, XDATA, add(CFA_XSP16, literal(-6)))
          CFI (cfiCond65) ?RET_LOW load(1, XDATA, add(CFA_XSP16, literal(-5)))
          CFI (cfiCond65) ?RET_HIGH load(1, XDATA, add(CFA_XSP16, literal(-4)))
          CFI (cfiCond65) ?BRET_EXT load(1, XDATA, add(CFA_XSP16, literal(-3)))
          CFI (cfiCond65) DPL0 load(1, XDATA, add(CFA_XSP16, literal(-2)))
          CFI (cfiCond65) DPH0 load(1, XDATA, add(CFA_XSP16, literal(-1)))
          CFI (cfiCond65) CFA_SP SP+-4
          CFI (cfiCond65) CFA_XSP16 add(XSP16, 34)
          CFI Block cfiCond66 Using cfiCommon0
          CFI (cfiCond66) Function zclMultiSensor_CheckAndSendClusterAttrReport
          CFI (cfiCond66) Conditional ??CrossCallReturnLabel_71, ??CrossCallReturnLabel_29
          CFI (cfiCond66) R6 load(1, XDATA, add(CFA_XSP16, literal(-24)))
          CFI (cfiCond66) VB load(1, XDATA, add(CFA_XSP16, literal(-23)))
          CFI (cfiCond66) V0 load(1, XDATA, add(CFA_XSP16, literal(-22)))
          CFI (cfiCond66) V1 load(1, XDATA, add(CFA_XSP16, literal(-21)))
          CFI (cfiCond66) V2 load(1, XDATA, add(CFA_XSP16, literal(-20)))
          CFI (cfiCond66) V3 load(1, XDATA, add(CFA_XSP16, literal(-19)))
          CFI (cfiCond66) V4 load(1, XDATA, add(CFA_XSP16, literal(-18)))
          CFI (cfiCond66) V5 load(1, XDATA, add(CFA_XSP16, literal(-17)))
          CFI (cfiCond66) V6 load(1, XDATA, add(CFA_XSP16, literal(-16)))
          CFI (cfiCond66) V7 load(1, XDATA, add(CFA_XSP16, literal(-15)))
          CFI (cfiCond66) V8 load(1, XDATA, add(CFA_XSP16, literal(-14)))
          CFI (cfiCond66) V9 load(1, XDATA, add(CFA_XSP16, literal(-13)))
          CFI (cfiCond66) V10 load(1, XDATA, add(CFA_XSP16, literal(-12)))
          CFI (cfiCond66) V11 load(1, XDATA, add(CFA_XSP16, literal(-11)))
          CFI (cfiCond66) V12 load(1, XDATA, add(CFA_XSP16, literal(-10)))
          CFI (cfiCond66) V13 load(1, XDATA, add(CFA_XSP16, literal(-9)))
          CFI (cfiCond66) V14 load(1, XDATA, add(CFA_XSP16, literal(-8)))
          CFI (cfiCond66) V15 load(1, XDATA, add(CFA_XSP16, literal(-7)))
          CFI (cfiCond66) R7 load(1, XDATA, add(CFA_XSP16, literal(-6)))
          CFI (cfiCond66) ?RET_LOW load(1, XDATA, add(CFA_XSP16, literal(-5)))
          CFI (cfiCond66) ?RET_HIGH load(1, XDATA, add(CFA_XSP16, literal(-4)))
          CFI (cfiCond66) ?BRET_EXT load(1, XDATA, add(CFA_XSP16, literal(-3)))
          CFI (cfiCond66) DPL0 load(1, XDATA, add(CFA_XSP16, literal(-2)))
          CFI (cfiCond66) DPH0 load(1, XDATA, add(CFA_XSP16, literal(-1)))
          CFI (cfiCond66) CFA_SP SP+-4
          CFI (cfiCond66) CFA_XSP16 add(XSP16, 34)
          CFI Block cfiCond67 Using cfiCommon0
          CFI (cfiCond67) Function zclMultiSensor_ProcessInConfigReportCmd
          CFI (cfiCond67) Conditional ??CrossCallReturnLabel_74, ??CrossCallReturnLabel_69
          CFI (cfiCond67) R6 load(1, XDATA, add(CFA_XSP16, literal(-24)))
          CFI (cfiCond67) VB load(1, XDATA, add(CFA_XSP16, literal(-23)))
          CFI (cfiCond67) V0 load(1, XDATA, add(CFA_XSP16, literal(-22)))
          CFI (cfiCond67) V1 load(1, XDATA, add(CFA_XSP16, literal(-21)))
          CFI (cfiCond67) V2 load(1, XDATA, add(CFA_XSP16, literal(-20)))
          CFI (cfiCond67) V3 load(1, XDATA, add(CFA_XSP16, literal(-19)))
          CFI (cfiCond67) V4 load(1, XDATA, add(CFA_XSP16, literal(-18)))
          CFI (cfiCond67) V5 load(1, XDATA, add(CFA_XSP16, literal(-17)))
          CFI (cfiCond67) V6 load(1, XDATA, add(CFA_XSP16, literal(-16)))
          CFI (cfiCond67) V7 load(1, XDATA, add(CFA_XSP16, literal(-15)))
          CFI (cfiCond67) V8 load(1, XDATA, add(CFA_XSP16, literal(-14)))
