///////////////////////////////////////////////////////////////////////////////
//
// IAR C/C++ Compiler V10.20.1.5333 for 8051              15/Jul/2020  10:08:33
// Copyright 2004-2018 IAR Systems AB.
// PC-locked license - IAR Embedded Workbench for 8051
//
//    Core               =  plain
//    Code model         =  banked
//    Data model         =  large
//    Calling convention =  xdata reentrant
//    Constant location  =  data_rom
//    Dptr setup         =  1,16
//                          
//    Source file        =  
//        C:\Users\TS-577\Desktop\Zigbee workspace\Product Developer\particular
//        product\Projects\zstack\HomeAutomation\SampleSensorEnviroment_2\Source\zcl_SampleSensorEnviroment.c
//    Command line       =  
//        -f C:\Users\TS-577\AppData\Local\Temp\EW83EF.tmp
//        ("C:\Users\TS-577\Desktop\Zigbee workspace\Product
//        Developer\particular
//        product\Projects\zstack\HomeAutomation\SampleSensorEnviroment_2\Source\zcl_SampleSensorEnviroment.c"
//        -D xBDB_REPORTING -D SECURE=1 -D TC_LINKKEY_JOIN -D xNV_INIT -D
//        xNV_RESTORE -D xPOWER_SAVING -D NWK_AUTO_POLL -D ZTOOL_P1 -D xMT_TASK
//        -D xMT_APP_FUNC -D xMT_SYS_FUNC -D xMT_ZDO_FUNC -D xMT_APP_CNF_FUNC
//        -D xLCD_SUPPORTED=DEBUG -D MULTICAST_ENABLED=FALSE -D ZCL_READ -D
//        ZCL_DISCOVER -D ZCL_WRITE -D ZCL_BASIC -D ZCL_IDENTIFY -D
//        ZCL_TEMPERATURE_MEASUREMENT -D ZCL_GROUPS -D ZCL_REPORT -D
//        ZCL_REPORTING_DEVICE -lC "C:\Users\TS-577\Desktop\Zigbee
//        workspace\Product Developer\particular
//        product\Projects\zstack\HomeAutomation\SampleSensorEnviroment_2\CC2530DB\EndDeviceEB\List"
//        -lA "C:\Users\TS-577\Desktop\Zigbee workspace\Product
//        Developer\particular
//        product\Projects\zstack\HomeAutomation\SampleSensorEnviroment_2\CC2530DB\EndDeviceEB\List"
//        --diag_suppress Pe001,Pa010 -o "C:\Users\TS-577\Desktop\Zigbee
//        workspace\Product Developer\particular
//        product\Projects\zstack\HomeAutomation\SampleSensorEnviroment_2\CC2530DB\EndDeviceEB\Obj"
//        -e --debug --core=plain --dptr=16,1 --data_model=large
//        --code_model=banked --calling_convention=xdata_reentrant
//        --place_constants=data_rom --nr_virtual_regs 16 -f
//        "C:\Users\TS-577\Desktop\Zigbee workspace\Product
//        Developer\particular
//        product\Projects\zstack\HomeAutomation\SampleSensorEnviroment_2\CC2530DB\..\..\..\Tools\CC2530DB\f8wEndev.cfg"
//        (-DCPU32MHZ -DROOT=__near_func -DMAC_CFG_TX_DATA_MAX=3
//        -DMAC_CFG_TX_MAX=6 -DMAC_CFG_RX_MAX=3) -f
//        "C:\Users\TS-577\Desktop\Zigbee workspace\Product
//        Developer\particular
//        product\Projects\zstack\HomeAutomation\SampleSensorEnviroment_2\CC2530DB\..\..\..\Tools\CC2530DB\f8wConfig.cfg"
//        (-DZIGBEEPRO -DSECURE=1 -DZG_SECURE_DYNAMIC=0 -DREFLECTOR
//        -DDEFAULT_CHANLIST=0x00002000 -DZDAPP_CONFIG_PAN_ID=0xFFFF
//        -DNWK_START_DELAY=100 -DEXTENDED_JOINING_RANDOM_MASK=0x007F
//        -DBEACON_REQUEST_DELAY=100 -DBEACON_REQ_DELAY_MASK=0x00FF
//        -DLINK_STATUS_JITTER_MASK=0x007F -DROUTE_EXPIRY_TIME=30
//        -DAPSC_ACK_WAIT_DURATION_POLLED=3000 -DNWK_INDIRECT_MSG_TIMEOUT=7
//        -DMAX_RREQ_ENTRIES=8 -DAPSC_MAX_FRAME_RETRIES=3
//        -DNWK_MAX_DATA_RETRIES=2 -DMAX_POLL_FAILURE_RETRIES=2 -DMAX_BCAST=9
//        -DAPS_MAX_GROUPS=16 -DMAX_RTG_ENTRIES=40 -DNWK_MAX_BINDING_ENTRIES=4
//        -DMAX_BINDING_CLUSTER_IDS=4 -DDEFAULT_KEY={0}
//        -DMAC_MAX_FRAME_SIZE=116 -DZDNWKMGR_MIN_TRANSMISSIONS=20
//        "-DCONST=const __code" -DGENERIC=__generic -DRFD_RCVC_ALWAYS_ON=TRUE
//        -DPOLL_RATE=1000 -DQUEUED_POLL_RATE=100 -DRESPONSE_POLL_RATE=100
//        -DREJOIN_POLL_RATE=440 -DREJOIN_BACKOFF=900000 -DREJOIN_SCAN=900000)
//        -f "C:\Users\TS-577\Desktop\Zigbee workspace\Product
//        Developer\particular
//        product\Projects\zstack\HomeAutomation\SampleSensorEnviroment_2\CC2530DB\..\..\..\Tools\CC2530DB\f8wZCL.cfg"
//        -I "C:\Users\TS-577\Desktop\Zigbee workspace\Product
//        Developer\particular
//        product\Projects\zstack\HomeAutomation\SampleSensorEnviroment_2\CC2530DB\"
//        -I "C:\Users\TS-577\Desktop\Zigbee workspace\Product
//        Developer\particular
//        product\Projects\zstack\HomeAutomation\SampleSensorEnviroment_2\CC2530DB\..\Source\"
//        -I "C:\Users\TS-577\Desktop\Zigbee workspace\Product
//        Developer\particular
//        product\Projects\zstack\HomeAutomation\SampleSensorEnviroment_2\CC2530DB\..\..\Source\"
//        -I "C:\Users\TS-577\Desktop\Zigbee workspace\Product
//        Developer\particular
//        product\Projects\zstack\HomeAutomation\SampleSensorEnviroment_2\CC2530DB\..\..\..\ZMain\TI2530DB\"
//        -I "C:\Users\TS-577\Desktop\Zigbee workspace\Product
//        Developer\particular
//        product\Projects\zstack\HomeAutomation\SampleSensorEnviroment_2\CC2530DB\..\..\..\..\..\Components\hal\include\"
//        -I "C:\Users\TS-577\Desktop\Zigbee workspace\Product
//        Developer\particular
//        product\Projects\zstack\HomeAutomation\SampleSensorEnviroment_2\CC2530DB\..\..\..\..\..\Components\hal\target\CC2530EB\"
//        -I "C:\Users\TS-577\Desktop\Zigbee workspace\Product
//        Developer\particular
//        product\Projects\zstack\HomeAutomation\SampleSensorEnviroment_2\CC2530DB\..\..\..\..\..\Components\mac\include\"
//        -I "C:\Users\TS-577\Desktop\Zigbee workspace\Product
//        Developer\particular
//        product\Projects\zstack\HomeAutomation\SampleSensorEnviroment_2\CC2530DB\..\..\..\..\..\Components\mac\high_level\"
//        -I "C:\Users\TS-577\Desktop\Zigbee workspace\Product
//        Developer\particular
//        product\Projects\zstack\HomeAutomation\SampleSensorEnviroment_2\CC2530DB\..\..\..\..\..\Components\mac\low_level\srf04\"
//        -I "C:\Users\TS-577\Desktop\Zigbee workspace\Product
//        Developer\particular
//        product\Projects\zstack\HomeAutomation\SampleSensorEnviroment_2\CC2530DB\..\..\..\..\..\Components\mac\low_level\srf04\single_chip\"
//        -I "C:\Users\TS-577\Desktop\Zigbee workspace\Product
//        Developer\particular
//        product\Projects\zstack\HomeAutomation\SampleSensorEnviroment_2\CC2530DB\..\..\..\..\..\Components\mt\"
//        -I "C:\Users\TS-577\Desktop\Zigbee workspace\Product
//        Developer\particular
//        product\Projects\zstack\HomeAutomation\SampleSensorEnviroment_2\CC2530DB\..\..\..\..\..\Components\osal\include\"
//        -I "C:\Users\TS-577\Desktop\Zigbee workspace\Product
//        Developer\particular
//        product\Projects\zstack\HomeAutomation\SampleSensorEnviroment_2\CC2530DB\..\..\..\..\..\Components\services\saddr\"
//        -I "C:\Users\TS-577\Desktop\Zigbee workspace\Product
//        Developer\particular
//        product\Projects\zstack\HomeAutomation\SampleSensorEnviroment_2\CC2530DB\..\..\..\..\..\Components\services\sdata\"
//        -I "C:\Users\TS-577\Desktop\Zigbee workspace\Product
//        Developer\particular
//        product\Projects\zstack\HomeAutomation\SampleSensorEnviroment_2\CC2530DB\..\..\..\..\..\Components\stack\af\"
//        -I "C:\Users\TS-577\Desktop\Zigbee workspace\Product
//        Developer\particular
//        product\Projects\zstack\HomeAutomation\SampleSensorEnviroment_2\CC2530DB\..\..\..\..\..\Components\stack\bdb\"
//        -I "C:\Users\TS-577\Desktop\Zigbee workspace\Product
//        Developer\particular
//        product\Projects\zstack\HomeAutomation\SampleSensorEnviroment_2\CC2530DB\..\..\..\..\..\Components\stack\gp\"
//        -I "C:\Users\TS-577\Desktop\Zigbee workspace\Product
//        Developer\particular
//        product\Projects\zstack\HomeAutomation\SampleSensorEnviroment_2\CC2530DB\..\..\..\..\..\Components\stack\nwk\"
//        -I "C:\Users\TS-577\Desktop\Zigbee workspace\Product
//        Developer\particular
//        product\Projects\zstack\HomeAutomation\SampleSensorEnviroment_2\CC2530DB\..\..\..\..\..\Components\stack\sapi\"
//        -I "C:\Users\TS-577\Desktop\Zigbee workspace\Product
//        Developer\particular
//        product\Projects\zstack\HomeAutomation\SampleSensorEnviroment_2\CC2530DB\..\..\..\..\..\Components\stack\sec\"
//        -I "C:\Users\TS-577\Desktop\Zigbee workspace\Product
//        Developer\particular
//        product\Projects\zstack\HomeAutomation\SampleSensorEnviroment_2\CC2530DB\..\..\..\..\..\Components\stack\sys\"
//        -I "C:\Users\TS-577\Desktop\Zigbee workspace\Product
//        Developer\particular
//        product\Projects\zstack\HomeAutomation\SampleSensorEnviroment_2\CC2530DB\..\..\..\..\..\Components\stack\zcl\"
//        -I "C:\Users\TS-577\Desktop\Zigbee workspace\Product
//        Developer\particular
//        product\Projects\zstack\HomeAutomation\SampleSensorEnviroment_2\CC2530DB\..\..\..\..\..\Components\stack\zdo\"
//        -I "C:\Users\TS-577\Desktop\Zigbee workspace\Product
//        Developer\particular
//        product\Projects\zstack\HomeAutomation\SampleSensorEnviroment_2\CC2530DB\..\..\..\..\..\Components\zmac\"
//        -I "C:\Users\TS-577\Desktop\Zigbee workspace\Product
//        Developer\particular
//        product\Projects\zstack\HomeAutomation\SampleSensorEnviroment_2\CC2530DB\..\..\..\..\..\Components\zmac\f8w\"
//        -Ohz --require_prototypes)
//    Locale             =  Japanese_JPN.932
//    List file          =  
//        C:\Users\TS-577\Desktop\Zigbee workspace\Product Developer\particular
//        product\Projects\zstack\HomeAutomation\SampleSensorEnviroment_2\CC2530DB\EndDeviceEB\List\zcl_SampleSensorEnviroment.s51
//
///////////////////////////////////////////////////////////////////////////////

        NAME zcl_SampleSensorEnviroment

        RTMODEL "__SystemLibrary", "CLib"
        RTMODEL "__calling_convention", "xdata_reentrant"
        RTMODEL "__code_model", "banked"
        RTMODEL "__core", "plain"
        RTMODEL "__data_model", "large"
        RTMODEL "__dptr_size", "16"
        RTMODEL "__extended_stack", "disabled"
        RTMODEL "__location_for_constants", "data"
        RTMODEL "__number_of_dptrs", "1"
        RTMODEL "__register_banks", "*"
        RTMODEL "__rt_version", "1"

        RSEG DOVERLAY:DATA:NOROOT(0)
        RSEG IOVERLAY:IDATA:NOROOT(0)
        RSEG ISTACK:IDATA:NOROOT(0)
        RSEG PSTACK:XDATA:NOROOT(0)
        RSEG XSTACK:XDATA:NOROOT(0)

        EXTERN ?V0
        EXTERN ?V1
        EXTERN ?V2
        EXTERN ?V3
        EXTERN ?V4
        EXTERN ?V6
        EXTERN ?V7
        EXTERN ?V8
        EXTERN ?V9
        EXTERN ?V10
        EXTERN ?V11
        EXTERN ?V12
        EXTERN ?V13
        EXTERN ?V14
        EXTERN ?V15
        EXTERN ?V5
        EXTERN ?ALLOC_XSTACK8
        EXTERN ?BANKED_ENTER_XDATA
        EXTERN ?BANKED_LEAVE_XDATA
        EXTERN ?BDISPATCH
        EXTERN ?BRET
        EXTERN ?DEALLOC_XSTACK8
        EXTERN ?MOVE_LONG8_XDATA_XDATA
        EXTERN ?PUSH_XSTACK8_X_FOUR
        EXTERN ?PUSH_XSTACK_I_ONE
        EXTERN ?PUSH_XSTACK_I_TWO
        EXTERN ?S_SHL
        EXTERN ?US_SWITCH_SPARSE
        EXTERN ?VB
        EXTERN ?XSP
        EXTERN ?XSTACK_DISP0_8
        EXTERN ?XSTACK_DISP100_8
        EXTERN ?XSTACK_DISP101_8
        EXTERN ?XSTACK_DISP102_8
        EXTERN __INIT_XDATA_I
        EXTERN __INIT_XDATA_Z

        PUBLIC `??uartEventApplicationCB::?relay`
        FUNCTION `??uartEventApplicationCB::?relay`,0203H
        FUNCTION `??zclSampleSensorEnviroment_BasicResetCB::?rela`,0203H
        FUNCTION `??zclSampleSensorEnviroment_BatteryWarningCB::?`,0203H
        FUNCTION ??zclSampleSensorEnviroment_CheckAndSendCluster,0203H
        FUNCTION `??zclSampleSensorEnviroment_CheckReportConfig::`,0203H
        PUBLIC `??zclSampleSensorEnviroment_Init::?relay`
        FUNCTION `??zclSampleSensorEnviroment_Init::?relay`,0203H
        FUNCTION ??zclSampleSensorEnviroment_ProcessCommissionin,0203H
        FUNCTION ??zclSampleSensorEnviroment_ProcessInConfigRepo,0203H
        FUNCTION ??zclSampleSensorEnviroment_ProcessInDiscCmdsRs,0203H
        FUNCTION ??zclSampleSensorEnviroment_ProcessInReadReport,0203H
        PUBLIC `??zclSampleSensorEnviroment_ProcessInReportCmd:`
        FUNCTION `??zclSampleSensorEnviroment_ProcessInReportCmd:`,0203H
        FUNCTION `??zclSampleSensorEnviroment_ProcessIncomingMsg:`,0203H
        PUBLIC `??zclSampleSensorEnviroment_event_loop::?relay`
        FUNCTION `??zclSampleSensorEnviroment_event_loop::?relay`,0203H
        PUBWEAK __Constant_3e8
        PUBLIC gTimeCounter
        PUBLIC uartEventApplicationCB
        FUNCTION uartEventApplicationCB,0a1603H
        ARGFRAME XSTACK, 0, STACK
        LOCFRAME XSTACK, 25, STACK
        FUNCTION zclSampleSensorEnviroment_BasicResetCB,021603H
        ARGFRAME XSTACK, 0, STACK
        LOCFRAME ISTACK, 2, STACK
        FUNCTION zclSampleSensorEnviroment_BatteryWarningCB,0603H
        ARGFRAME XSTACK, 0, STACK
        FUNCTION zclSampleSensorEnviroment_CheckAndSendClusterAttrReport,0a1203H
        ARGFRAME XSTACK, 17, STACK
        ARGFRAME IOVERLAY, 0, STATIC
        ARGFRAME DOVERLAY, 0, STATIC
        LOCFRAME ISTACK, 1, STACK
        LOCFRAME XSTACK, 36, STACK
        FUNCTION zclSampleSensorEnviroment_CheckReportConfig,0a1203H
        ARGFRAME XSTACK, 36, STACK
        ARGFRAME IOVERLAY, 0, STATIC
        ARGFRAME DOVERLAY, 0, STATIC
        LOCFRAME XSTACK, 21, STACK
        PUBLIC zclSampleSensorEnviroment_Init
        FUNCTION zclSampleSensorEnviroment_Init,021203H
        ARGFRAME XSTACK, 0, STACK
        LOCFRAME XSTACK, 38, STACK
        PUBLIC zclSampleSensorEnviroment_NwkState
        FUNCTION zclSampleSensorEnviroment_ProcessCommissioningStatus,021603H
        ARGFRAME XSTACK, 0, STACK
        LOCFRAME ISTACK, 2, STACK
        LOCFRAME XSTACK, 4, STACK
        FUNCTION zclSampleSensorEnviroment_ProcessInConfigReportCmd,0a1203H
        ARGFRAME XSTACK, 9, STACK
        ARGFRAME IOVERLAY, 0, STATIC
        ARGFRAME DOVERLAY, 0, STATIC
        LOCFRAME ISTACK, 1, STACK
        LOCFRAME XSTACK, 41, STACK
        FUNCTION zclSampleSensorEnviroment_ProcessInDiscCmdsRspCmd,0203H
        ARGFRAME XSTACK, 9, STACK
        ARGFRAME IOVERLAY, 0, STATIC
        ARGFRAME DOVERLAY, 0, STATIC
        LOCFRAME ISTACK, 2, STACK
        FUNCTION zclSampleSensorEnviroment_ProcessInReadReportCfgCmd,0a1203H
        ARGFRAME XSTACK, 9, STACK
        ARGFRAME IOVERLAY, 0, STATIC
        ARGFRAME DOVERLAY, 0, STATIC
        LOCFRAME ISTACK, 1, STACK
        LOCFRAME XSTACK, 39, STACK
        PUBLIC zclSampleSensorEnviroment_ProcessInReportCmd
        FUNCTION zclSampleSensorEnviroment_ProcessInReportCmd,0a1203H
        ARGFRAME XSTACK, 9, STACK
        ARGFRAME IOVERLAY, 0, STATIC
        ARGFRAME DOVERLAY, 0, STATIC
        LOCFRAME XSTACK, 29, STACK
        FUNCTION zclSampleSensorEnviroment_ProcessIncomingMsg,021203H
        ARGFRAME XSTACK, 12, STACK
        ARGFRAME IOVERLAY, 0, STATIC
        ARGFRAME DOVERLAY, 0, STATIC
        LOCFRAME XSTACK, 9, STACK
        PUBLIC zclSampleSensorEnviroment_SeqNum
        PUBLIC zclSampleSensorEnviroment_TaskID
        PUBLIC zclSampleSensorEnviroment_dstAddr
        PUBLIC zclSampleSensorEnviroment_event_loop
        FUNCTION zclSampleSensorEnviroment_event_loop,0a1203H
        ARGFRAME XSTACK, 0, STACK
        LOCFRAME XSTACK, 12, STACK
        
          CFI Names cfiNames0
          CFI StackFrame CFA_SP SP IDATA
          CFI StackFrame CFA_PSP16 PSP16 XDATA
          CFI StackFrame CFA_XSP16 XSP16 XDATA
          CFI StaticOverlayFrame CFA_IOVERLAY IOVERLAY
          CFI StaticOverlayFrame CFA_DOVERLAY DOVERLAY
          CFI Resource `PSW.CY`:1, `B.BR0`:1, `B.BR1`:1, `B.BR2`:1, `B.BR3`:1
          CFI Resource `B.BR4`:1, `B.BR5`:1, `B.BR6`:1, `B.BR7`:1, `VB.BR8`:1
          CFI Resource `VB.BR9`:1, `VB.BR10`:1, `VB.BR11`:1, `VB.BR12`:1
          CFI Resource `VB.BR13`:1, `VB.BR14`:1, `VB.BR15`:1, VB:8, B:8, A:8
          CFI Resource PSW:8, DPL0:8, DPH0:8, R0:8, R1:8, R2:8, R3:8, R4:8, R5:8
          CFI Resource R6:8, R7:8, V0:8, V1:8, V2:8, V3:8, V4:8, V5:8, V6:8, V7:8
          CFI Resource V8:8, V9:8, V10:8, V11:8, V12:8, V13:8, V14:8, V15:8, SP:8
          CFI Resource PSPH:8, PSPL:8, PSP16:16, XSPH:8, XSPL:8, XSP16:16
          CFI VirtualResource ?RET:24
          CFI Resource ?BRET_EXT:8
          CFI VirtualResource ?RET_HIGH:8, ?RET_LOW:8
          CFI ResourceParts PSP16 PSPH, PSPL
          CFI ResourceParts XSP16 XSPH, XSPL
          CFI ResourceParts ?RET ?BRET_EXT, ?RET_HIGH, ?RET_LOW
          CFI EndNames cfiNames0
        
          CFI Common cfiCommon0 Using cfiNames0
          CFI CodeAlign 1
          CFI DataAlign -1
          CFI ReturnAddress ?RET CODE
          CFI CFA_DOVERLAY Used
          CFI CFA_IOVERLAY Used
          CFI CFA_SP SP+-3
          CFI CFA_PSP16 PSP16+0
          CFI CFA_XSP16 XSP16+0
          CFI `PSW.CY` SameValue
          CFI `B.BR0` SameValue
          CFI `B.BR1` SameValue
          CFI `B.BR2` SameValue
          CFI `B.BR3` SameValue
          CFI `B.BR4` SameValue
          CFI `B.BR5` SameValue
          CFI `B.BR6` SameValue
          CFI `B.BR7` SameValue
          CFI `VB.BR8` SameValue
          CFI `VB.BR9` SameValue
          CFI `VB.BR10` SameValue
          CFI `VB.BR11` SameValue
          CFI `VB.BR12` SameValue
          CFI `VB.BR13` SameValue
          CFI `VB.BR14` SameValue
          CFI `VB.BR15` SameValue
          CFI VB SameValue
          CFI B Undefined
          CFI A Undefined
          CFI PSW SameValue
          CFI DPL0 SameValue
          CFI DPH0 SameValue
          CFI R0 Undefined
          CFI R1 Undefined
          CFI R2 Undefined
          CFI R3 Undefined
          CFI R4 Undefined
          CFI R5 Undefined
          CFI R6 SameValue
          CFI R7 SameValue
          CFI V0 SameValue
          CFI V1 SameValue
          CFI V2 SameValue
          CFI V3 SameValue
          CFI V4 SameValue
          CFI V5 SameValue
          CFI V6 SameValue
          CFI V7 SameValue
          CFI V8 SameValue
          CFI V9 SameValue
          CFI V10 SameValue
          CFI V11 SameValue
          CFI V12 SameValue
          CFI V13 SameValue
          CFI V14 SameValue
          CFI V15 SameValue
          CFI PSPH Undefined
          CFI PSPL Undefined
          CFI XSPH Undefined
          CFI XSPL Undefined
          CFI ?RET Concat
          CFI ?BRET_EXT Frame(CFA_SP, 3)
          CFI ?RET_HIGH Frame(CFA_SP, 2)
          CFI ?RET_LOW Frame(CFA_SP, 1)
          CFI EndCommon cfiCommon0
        
        
          CFI Common cfiCommon1 Using cfiNames0
          CFI CodeAlign 1
          CFI DataAlign -1
          CFI ReturnAddress ?RET CODE
          CFI CFA_DOVERLAY Used
          CFI CFA_IOVERLAY Used
          CFI CFA_SP SP+-2
          CFI CFA_PSP16 PSP16+0
          CFI CFA_XSP16 XSP16+0
          CFI `PSW.CY` SameValue
          CFI `B.BR0` SameValue
          CFI `B.BR1` SameValue
          CFI `B.BR2` SameValue
          CFI `B.BR3` SameValue
          CFI `B.BR4` SameValue
          CFI `B.BR5` SameValue
          CFI `B.BR6` SameValue
          CFI `B.BR7` SameValue
          CFI `VB.BR8` SameValue
          CFI `VB.BR9` SameValue
          CFI `VB.BR10` SameValue
          CFI `VB.BR11` SameValue
          CFI `VB.BR12` SameValue
          CFI `VB.BR13` SameValue
          CFI `VB.BR14` SameValue
          CFI `VB.BR15` SameValue
          CFI VB SameValue
          CFI B SameValue
          CFI A SameValue
          CFI PSW SameValue
          CFI DPL0 SameValue
          CFI DPH0 SameValue
          CFI R0 SameValue
          CFI R1 SameValue
          CFI R2 SameValue
          CFI R3 SameValue
          CFI R4 SameValue
          CFI R5 SameValue
          CFI R6 SameValue
          CFI R7 SameValue
          CFI V0 SameValue
          CFI V1 SameValue
          CFI V2 SameValue
          CFI V3 SameValue
          CFI V4 SameValue
          CFI V5 SameValue
          CFI V6 SameValue
          CFI V7 SameValue
          CFI V8 SameValue
          CFI V9 SameValue
          CFI V10 SameValue
          CFI V11 SameValue
          CFI V12 SameValue
          CFI V13 SameValue
          CFI V14 SameValue
          CFI V15 SameValue
          CFI PSPH Undefined
          CFI PSPL Undefined
          CFI XSPH Undefined
          CFI XSPL Undefined
          CFI ?RET Concat
          CFI ?BRET_EXT SameValue
          CFI ?RET_HIGH Frame(CFA_SP, 2)
          CFI ?RET_LOW Frame(CFA_SP, 1)
          CFI EndCommon cfiCommon1
        
HalLedBlink         SYMBOL "HalLedBlink"
`??HalLedBlink::?relay` SYMBOL "?relay", HalLedBlink
HalUARTOpen         SYMBOL "HalUARTOpen"
`??HalUARTOpen::?relay` SYMBOL "?relay", HalUARTOpen
HalUARTRead         SYMBOL "HalUARTRead"
`??HalUARTRead::?relay` SYMBOL "?relay", HalUARTRead
Hal_UART_RxBufLen   SYMBOL "Hal_UART_RxBufLen"
`??Hal_UART_RxBufLen::?relay` SYMBOL "?relay", Hal_UART_RxBufLen
RegisterForKeys     SYMBOL "RegisterForKeys"
`??RegisterForKeys::?relay` SYMBOL "?relay", RegisterForKeys
RegisterVoltageWarningCB SYMBOL "RegisterVoltageWarningCB"
`??RegisterVoltageWarningCB::?relay` SYMBOL "?relay", RegisterVoltageWarningCB
afRegister          SYMBOL "afRegister"
`??afRegister::?relay` SYMBOL "?relay", afRegister
bdb_RegisterCommissioningStatusCB SYMBOL "bdb_RegisterCommissioningStatusCB"
`??bdb_RegisterCommissioningStatusCB::?relay` SYMBOL "?relay", bdb_RegisterCommissioningStatusCB
bdb_RegisterSimpleDescriptor SYMBOL "bdb_RegisterSimpleDescriptor"
`??bdb_RegisterSimpleDescriptor::?relay` SYMBOL "?relay", bdb_RegisterSimpleDescriptor
bdb_StartCommissioning SYMBOL "bdb_StartCommissioning"
`??bdb_StartCommissioning::?relay` SYMBOL "?relay", bdb_StartCommissioning
bdb_ZedAttemptRecoverNwk SYMBOL "bdb_ZedAttemptRecoverNwk"
`??bdb_ZedAttemptRecoverNwk::?relay` SYMBOL "?relay", bdb_ZedAttemptRecoverNwk
osal_mem_alloc      SYMBOL "osal_mem_alloc"
`??osal_mem_alloc::?relay` SYMBOL "?relay", osal_mem_alloc
osal_mem_free       SYMBOL "osal_mem_free"
`??osal_mem_free::?relay` SYMBOL "?relay", osal_mem_free
osal_memset         SYMBOL "osal_memset"
`??osal_memset::?relay` SYMBOL "?relay", osal_memset
osal_msg_allocate   SYMBOL "osal_msg_allocate"
`??osal_msg_allocate::?relay` SYMBOL "?relay", osal_msg_allocate
osal_msg_deallocate SYMBOL "osal_msg_deallocate"
`??osal_msg_deallocate::?relay` SYMBOL "?relay", osal_msg_deallocate
osal_msg_receive    SYMBOL "osal_msg_receive"
`??osal_msg_receive::?relay` SYMBOL "?relay", osal_msg_receive
osal_msg_send       SYMBOL "osal_msg_send"
`??osal_msg_send::?relay` SYMBOL "?relay", osal_msg_send
osal_start_timerEx  SYMBOL "osal_start_timerEx"
`??osal_start_timerEx::?relay` SYMBOL "?relay", osal_start_timerEx
zclFindAttrRec      SYMBOL "zclFindAttrRec"
`??zclFindAttrRec::?relay` SYMBOL "?relay", zclFindAttrRec
zclFindConfigReportRec SYMBOL "zclFindConfigReportRec"
`??zclFindConfigReportRec::?relay` SYMBOL "?relay", zclFindConfigReportRec
zclFindConfigReportRecsList SYMBOL "zclFindConfigReportRecsList"
`??zclFindConfigReportRecsList::?relay` SYMBOL "?relay", zclFindConfigReportRecsList
zclGeneral_RegisterCmdCallbacks SYMBOL "zclGeneral_RegisterCmdCallbacks"
`??zclGeneral_RegisterCmdCallbacks::?relay` SYMBOL "?relay", zclGeneral_RegisterCmdCallbacks
zclSampleSensorEnviroment_ResetAttributesToDefaultValues SYMBOL "zclSampleSensorEnviroment_ResetAttributesToDefaultValues"
??zclSampleSensorEnviroment_ResetAttributesToDe SYMBOL "?relay", zclSampleSensorEnviroment_ResetAttributesToDefaultValues
zcl_SendConfigReportRspCmd SYMBOL "zcl_SendConfigReportRspCmd"
`??zcl_SendConfigReportRspCmd::?relay` SYMBOL "?relay", zcl_SendConfigReportRspCmd
zcl_SendReadReportCfgRspCmd SYMBOL "zcl_SendReadReportCfgRspCmd"
`??zcl_SendReadReportCfgRspCmd::?relay` SYMBOL "?relay", zcl_SendReadReportCfgRspCmd
zcl_SendReportCmd   SYMBOL "zcl_SendReportCmd"
`??zcl_SendReportCmd::?relay` SYMBOL "?relay", zcl_SendReportCmd
zcl_registerAttrList SYMBOL "zcl_registerAttrList"
`??zcl_registerAttrList::?relay` SYMBOL "?relay", zcl_registerAttrList
zcl_registerConfigReportRecList SYMBOL "zcl_registerConfigReportRecList"
`??zcl_registerConfigReportRecList::?relay` SYMBOL "?relay", zcl_registerConfigReportRecList
zcl_registerForMsg  SYMBOL "zcl_registerForMsg"
`??zcl_registerForMsg::?relay` SYMBOL "?relay", zcl_registerForMsg
uartEventApplicationCB SYMBOL "uartEventApplicationCB"
`??uartEventApplicationCB::?relay` SYMBOL "?relay", uartEventApplicationCB
zclSampleSensorEnviroment_Init SYMBOL "zclSampleSensorEnviroment_Init"
`??zclSampleSensorEnviroment_Init::?relay` SYMBOL "?relay", zclSampleSensorEnviroment_Init
zclSampleSensorEnviroment_ProcessInReportCmd SYMBOL "zclSampleSensorEnviroment_ProcessInReportCmd"
`??zclSampleSensorEnviroment_ProcessInReportCmd:` SYMBOL "?relay", zclSampleSensorEnviroment_ProcessInReportCmd
zclSampleSensorEnviroment_event_loop SYMBOL "zclSampleSensorEnviroment_event_loop"
`??zclSampleSensorEnviroment_event_loop::?relay` SYMBOL "?relay", zclSampleSensorEnviroment_event_loop

        EXTERN `??HalLedBlink::?relay`
        FUNCTION `??HalLedBlink::?relay`,00H
        EXTERN `??HalUARTOpen::?relay`
        FUNCTION `??HalUARTOpen::?relay`,00H
        EXTERN `??HalUARTRead::?relay`
        FUNCTION `??HalUARTRead::?relay`,00H
        EXTERN `??Hal_UART_RxBufLen::?relay`
        FUNCTION `??Hal_UART_RxBufLen::?relay`,00H
        EXTERN `??RegisterForKeys::?relay`
        FUNCTION `??RegisterForKeys::?relay`,00H
        EXTERN `??RegisterVoltageWarningCB::?relay`
        FUNCTION `??RegisterVoltageWarningCB::?relay`,00H
        EXTERN `??afRegister::?relay`
        FUNCTION `??afRegister::?relay`,00H
        EXTERN `??bdb_RegisterCommissioningStatusCB::?relay`
        FUNCTION `??bdb_RegisterCommissioningStatusCB::?relay`,00H
        EXTERN `??bdb_RegisterSimpleDescriptor::?relay`
        FUNCTION `??bdb_RegisterSimpleDescriptor::?relay`,00H
        EXTERN `??bdb_StartCommissioning::?relay`
        FUNCTION `??bdb_StartCommissioning::?relay`,00H
        EXTERN `??bdb_ZedAttemptRecoverNwk::?relay`
        FUNCTION `??bdb_ZedAttemptRecoverNwk::?relay`,00H
        EXTERN `??osal_mem_alloc::?relay`
        FUNCTION `??osal_mem_alloc::?relay`,00H
        EXTERN `??osal_mem_free::?relay`
        FUNCTION `??osal_mem_free::?relay`,00H
        EXTERN `??osal_memset::?relay`
        FUNCTION `??osal_memset::?relay`,00H
        EXTERN `??osal_msg_allocate::?relay`
        FUNCTION `??osal_msg_allocate::?relay`,00H
        EXTERN `??osal_msg_deallocate::?relay`
        FUNCTION `??osal_msg_deallocate::?relay`,00H
        EXTERN `??osal_msg_receive::?relay`
        FUNCTION `??osal_msg_receive::?relay`,00H
        EXTERN `??osal_msg_send::?relay`
        FUNCTION `??osal_msg_send::?relay`,00H
        EXTERN `??osal_start_timerEx::?relay`
        FUNCTION `??osal_start_timerEx::?relay`,00H
        EXTERN `??zclFindAttrRec::?relay`
        FUNCTION `??zclFindAttrRec::?relay`,00H
        EXTERN `??zclFindConfigReportRec::?relay`
        FUNCTION `??zclFindConfigReportRec::?relay`,00H
        EXTERN `??zclFindConfigReportRecsList::?relay`
        FUNCTION `??zclFindConfigReportRecsList::?relay`,00H
        EXTERN `??zclGeneral_RegisterCmdCallbacks::?relay`
        FUNCTION `??zclGeneral_RegisterCmdCallbacks::?relay`,00H
        EXTERN ??zclSampleSensorEnviroment_ResetAttributesToDe
        FUNCTION ??zclSampleSensorEnviroment_ResetAttributesToDe,00H
        EXTERN `??zcl_SendConfigReportRspCmd::?relay`
        FUNCTION `??zcl_SendConfigReportRspCmd::?relay`,00H
        EXTERN `??zcl_SendReadReportCfgRspCmd::?relay`
        FUNCTION `??zcl_SendReadReportCfgRspCmd::?relay`,00H
        EXTERN `??zcl_SendReportCmd::?relay`
        FUNCTION `??zcl_SendReportCmd::?relay`,00H
        EXTERN `??zcl_registerAttrList::?relay`
        FUNCTION `??zcl_registerAttrList::?relay`,00H
        EXTERN `??zcl_registerConfigReportRecList::?relay`
        FUNCTION `??zcl_registerConfigReportRecList::?relay`,00H
        EXTERN `??zcl_registerForMsg::?relay`
        FUNCTION `??zcl_registerForMsg::?relay`,00H
        EXTERN HalLedBlink
        FUNCTION HalLedBlink,0202H
        ARGFRAME ISTACK, 2, STACK
        ARGFRAME PSTACK, 0, STACK
        ARGFRAME XSTACK, 0, STACK
        ARGFRAME IOVERLAY, 0, STATIC
        ARGFRAME DOVERLAY, 0, STATIC
        EXTERN HalUARTOpen
        FUNCTION HalUARTOpen,0202H
        ARGFRAME ISTACK, 0, STACK
        ARGFRAME PSTACK, 0, STACK
        ARGFRAME XSTACK, 38, STACK
        ARGFRAME IOVERLAY, 0, STATIC
        ARGFRAME DOVERLAY, 0, STATIC
        EXTERN HalUARTRead
        FUNCTION HalUARTRead,0202H
        ARGFRAME ISTACK, 0, STACK
        ARGFRAME PSTACK, 0, STACK
        ARGFRAME XSTACK, 25, STACK
        ARGFRAME IOVERLAY, 0, STATIC
        ARGFRAME DOVERLAY, 0, STATIC
        EXTERN Hal_UART_RxBufLen
        FUNCTION Hal_UART_RxBufLen,0202H
        ARGFRAME ISTACK, 0, STACK
        ARGFRAME PSTACK, 0, STACK
        ARGFRAME XSTACK, 25, STACK
        ARGFRAME IOVERLAY, 0, STATIC
        ARGFRAME DOVERLAY, 0, STATIC
        EXTERN RegisterForKeys
        FUNCTION RegisterForKeys,0202H
        ARGFRAME ISTACK, 0, STACK
        ARGFRAME PSTACK, 0, STACK
        ARGFRAME XSTACK, 38, STACK
        ARGFRAME IOVERLAY, 0, STATIC
        ARGFRAME DOVERLAY, 0, STATIC
        EXTERN RegisterVoltageWarningCB
        FUNCTION RegisterVoltageWarningCB,0202H
        ARGFRAME ISTACK, 0, STACK
        ARGFRAME PSTACK, 0, STACK
        ARGFRAME XSTACK, 38, STACK
        ARGFRAME IOVERLAY, 0, STATIC
        ARGFRAME DOVERLAY, 0, STATIC
        EXTERN afRegister
        FUNCTION afRegister,0202H
        ARGFRAME ISTACK, 0, STACK
        ARGFRAME PSTACK, 0, STACK
        ARGFRAME XSTACK, 38, STACK
        ARGFRAME IOVERLAY, 0, STATIC
        ARGFRAME DOVERLAY, 0, STATIC
        EXTERN bdb_RegisterCommissioningStatusCB
        FUNCTION bdb_RegisterCommissioningStatusCB,0202H
        ARGFRAME ISTACK, 0, STACK
        ARGFRAME PSTACK, 0, STACK
        ARGFRAME XSTACK, 38, STACK
        ARGFRAME IOVERLAY, 0, STATIC
        ARGFRAME DOVERLAY, 0, STATIC
        EXTERN bdb_RegisterSimpleDescriptor
        FUNCTION bdb_RegisterSimpleDescriptor,0202H
        ARGFRAME ISTACK, 0, STACK
        ARGFRAME PSTACK, 0, STACK
        ARGFRAME XSTACK, 38, STACK
        ARGFRAME IOVERLAY, 0, STATIC
        ARGFRAME DOVERLAY, 0, STATIC
        EXTERN bdb_StartCommissioning
        FUNCTION bdb_StartCommissioning,0202H
        ARGFRAME ISTACK, 2, STACK
        ARGFRAME PSTACK, 0, STACK
        ARGFRAME XSTACK, 38, STACK
        ARGFRAME IOVERLAY, 0, STATIC
        ARGFRAME DOVERLAY, 0, STATIC
        EXTERN bdb_ZedAttemptRecoverNwk
        FUNCTION bdb_ZedAttemptRecoverNwk,0202H
        ARGFRAME ISTACK, 0, STACK
        ARGFRAME PSTACK, 0, STACK
        ARGFRAME XSTACK, 12, STACK
        ARGFRAME IOVERLAY, 0, STATIC
        ARGFRAME DOVERLAY, 0, STATIC
        EXTERN osal_mem_alloc
        FUNCTION osal_mem_alloc,0202H
        ARGFRAME ISTACK, 0, STACK
        ARGFRAME PSTACK, 0, STACK
        ARGFRAME XSTACK, 36, STACK
        ARGFRAME IOVERLAY, 0, STATIC
        ARGFRAME DOVERLAY, 0, STATIC
        EXTERN osal_mem_free
        FUNCTION osal_mem_free,0202H
        ARGFRAME ISTACK, 0, STACK
        ARGFRAME PSTACK, 0, STACK
        ARGFRAME XSTACK, 36, STACK
        ARGFRAME IOVERLAY, 0, STATIC
        ARGFRAME DOVERLAY, 0, STATIC
        EXTERN osal_memset
        FUNCTION osal_memset,0202H
        ARGFRAME ISTACK, 0, STACK
        ARGFRAME PSTACK, 0, STACK
        ARGFRAME XSTACK, 36, STACK
        ARGFRAME IOVERLAY, 0, STATIC
        ARGFRAME DOVERLAY, 0, STATIC
        EXTERN osal_msg_allocate
        FUNCTION osal_msg_allocate,0202H
        ARGFRAME ISTACK, 0, STACK
        ARGFRAME PSTACK, 0, STACK
        ARGFRAME XSTACK, 34, STACK
        ARGFRAME IOVERLAY, 0, STATIC
        ARGFRAME DOVERLAY, 0, STATIC
        EXTERN osal_msg_deallocate
        FUNCTION osal_msg_deallocate,0202H
        ARGFRAME ISTACK, 0, STACK
        ARGFRAME PSTACK, 0, STACK
        ARGFRAME XSTACK, 12, STACK
        ARGFRAME IOVERLAY, 0, STATIC
        ARGFRAME DOVERLAY, 0, STATIC
        EXTERN osal_msg_receive
        FUNCTION osal_msg_receive,0202H
        ARGFRAME ISTACK, 0, STACK
        ARGFRAME PSTACK, 0, STACK
        ARGFRAME XSTACK, 12, STACK
        ARGFRAME IOVERLAY, 0, STATIC
        ARGFRAME DOVERLAY, 0, STATIC
        EXTERN osal_msg_send
        FUNCTION osal_msg_send,0202H
        ARGFRAME ISTACK, 0, STACK
        ARGFRAME PSTACK, 0, STACK
        ARGFRAME XSTACK, 34, STACK
        ARGFRAME IOVERLAY, 0, STATIC
        ARGFRAME DOVERLAY, 0, STATIC
        EXTERN osal_start_timerEx
        FUNCTION osal_start_timerEx,0202H
        ARGFRAME ISTACK, 2, STACK
        ARGFRAME PSTACK, 0, STACK
        ARGFRAME XSTACK, 21, STACK
        ARGFRAME IOVERLAY, 0, STATIC
        ARGFRAME DOVERLAY, 0, STATIC
        EXTERN zclFindAttrRec
        FUNCTION zclFindAttrRec,0202H
        ARGFRAME ISTACK, 0, STACK
        ARGFRAME PSTACK, 0, STACK
        ARGFRAME XSTACK, 38, STACK
        ARGFRAME IOVERLAY, 0, STATIC
        ARGFRAME DOVERLAY, 0, STATIC
        EXTERN zclFindConfigReportRec
        FUNCTION zclFindConfigReportRec,0202H
        ARGFRAME ISTACK, 0, STACK
        ARGFRAME PSTACK, 0, STACK
        ARGFRAME XSTACK, 38, STACK
        ARGFRAME IOVERLAY, 0, STATIC
        ARGFRAME DOVERLAY, 0, STATIC
        EXTERN zclFindConfigReportRecsList
        FUNCTION zclFindConfigReportRecsList,0202H
        ARGFRAME ISTACK, 0, STACK
        ARGFRAME PSTACK, 0, STACK
        ARGFRAME XSTACK, 17, STACK
        ARGFRAME IOVERLAY, 0, STATIC
        ARGFRAME DOVERLAY, 0, STATIC
        EXTERN zclGeneral_RegisterCmdCallbacks
        FUNCTION zclGeneral_RegisterCmdCallbacks,0202H
        ARGFRAME ISTACK, 0, STACK
        ARGFRAME PSTACK, 0, STACK
        ARGFRAME XSTACK, 38, STACK
        ARGFRAME IOVERLAY, 0, STATIC
        ARGFRAME DOVERLAY, 0, STATIC
        EXTERN zclSampleSensorEnviroment_Attrs
        EXTERN zclSampleSensorEnviroment_CO2_MeasuredValue
        EXTERN zclSampleSensorEnviroment_ConfigReportRecs
        EXTERN zclSampleSensorEnviroment_Humidity_MeasuredValue
        EXTERN zclSampleSensorEnviroment_Light_MeasuredValue
        EXTERN zclSampleSensorEnviroment_NumAttributes
        EXTERN zclSampleSensorEnviroment_NumConfigReportRecs
        EXTERN zclSampleSensorEnviroment_Pir_Status
        EXTERN zclSampleSensorEnviroment_ResetAttributesToDefaultValues
        FUNCTION zclSampleSensorEnviroment_ResetAttributesToDefaultValues,0202H
        ARGFRAME ISTACK, 2, STACK
        ARGFRAME PSTACK, 0, STACK
        ARGFRAME XSTACK, 38, STACK
        ARGFRAME IOVERLAY, 0, STATIC
        ARGFRAME DOVERLAY, 0, STATIC
        EXTERN zclSampleSensorEnviroment_SimpleDesc
        EXTERN zclSampleSensorEnviroment_TVOC_MeasuredValue
        EXTERN zclSampleSensorEnviroment_Temperature_MeasuredValue
        EXTERN zcl_SendConfigReportRspCmd
        FUNCTION zcl_SendConfigReportRspCmd,0202H
        ARGFRAME ISTACK, 0, STACK
        ARGFRAME PSTACK, 0, STACK
        ARGFRAME XSTACK, 41, STACK
        ARGFRAME IOVERLAY, 0, STATIC
        ARGFRAME DOVERLAY, 0, STATIC
        EXTERN zcl_SendReadReportCfgRspCmd
        FUNCTION zcl_SendReadReportCfgRspCmd,0202H
        ARGFRAME ISTACK, 0, STACK
        ARGFRAME PSTACK, 0, STACK
        ARGFRAME XSTACK, 39, STACK
        ARGFRAME IOVERLAY, 0, STATIC
        ARGFRAME DOVERLAY, 0, STATIC
        EXTERN zcl_SendReportCmd
        FUNCTION zcl_SendReportCmd,0202H
        ARGFRAME ISTACK, 0, STACK
        ARGFRAME PSTACK, 0, STACK
        ARGFRAME XSTACK, 29, STACK
        ARGFRAME IOVERLAY, 0, STATIC
        ARGFRAME DOVERLAY, 0, STATIC
        EXTERN zcl_registerAttrList
        FUNCTION zcl_registerAttrList,0202H
        ARGFRAME ISTACK, 0, STACK
        ARGFRAME PSTACK, 0, STACK
        ARGFRAME XSTACK, 38, STACK
        ARGFRAME IOVERLAY, 0, STATIC
        ARGFRAME DOVERLAY, 0, STATIC
        EXTERN zcl_registerConfigReportRecList
        FUNCTION zcl_registerConfigReportRecList,0202H
        ARGFRAME ISTACK, 0, STACK
        ARGFRAME PSTACK, 0, STACK
        ARGFRAME XSTACK, 38, STACK
        ARGFRAME IOVERLAY, 0, STATIC
        ARGFRAME DOVERLAY, 0, STATIC
        EXTERN zcl_registerForMsg
        FUNCTION zcl_registerForMsg,0202H
        ARGFRAME ISTACK, 0, STACK
        ARGFRAME PSTACK, 0, STACK
        ARGFRAME XSTACK, 38, STACK
        ARGFRAME IOVERLAY, 0, STATIC
        ARGFRAME DOVERLAY, 0, STATIC
        EXTERN zdpExternalStateTaskID

// C:\Users\TS-577\Desktop\Zigbee workspace\Product Developer\particular product\Projects\zstack\HomeAutomation\SampleSensorEnviroment_2\Source\zcl_SampleSensorEnviroment.c
//    1 /**************************************************************************************************
//    2   Filename:       zcl_sampletemperaturesensor.c
//    3   Revised:        $Date: 2014-10-24 16:04:46 -0700 (Fri, 24 Oct 2014) $
//    4   Revision:       $Revision: 40796 $
//    5 
//    6   Description:    Zigbee Cluster Library - sample device application.
//    7 
//    8 
//    9   Copyright 2013 Texas Instruments Incorporated. All rights reserved.
//   10 
//   11   IMPORTANT: Your use of this Software is limited to those specific rights
//   12   granted under the terms of a software license agreement between the user
//   13   who downloaded the software, his/her employer (which must be your employer)
//   14   and Texas Instruments Incorporated (the "License").  You may not use this
//   15   Software unless you agree to abide by the terms of the License. The License
//   16   limits your use, and you acknowledge, that the Software may not be modified,
//   17   copied or distributed unless embedded on a Texas Instruments microcontroller
//   18   or used solely and exclusively in conjunction with a Texas Instruments radio
//   19   frequency transceiver, which is integrated into your product.  Other than for
//   20   the foregoing purpose, you may not use, reproduce, copy, prepare derivative
//   21   works of, modify, distribute, perform, display or sell this Software and/or
//   22   its documentation for any purpose.
//   23 
//   24   YOU FURTHER ACKNOWLEDGE AND AGREE THAT THE SOFTWARE AND DOCUMENTATION ARE
//   25   PROVIDED "AS IS" WITHOUT WARRANTY OF ANY KIND, EITHER EXPRESS OR IMPLIED,
//   26   INCLUDING WITHOUT LIMITATION, ANY WARRANTY OF MERCHANTABILITY, TITLE,
//   27   NON-INFRINGEMENT AND FITNESS FOR A PARTICULAR PURPOSE. IN NO EVENT SHALL
//   28   TEXAS INSTRUMENTS OR ITS LICENSORS BE LIABLE OR OBLIGATED UNDER CONTRACT,
//   29   NEGLIGENCE, STRICT LIABILITY, CONTRIBUTION, BREACH OF WARRANTY, OR OTHER
//   30   LEGAL EQUITABLE THEORY ANY DIRECT OR INDIRECT DAMAGES OR EXPENSES
//   31   INCLUDING BUT NOT LIMITED TO ANY INCIDENTAL, SPECIAL, INDIRECT, PUNITIVE
//   32   OR CONSEQUENTIAL DAMAGES, LOST PROFITS OR LOST DATA, COST OF PROCUREMENT
//   33   OF SUBSTITUTE GOODS, TECHNOLOGY, SERVICES, OR ANY CLAIMS BY THIRD PARTIES
//   34   (INCLUDING BUT NOT LIMITED TO ANY DEFENSE THEREOF), OR OTHER SIMILAR COSTS.
//   35 
//   36   Should you have any questions regarding your right to use this Software,
//   37   contact Texas Instruments Incorporated at www.TI.com.
//   38 **************************************************************************************************/
//   39 
//   40 /*********************************************************************
//   41   This application implements a ZigBee Temperature Sensor, based on Z-Stack 3.0.
//   42 
//   43   This application is based on the common sample-application user interface. Please see the main
//   44   comment in zcl_sampleapp_ui.c. The rest of this comment describes only the content specific for
//   45   this sample applicetion.
//   46   
//   47   Application-specific UI peripherals being used:
//   48 
//   49   - LEDs:
//   50     LED1 is not used in this application
//   51 
//   52   Application-specific menu system:
//   53 
//   54     <SET LOCAL TEMP> Set the temperature of the local temperature sensor
//   55       Up/Down changes the temperature 
//   56       This screen shows the following information:
//   57         Line2:
//   58           Shows the temperature of the local temperature sensor
//   59 
//   60 *********************************************************************/
//   61 
//   62 /*********************************************************************
//   63  * INCLUDES
//   64  */
//   65 #include "ZComDef.h"
//   66 #include "OSAL.h"
//   67 #include "AF.h"
//   68 #include "ZDApp.h"
//   69 #include "ZDObject.h"
//   70 #include "ZDProfile.h"
//   71 
//   72 #include "zcl.h"
//   73 #include "zcl_general.h"
//   74 #include "zcl_ha.h"
//   75 #include "zcl_ms.h"
//   76 
//   77 #include "zcl_SampleSensorEnviroment.h"
//   78 
//   79 #include "onboard.h"
//   80 
//   81 /* HAL */
//   82 #include "hal_led.h"
//   83 #include "hal_key.h"
//   84 #include "hal_uart.h"
//   85 
//   86 #include "bdb_interface.h"
//   87 #include "bdb_Reporting.h"
//   88    
//   89 /*********************************************************************
//   90  * MACROS
//   91  */
//   92 
//   93 // how often to report temperature
//   94 #define zcl_AccessCtrlRead( a )       ( (a) & ACCESS_CONTROL_READ )
//   95 
//   96 
//   97 /*********************************************************************
//   98  * CONSTANTS
//   99  */
//  100 
//  101 /*********************************************************************
//  102  * TYPEDEFS
//  103  */
//  104 
//  105 /*********************************************************************
//  106  * GLOBAL VARIABLES
//  107  */

        RSEG XDATA_Z:XDATA:NOROOT(0)
        DATA8
//  108 byte zclSampleSensorEnviroment_TaskID;
zclSampleSensorEnviroment_TaskID:
        DS 1
        REQUIRE __INIT_XDATA_Z

        RSEG XDATA_Z:XDATA:NOROOT(0)
        DATA8
//  109 uint8 zclSampleSensorEnviroment_SeqNum;
zclSampleSensorEnviroment_SeqNum:
        DS 1
        REQUIRE __INIT_XDATA_Z
//  110 extern int16 zdpExternalStateTaskID;
//  111 

        RSEG XDATA_Z:XDATA:NOROOT(0)
        DATA8
//  112 afAddrType_t zclSampleSensorEnviroment_dstAddr;
zclSampleSensorEnviroment_dstAddr:
        DS 12
        REQUIRE __INIT_XDATA_Z
//  113 
//  114 

        RSEG XDATA_Z:XDATA:NOROOT(0)
        DATA16
//  115 uint16 gTimeCounter;
gTimeCounter:
        DS 2
        REQUIRE __INIT_XDATA_Z
//  116 
//  117 /*********************************************************************
//  118  * GLOBAL FUNCTIONS
//  119  */
//  120 
//  121 /*********************************************************************
//  122  * LOCAL VARIABLES
//  123  */
//  124 

        RSEG XDATA_I:XDATA:NOROOT(0)
//  125 devStates_t zclSampleSensorEnviroment_NwkState = DEV_INIT;
zclSampleSensorEnviroment_NwkState:
        DATA8
        DS 1
        REQUIRE `?<Initializer for zclSampleSensorEnviroment_Nw`
        REQUIRE __INIT_XDATA_I
//  126 

        RSEG XDATA_I:XDATA:NOROOT(0)
//  127 static endPointDesc_t sampleTemperatureSensor_Ep =
sampleTemperatureSensor_Ep:
        DATA8
        DS 7
        REQUIRE `?<Initializer for sampleTemperatureSensor_Ep>`
        REQUIRE __INIT_XDATA_I
//  128 {
//  129   SAMPLESENSORENVIROMENT_ENDPOINT_MUXSENSOR,           // Light sensor endpoint
//  130   0,
//  131   &zclSampleSensorEnviroment_TaskID,
//  132   (SimpleDescriptionFormat_t *)NULL,                  // No Simple description for this test endpoint
//  133   (afNetworkLatencyReq_t)0                            // No Network Latency req
//  134 };
//  135 
//  136 /*********************************************************************
//  137  * LOCAL FUNCTIONS
//  138  */
//  139   
//  140 // Functions to process other events relate to hardware
//  141 static void zclSampleSensorEnviroment_HandleKeys( byte shift, byte keys );
//  142 static void zclSampleSensorEnviroment_BasicResetCB( void );
//  143 static void zclSampleSensorEnviroment_BatteryWarningCB( uint8 voltLevel);
//  144 
//  145 // Function to process Commisioning
//  146 static void zclSampleSensorEnviroment_ProcessCommissioningStatus(bdbCommissioningModeMsg_t* bdbCommissioningModeMsg);
//  147 
//  148 // Functions to process ZCL Foundation incoming Command/Response messages
//  149 static void zclSampleSensorEnviroment_ProcessIncomingMsg( zclIncomingMsg_t *msg );
//  150 #ifdef ZCL_READ
//  151 static uint8 zclSampleSensorEnviroment_ProcessInReadRspCmd( zclIncomingMsg_t *pInMsg );
//  152 #endif
//  153 #ifdef ZCL_WRITE
//  154 static uint8 zclSampleSensorEnviroment_ProcessInWriteRspCmd( zclIncomingMsg_t *pInMsg );
//  155 #endif
//  156 static uint8 zclSampleSensorEnviroment_ProcessInDefaultRspCmd( zclIncomingMsg_t *pInMsg );
//  157 #ifdef ZCL_DISCOVER
//  158 static uint8 zclSampleSensorEnviroment_ProcessInDiscCmdsRspCmd( zclIncomingMsg_t *pInMsg );
//  159 static uint8 zclSampleSensorEnviroment_ProcessInDiscAttrsRspCmd( zclIncomingMsg_t *pInMsg );
//  160 static uint8 zclSampleSensorEnviroment_ProcessInDiscAttrsExtRspCmd( zclIncomingMsg_t *pInMsg );
//  161 #endif // ZCL_DISCOVER
//  162 
//  163 static void zclSampleSensorEnviroment_CheckReportConfig(void);
//  164 
//  165 // Functions to process UART interface
//  166 static void zclSampleSensorEnviroment_UART_Init(void);
//  167 void uartEventApplicationCB(uint8 port, uint8 event);
//  168 
//  169 static uint8 SendZclAttrReport(uint8 srcEp, uint16 clusterId, zclReportCmd_t *pReportCmd,
//  170                                uint8 datalen);
//  171 static void zclSampleSensorEnviroment_CheckAndSendClusterAttrReport( uint8 endpoint, uint16 clusterId,
//  172                                                                      zclConfigReportRecsList *pConfigReportRecsList );
//  173 
//  174 // Functions to process ZCL REPORT message
//  175 void zclSampleSensorEnviroment_ProcessInReportCmd( zclIncomingMsg_t *pInMsg );
//  176 static uint8 zclSampleSensorEnviroment_ProcessInConfigReportCmd( zclIncomingMsg_t *pInMsg );
//  177 static uint8 zclSampleSensorEnviroment_ProcessInReadReportCfgCmd( zclIncomingMsg_t *pInMsg );
//  178 
//  179 /*********************************************************************
//  180  * STATUS STRINGS
//  181  */
//  182 
//  183 /*********************************************************************
//  184  * CONSTANTS
//  185  */
//  186 
//  187 /*********************************************************************
//  188  * ZCL General Profile Callback table
//  189  */

        RSEG XDATA_I:XDATA:NOROOT(0)
//  190 static zclGeneral_AppCallbacks_t zclSampleSensorEnviroment_CmdCallbacks =
zclSampleSensorEnviroment_CmdCallbacks:
        DATA8
        DS 18
        REQUIRE `?<Initializer for zclSampleSensorEnviroment_Cm`
        REQUIRE __INIT_XDATA_I
//  191 {
//  192 // ************************************ Callback List of PIR Sensor Endpoint *********************************************/  
//  193     zclSampleSensorEnviroment_BasicResetCB,         // Basic Cluster Reset command
//  194     NULL,                                           // Identify Trigger Effect command
//  195     NULL,             				                      // On/Off cluster command
//  196     NULL,                                           // On/Off cluster enhanced command Off with Effect
//  197     NULL,                                           // On/Off cluster enhanced command On with Recall Global Scene
//  198     NULL,                                           // On/Off cluster enhanced command On with Timed Off
//  199   #ifdef ZCL_LEVEL_CTRL
//  200     NULL,                                           // Level Control Move to Level command
//  201     NULL,                                           // Level Control Move command
//  202     NULL,                                           // Level Control Step command
//  203     NULL,                                           // Level Control Stop command
//  204   #endif
//  205   #ifdef ZCL_GROUPS
//  206     NULL,                                           // Group Response commands
//  207   #endif
//  208   #ifdef ZCL_SCENES
//  209     NULL,                                           // Scene Store Request command
//  210     NULL,                                           // Scene Recall Request command
//  211     NULL,                                           // Scene Response command
//  212   #endif
//  213   #ifdef ZCL_ALARMS
//  214     NULL,                                           // Alarm (Response) commands
//  215   #endif
//  216   #ifdef SE_UK_EXT
//  217     NULL,                                           // Get Event Log command
//  218     NULL,                                           // Publish Event Log command
//  219   #endif
//  220     NULL,                                           // RSSI Location command
//  221     NULL                                            // RSSI Location Response command
//  222 };
//  223 
//  224 
//  225 /*********************************************************************
//  226  * @fn          zclSampleSensorEnviroment_Init
//  227  *
//  228  * @brief       Initialization function for the zclGeneral layer.
//  229  *
//  230  * @param       none
//  231 *
//  232 * @return      none
//  233 */

        RSEG BANKED_CODE:HUGECODE:NOROOT(0)
//  234 void zclSampleSensorEnviroment_Init( byte task_id )
zclSampleSensorEnviroment_Init:
          CFI Block cfiBlock0 Using cfiCommon0
          CFI Function zclSampleSensorEnviroment_Init
        CODE
//  235 {
        FUNCALL zclSampleSensorEnviroment_Init, bdb_RegisterSimpleDescriptor
        LOCFRAME ISTACK, 0, STACK
        LOCFRAME PSTACK, 0, STACK
        LOCFRAME XSTACK, 38, STACK
        LOCFRAME IOVERLAY, 0, STATIC
        LOCFRAME DOVERLAY, 0, STATIC
        ARGFRAME ISTACK, 0, STACK
        ARGFRAME PSTACK, 0, STACK
        ARGFRAME XSTACK, 38, STACK
        ARGFRAME IOVERLAY, 0, STATIC
        ARGFRAME DOVERLAY, 0, STATIC
        FUNCALL zclSampleSensorEnviroment_Init, zclGeneral_RegisterCmdCallbacks
        LOCFRAME ISTACK, 0, STACK
        LOCFRAME PSTACK, 0, STACK
        LOCFRAME XSTACK, 38, STACK
        LOCFRAME IOVERLAY, 0, STATIC
        LOCFRAME DOVERLAY, 0, STATIC
        ARGFRAME ISTACK, 0, STACK
        ARGFRAME PSTACK, 0, STACK
        ARGFRAME XSTACK, 38, STACK
        ARGFRAME IOVERLAY, 0, STATIC
        ARGFRAME DOVERLAY, 0, STATIC
        FUNCALL zclSampleSensorEnviroment_Init, zclSampleSensorEnviroment_ResetAttributesToDefaultValues
        LOCFRAME ISTACK, 0, STACK
        LOCFRAME PSTACK, 0, STACK
        LOCFRAME XSTACK, 38, STACK
        LOCFRAME IOVERLAY, 0, STATIC
        LOCFRAME DOVERLAY, 0, STATIC
        ARGFRAME ISTACK, 0, STACK
        ARGFRAME PSTACK, 0, STACK
        ARGFRAME XSTACK, 38, STACK
        ARGFRAME IOVERLAY, 0, STATIC
        ARGFRAME DOVERLAY, 0, STATIC
        FUNCALL zclSampleSensorEnviroment_Init, zcl_registerAttrList
        LOCFRAME ISTACK, 0, STACK
        LOCFRAME PSTACK, 0, STACK
        LOCFRAME XSTACK, 38, STACK
        LOCFRAME IOVERLAY, 0, STATIC
        LOCFRAME DOVERLAY, 0, STATIC
        ARGFRAME ISTACK, 0, STACK
        ARGFRAME PSTACK, 0, STACK
        ARGFRAME XSTACK, 38, STACK
        ARGFRAME IOVERLAY, 0, STATIC
        ARGFRAME DOVERLAY, 0, STATIC
        FUNCALL zclSampleSensorEnviroment_Init, zcl_registerForMsg
        LOCFRAME ISTACK, 0, STACK
        LOCFRAME PSTACK, 0, STACK
        LOCFRAME XSTACK, 38, STACK
        LOCFRAME IOVERLAY, 0, STATIC
        LOCFRAME DOVERLAY, 0, STATIC
        ARGFRAME ISTACK, 0, STACK
        ARGFRAME PSTACK, 0, STACK
        ARGFRAME XSTACK, 38, STACK
        ARGFRAME IOVERLAY, 0, STATIC
        ARGFRAME DOVERLAY, 0, STATIC
        FUNCALL zclSampleSensorEnviroment_Init, RegisterVoltageWarningCB
        LOCFRAME ISTACK, 0, STACK
        LOCFRAME PSTACK, 0, STACK
        LOCFRAME XSTACK, 38, STACK
        LOCFRAME IOVERLAY, 0, STATIC
        LOCFRAME DOVERLAY, 0, STATIC
        ARGFRAME ISTACK, 0, STACK
        ARGFRAME PSTACK, 0, STACK
        ARGFRAME XSTACK, 38, STACK
        ARGFRAME IOVERLAY, 0, STATIC
        ARGFRAME DOVERLAY, 0, STATIC
        FUNCALL zclSampleSensorEnviroment_Init, RegisterForKeys
        LOCFRAME ISTACK, 0, STACK
        LOCFRAME PSTACK, 0, STACK
        LOCFRAME XSTACK, 38, STACK
        LOCFRAME IOVERLAY, 0, STATIC
        LOCFRAME DOVERLAY, 0, STATIC
        ARGFRAME ISTACK, 0, STACK
        ARGFRAME PSTACK, 0, STACK
        ARGFRAME XSTACK, 38, STACK
        ARGFRAME IOVERLAY, 0, STATIC
        ARGFRAME DOVERLAY, 0, STATIC
        FUNCALL zclSampleSensorEnviroment_Init, HalUARTOpen
        LOCFRAME ISTACK, 0, STACK
        LOCFRAME PSTACK, 0, STACK
        LOCFRAME XSTACK, 38, STACK
        LOCFRAME IOVERLAY, 0, STATIC
        LOCFRAME DOVERLAY, 0, STATIC
        ARGFRAME ISTACK, 0, STACK
        ARGFRAME PSTACK, 0, STACK
        ARGFRAME XSTACK, 38, STACK
        ARGFRAME IOVERLAY, 0, STATIC
        ARGFRAME DOVERLAY, 0, STATIC
        FUNCALL zclSampleSensorEnviroment_Init, zcl_registerConfigReportRecList
        LOCFRAME ISTACK, 0, STACK
        LOCFRAME PSTACK, 0, STACK
        LOCFRAME XSTACK, 38, STACK
        LOCFRAME IOVERLAY, 0, STATIC
        LOCFRAME DOVERLAY, 0, STATIC
        ARGFRAME ISTACK, 0, STACK
        ARGFRAME PSTACK, 0, STACK
        ARGFRAME XSTACK, 38, STACK
        ARGFRAME IOVERLAY, 0, STATIC
        ARGFRAME DOVERLAY, 0, STATIC
        FUNCALL zclSampleSensorEnviroment_Init, bdb_RegisterCommissioningStatusCB
        LOCFRAME ISTACK, 0, STACK
        LOCFRAME PSTACK, 0, STACK
        LOCFRAME XSTACK, 38, STACK
        LOCFRAME IOVERLAY, 0, STATIC
        LOCFRAME DOVERLAY, 0, STATIC
        ARGFRAME ISTACK, 0, STACK
        ARGFRAME PSTACK, 0, STACK
        ARGFRAME XSTACK, 38, STACK
        ARGFRAME IOVERLAY, 0, STATIC
        ARGFRAME DOVERLAY, 0, STATIC
        FUNCALL zclSampleSensorEnviroment_Init, afRegister
        LOCFRAME ISTACK, 0, STACK
        LOCFRAME PSTACK, 0, STACK
        LOCFRAME XSTACK, 38, STACK
        LOCFRAME IOVERLAY, 0, STATIC
        LOCFRAME DOVERLAY, 0, STATIC
        ARGFRAME ISTACK, 0, STACK
        ARGFRAME PSTACK, 0, STACK
        ARGFRAME XSTACK, 38, STACK
        ARGFRAME IOVERLAY, 0, STATIC
        ARGFRAME DOVERLAY, 0, STATIC
        FUNCALL zclSampleSensorEnviroment_Init, bdb_StartCommissioning
        LOCFRAME ISTACK, 0, STACK
        LOCFRAME PSTACK, 0, STACK
        LOCFRAME XSTACK, 38, STACK
        LOCFRAME IOVERLAY, 0, STATIC
        LOCFRAME DOVERLAY, 0, STATIC
        ARGFRAME ISTACK, 0, STACK
        ARGFRAME PSTACK, 0, STACK
        ARGFRAME XSTACK, 38, STACK
        ARGFRAME IOVERLAY, 0, STATIC
        ARGFRAME DOVERLAY, 0, STATIC
        MOV       A,#-0x9
        LCALL     ?BANKED_ENTER_XDATA
          CFI DPH0 load(1, XDATA, add(CFA_XSP16, literal(-1)))
          CFI DPL0 load(1, XDATA, add(CFA_XSP16, literal(-2)))
          CFI ?BRET_EXT load(1, XDATA, add(CFA_XSP16, literal(-3)))
          CFI ?RET_HIGH load(1, XDATA, add(CFA_XSP16, literal(-4)))
          CFI ?RET_LOW load(1, XDATA, add(CFA_XSP16, literal(-5)))
          CFI R7 load(1, XDATA, add(CFA_XSP16, literal(-6)))
          CFI V0 load(1, XDATA, add(CFA_XSP16, literal(-7)))
          CFI VB load(1, XDATA, add(CFA_XSP16, literal(-8)))
          CFI R6 load(1, XDATA, add(CFA_XSP16, literal(-9)))
          CFI CFA_SP SP+0
          CFI CFA_XSP16 add(XSP16, 9)
        ; Saved register size: 9
        ; Auto size: 29
        MOV       A,#-0x1d
        LCALL     ?ALLOC_XSTACK8
          CFI CFA_XSP16 add(XSP16, 38)
        MOV       A,R1
//  236   zclSampleSensorEnviroment_TaskID = task_id;
        MOV       DPTR,#zclSampleSensorEnviroment_TaskID
        MOVX      @DPTR,A
//  237   
//  238   // Set destination address of PIR Sensor to indirect
//  239   zclSampleSensorEnviroment_dstAddr.addrMode = (afAddrMode_t)Addr16Bit;
        MOV       DPTR,#zclSampleSensorEnviroment_dstAddr + 8
        MOV       A,#0x2
        MOVX      @DPTR,A
//  240   //zclSampleSensorEnviroment_dstAddr.endPoint = COOR_ENDPOINT_PIR;
//  241   zclSampleSensorEnviroment_dstAddr.addr.shortAddr = 0x0000;                //Adress of coordinator
        MOV       DPTR,#zclSampleSensorEnviroment_dstAddr
        CLR       A
        MOVX      @DPTR,A
        INC       DPTR
        MOVX      @DPTR,A
//  242   
//  243   // Register the Simple Descriptor for this application
//  244   bdb_RegisterSimpleDescriptor( &zclSampleSensorEnviroment_SimpleDesc );
        ; Setup parameters for call to function bdb_RegisterSimpleDescriptor
        MOV       R2,#zclSampleSensorEnviroment_SimpleDesc & 0xff
        MOV       R3,#(zclSampleSensorEnviroment_SimpleDesc >> 8) & 0xff
        LCALL     `??bdb_RegisterSimpleDescriptor::?relay`; Banked call to: bdb_RegisterSimpleDescriptor
//  245   
//  246   // Register the ZCL General Cluster Library callback functions
//  247   zclGeneral_RegisterCmdCallbacks( SAMPLESENSORENVIROMENT_ENDPOINT_MUXSENSOR, &zclSampleSensorEnviroment_CmdCallbacks );
        ; Setup parameters for call to function zclGeneral_RegisterCmdCallbacks
        MOV       R2,#zclSampleSensorEnviroment_CmdCallbacks & 0xff
        MOV       R3,#(zclSampleSensorEnviroment_CmdCallbacks >> 8) & 0xff
        MOV       R1,#0x8
        LCALL     `??zclGeneral_RegisterCmdCallbacks::?relay`; Banked call to: zclGeneral_RegisterCmdCallbacks
//  248 
//  249 
//  250   // Register the application's attribute list
//  251   zclSampleSensorEnviroment_ResetAttributesToDefaultValues();
        ; Setup parameters for call to function zclSampleSensorEnviroment_ResetAttributesToDefaultValues
        LCALL     ??zclSampleSensorEnviroment_ResetAttributesToDe; Banked call to: zclSampleSensorEnviroment_ResetAttributesToDefaultValues
//  252   zcl_registerAttrList( SAMPLESENSORENVIROMENT_ENDPOINT_MUXSENSOR, zclSampleSensorEnviroment_NumAttributes, zclSampleSensorEnviroment_Attrs );    
        ; Setup parameters for call to function zcl_registerAttrList
        MOV       R4,#zclSampleSensorEnviroment_Attrs & 0xff
        MOV       R5,#(zclSampleSensorEnviroment_Attrs >> 8) & 0xff
        MOV       DPTR,#zclSampleSensorEnviroment_NumAttributes
        CLR       A
        MOVC      A,@A+DPTR
        MOV       R2,A
        MOV       R1,#0x8
        LCALL     `??zcl_registerAttrList::?relay`; Banked call to: zcl_registerAttrList
//  253   
//  254   // Register the Application to receive the unprocessed Foundation command/response messages
//  255   zcl_registerForMsg( zclSampleSensorEnviroment_TaskID );
        ; Setup parameters for call to function zcl_registerForMsg
        MOV       DPTR,#zclSampleSensorEnviroment_TaskID
        MOVX      A,@DPTR
        MOV       R1,A
        LCALL     `??zcl_registerForMsg::?relay`; Banked call to: zcl_registerForMsg
//  256     
//  257   // Register low voltage NV memory protection application callback
//  258   RegisterVoltageWarningCB( zclSampleSensorEnviroment_BatteryWarningCB );
        ; Setup parameters for call to function RegisterVoltageWarningCB
        MOV       R2,#`??zclSampleSensorEnviroment_BatteryWarningCB::?` & 0xff
        MOV       R3,#(`??zclSampleSensorEnviroment_BatteryWarningCB::?` >> 8) & 0xff
        LCALL     `??RegisterVoltageWarningCB::?relay`; Banked call to: RegisterVoltageWarningCB
//  259   
//  260   // Register for all key events - This app will handle all key events
//  261   RegisterForKeys( zclSampleSensorEnviroment_TaskID );
        ; Setup parameters for call to function RegisterForKeys
        MOV       DPTR,#zclSampleSensorEnviroment_TaskID
        MOVX      A,@DPTR
        MOV       R1,A
        LCALL     `??RegisterForKeys::?relay`; Banked call to: RegisterForKeys
//  262   
//  263   zclSampleSensorEnviroment_UART_Init();
        MOV       DPL,?XSP + 0
        MOV       DPH,?XSP + 1
        MOV       A,#0x1
        MOVX      @DPTR,A
        LCALL     ?XSTACK_DISP0_8
        MOV       A,#0x2
        MOVX      @DPTR,A
        LCALL     ?XSTACK_DISP0_8
        CLR       A
        MOVX      @DPTR,A
        MOV       A,#0x3
        LCALL     ?XSTACK_DISP0_8
        MOV       A,#0x30
        MOVX      @DPTR,A
        INC       DPTR
        CLR       A
        MOVX      @DPTR,A
        MOV       A,#0xa
        LCALL     ?XSTACK_DISP0_8
        MOV       A,#0x4b
        MOVX      @DPTR,A
        INC       DPTR
        CLR       A
        MOVX      @DPTR,A
        MOV       A,#0x12
        LCALL     ?XSTACK_DISP0_8
        MOV       A,#0x7
        MOVX      @DPTR,A
        INC       DPTR
        CLR       A
        MOVX      @DPTR,A
        MOV       A,#0x5
        LCALL     ?XSTACK_DISP0_8
        MOV       A,#0x6
        MOVX      @DPTR,A
        MOV       A,#0x16
        LCALL     ?XSTACK_DISP0_8
        MOV       A,#0x1
        MOVX      @DPTR,A
        MOV       A,#0x1b
        LCALL     ?XSTACK_DISP0_8
        MOV       A,#`??uartEventApplicationCB::?relay` & 0xff
        MOVX      @DPTR,A
        INC       DPTR
        MOV       A,#(`??uartEventApplicationCB::?relay` >> 8) & 0xff
        MOVX      @DPTR,A
        ; Setup parameters for call to function HalUARTOpen
        MOV       R2,?XSP + 0
        MOV       R3,?XSP + 1
        MOV       R1,#0x0
        LCALL     `??HalUARTOpen::?relay`; Banked call to: HalUARTOpen
//  264    
//  265   // Register the application's config report record list
//  266   zcl_registerConfigReportRecList( SAMPLESENSORENVIROMENT_ENDPOINT_MUXSENSOR,
//  267                                    zclSampleSensorEnviroment_NumConfigReportRecs, zclSampleSensorEnviroment_ConfigReportRecs );
        ; Setup parameters for call to function zcl_registerConfigReportRecList
        MOV       R4,#zclSampleSensorEnviroment_ConfigReportRecs & 0xff
        MOV       R5,#(zclSampleSensorEnviroment_ConfigReportRecs >> 8) & 0xff
        MOV       DPTR,#zclSampleSensorEnviroment_NumConfigReportRecs
        CLR       A
        MOVC      A,@A+DPTR
        MOV       R2,A
        MOV       R1,#0x8
        LCALL     `??zcl_registerConfigReportRecList::?relay`; Banked call to: zcl_registerConfigReportRecList
//  268  
//  269   
//  270   // Register commissioning status callback
//  271   bdb_RegisterCommissioningStatusCB( zclSampleSensorEnviroment_ProcessCommissioningStatus );
        ; Setup parameters for call to function bdb_RegisterCommissioningStatusCB
        MOV       R2,#??zclSampleSensorEnviroment_ProcessCommissionin & 0xff
        MOV       R3,#(??zclSampleSensorEnviroment_ProcessCommissionin >> 8) & 0xff
        LCALL     `??bdb_RegisterCommissioningStatusCB::?relay`; Banked call to: bdb_RegisterCommissioningStatusCB
//  272   
//  273   //Register for Endpoints
//  274   afRegister( &sampleTemperatureSensor_Ep );
        ; Setup parameters for call to function afRegister
        MOV       R2,#sampleTemperatureSensor_Ep & 0xff
        MOV       R3,#(sampleTemperatureSensor_Ep >> 8) & 0xff
        LCALL     `??afRegister::?relay`; Banked call to: afRegister
//  275 
//  276   bdb_StartCommissioning( BDB_COMMISSIONING_MODE_NWK_STEERING);
        ; Setup parameters for call to function bdb_StartCommissioning
        MOV       R1,#0x2
        LCALL     `??bdb_StartCommissioning::?relay`; Banked call to: bdb_StartCommissioning
//  277   zdpExternalStateTaskID = zclSampleSensorEnviroment_TaskID;
        MOV       DPTR,#zclSampleSensorEnviroment_TaskID
        MOVX      A,@DPTR
        MOV       DPTR,#zdpExternalStateTaskID
        MOVX      @DPTR,A
        INC       DPTR
        CLR       A
        MOVX      @DPTR,A
//  278   
//  279 }
        MOV       A,#0x1d
        LCALL     ?DEALLOC_XSTACK8
          CFI EndBlock cfiBlock0
        REQUIRE ?Subroutine0
        ; // Fall through to label ?Subroutine0

        RSEG BANKED_CODE:HUGECODE:NOROOT(0)
?Subroutine0:
          CFI Block cfiBlock1 Using cfiCommon0
          CFI NoFunction
          CFI CFA_SP SP+0
          CFI CFA_XSP16 add(XSP16, 9)
          CFI VB load(1, XDATA, add(CFA_XSP16, literal(-8)))
          CFI DPL0 load(1, XDATA, add(CFA_XSP16, literal(-2)))
          CFI DPH0 load(1, XDATA, add(CFA_XSP16, literal(-1)))
          CFI R6 load(1, XDATA, add(CFA_XSP16, literal(-9)))
          CFI R7 load(1, XDATA, add(CFA_XSP16, literal(-6)))
          CFI V0 load(1, XDATA, add(CFA_XSP16, literal(-7)))
          CFI ?BRET_EXT load(1, XDATA, add(CFA_XSP16, literal(-3)))
          CFI ?RET_HIGH load(1, XDATA, add(CFA_XSP16, literal(-4)))
          CFI ?RET_LOW load(1, XDATA, add(CFA_XSP16, literal(-5)))
        MOV       R7,#0x1
        LJMP      ?BANKED_LEAVE_XDATA
          CFI EndBlock cfiBlock1
//  280 
//  281 
//  282 
//  283 /*********************************************************************
//  284  * @fn      zclSampleSensorEnviroment_LcdDisplayMainMode
//  285  *
//  286  * @brief   Called to display the main screen on the LCD.
//  287  *
//  288  * @param   none
//  289  *
//  290  * @return  none
//  291  */

        RSEG BANKED_CODE:HUGECODE:NOROOT(0)
//  292 static void zclSampleSensorEnviroment_ProcessCommissioningStatus(bdbCommissioningModeMsg_t* bdbCommissioningModeMsg)
zclSampleSensorEnviroment_ProcessCommissioningStatus:
          CFI Block cfiBlock2 Using cfiCommon0
          CFI Function zclSampleSensorEnviroment_ProcessCommissioningStatus
        CODE
//  293 {
        FUNCALL zclSampleSensorEnviroment_ProcessCommissioningStatus, bdb_StartCommissioning
        LOCFRAME ISTACK, 2, STACK
        LOCFRAME PSTACK, 0, STACK
        LOCFRAME XSTACK, 0, STACK
        LOCFRAME IOVERLAY, 0, STATIC
        LOCFRAME DOVERLAY, 0, STATIC
        ARGFRAME ISTACK, 2, STACK
        ARGFRAME PSTACK, 0, STACK
        ARGFRAME XSTACK, 0, STACK
        ARGFRAME IOVERLAY, 0, STATIC
        ARGFRAME DOVERLAY, 0, STATIC
        FUNCALL zclSampleSensorEnviroment_ProcessCommissioningStatus, HalLedBlink
        LOCFRAME ISTACK, 2, STACK
        LOCFRAME PSTACK, 0, STACK
        LOCFRAME XSTACK, 0, STACK
        LOCFRAME IOVERLAY, 0, STATIC
        LOCFRAME DOVERLAY, 0, STATIC
        ARGFRAME ISTACK, 2, STACK
        ARGFRAME PSTACK, 0, STACK
        ARGFRAME XSTACK, 0, STACK
        ARGFRAME IOVERLAY, 0, STATIC
        ARGFRAME DOVERLAY, 0, STATIC
        FUNCALL zclSampleSensorEnviroment_ProcessCommissioningStatus, zclSampleSensorEnviroment_CheckReportConfig
        LOCFRAME ISTACK, 2, STACK
        LOCFRAME PSTACK, 0, STACK
        LOCFRAME XSTACK, 0, STACK
        LOCFRAME IOVERLAY, 0, STATIC
        LOCFRAME DOVERLAY, 0, STATIC
        ARGFRAME ISTACK, 2, STACK
        ARGFRAME PSTACK, 0, STACK
        ARGFRAME XSTACK, 0, STACK
        ARGFRAME IOVERLAY, 0, STATIC
        ARGFRAME DOVERLAY, 0, STATIC
        FUNCALL zclSampleSensorEnviroment_ProcessCommissioningStatus, osal_start_timerEx
        LOCFRAME ISTACK, 2, STACK
        LOCFRAME PSTACK, 0, STACK
        LOCFRAME XSTACK, 4, STACK
        LOCFRAME IOVERLAY, 0, STATIC
        LOCFRAME DOVERLAY, 0, STATIC
        ARGFRAME ISTACK, 2, STACK
        ARGFRAME PSTACK, 0, STACK
        ARGFRAME XSTACK, 4, STACK
        ARGFRAME IOVERLAY, 0, STATIC
        ARGFRAME DOVERLAY, 0, STATIC
        PUSH      DPL
          CFI DPL0 Frame(CFA_SP, 4)
          CFI CFA_SP SP+-4
        PUSH      DPH
          CFI DPH0 Frame(CFA_SP, 5)
          CFI CFA_SP SP+-5
        ; Saved register size: 2
        ; Auto size: 0
//  294     switch(bdbCommissioningModeMsg->bdbCommissioningMode)
        MOV       DPL,R2
        MOV       DPH,R3
        INC       DPTR
        MOVX      A,@DPTR
        DEC       A
        JZ        ??zclSampleSensorEnviroment_ProcessCommissionin_1
        DEC       A
        JZ        ??zclSampleSensorEnviroment_ProcessCommissionin_2
        ADD       A,#-0x3
        JZ        ??zclSampleSensorEnviroment_ProcessCommissionin_3
        SJMP      ??zclSampleSensorEnviroment_ProcessCommissionin_4
//  295     {
//  296       case BDB_COMMISSIONING_FORMATION:
//  297         if(bdbCommissioningModeMsg->bdbCommissioningStatus == BDB_COMMISSIONING_SUCCESS)
??zclSampleSensorEnviroment_ProcessCommissionin_2:
        MOV       DPL,R2
        MOV       DPH,R3
        MOVX      A,@DPTR
        JNZ       ??zclSampleSensorEnviroment_ProcessCommissionin_4
//  298         {
//  299           //After formation, perform nwk steering again plus the remaining commissioning modes that has not been process yet
//  300           bdb_StartCommissioning(BDB_COMMISSIONING_MODE_NWK_STEERING | bdbCommissioningModeMsg->bdbRemainingCommissioningModes);
        ; Setup parameters for call to function bdb_StartCommissioning
        INC       DPTR
        INC       DPTR
        MOVX      A,@DPTR
        ORL       A,#0x2
        MOV       R1,A
        LCALL     `??bdb_StartCommissioning::?relay`; Banked call to: bdb_StartCommissioning
        SJMP      ??zclSampleSensorEnviroment_ProcessCommissionin_4
//  301         }
//  302         else
//  303         {
//  304           //Want to try other channels?
//  305           //try with bdb_setChannelAttribute
//  306         }
//  307       break;
//  308     case BDB_COMMISSIONING_NWK_STEERING:
//  309       if(bdbCommissioningModeMsg->bdbCommissioningStatus == BDB_COMMISSIONING_SUCCESS)
??zclSampleSensorEnviroment_ProcessCommissionin_1:
        MOV       DPL,R2
        MOV       DPH,R3
        MOVX      A,@DPTR
        JNZ       ??zclSampleSensorEnviroment_ProcessCommissionin_4
//  310       {
//  311         //YOUR JOB:
//  312         //We are on the nwk, what now?
//  313         HalLedBlink(HAL_LED_1, 6, 50, 200);
        ; Setup parameters for call to function HalLedBlink
        MOV       R4,#-0x38
        MOV       R5,#0x0
        MOV       R3,#0x32
        MOV       R2,#0x6
        MOV       R1,#0x1
        LCALL     `??HalLedBlink::?relay`; Banked call to: HalLedBlink
//  314         zclSampleSensorEnviroment_CheckReportConfig( );
        ; Setup parameters for call to function zclSampleSensorEnviroment_CheckReportConfig
        LCALL     `??zclSampleSensorEnviroment_CheckReportConfig::`; Banked call to: zclSampleSensorEnviroment_CheckReportConfig
        SJMP      ??zclSampleSensorEnviroment_ProcessCommissionin_4
//  315 
//  316       }
//  317         else
//  318         {
//  319           //See the possible errors for nwk steering procedure
//  320           //No suitable networks found
//  321           //Want to try other channels?
//  322           //try with bdb_setChannelAttribute
//  323             //bdb_StartCommissioning( BDB_COMMISSIONING_MODE_NWK_STEERING);
//  324 
//  325         }
//  326       break;
//  327       case BDB_COMMISSIONING_FINDING_BINDING:
//  328         if(bdbCommissioningModeMsg->bdbCommissioningStatus == BDB_COMMISSIONING_SUCCESS)
//  329         {
//  330           //YOUR JOB:
//  331         }
//  332         else
//  333         {
//  334           //YOUR JOB:
//  335           //retry?, wait for user interaction?
//  336         }
//  337       break;
//  338       case BDB_COMMISSIONING_INITIALIZATION:
//  339         //Initialization notification can only be successful. Failure on initialization 
//  340         //only happens for ZED and is notified as BDB_COMMISSIONING_PARENT_LOST notification
//  341         
//  342         //YOUR JOB:
//  343         //We are on a network, what now?
//  344         
//  345       break;
//  346 #if ZG_BUILD_ENDDEVICE_TYPE    
//  347     case BDB_COMMISSIONING_PARENT_LOST:
//  348       if(bdbCommissioningModeMsg->bdbCommissioningStatus == BDB_COMMISSIONING_NETWORK_RESTORED)
??zclSampleSensorEnviroment_ProcessCommissionin_3:
        MOV       DPL,R2
        MOV       DPH,R3
        MOVX      A,@DPTR
        XRL       A,#0xd
        JZ        ??zclSampleSensorEnviroment_ProcessCommissionin_4
//  349       {
//  350         //We did recover from losing parent
//  351       }
//  352       else
//  353       {
//  354         //Parent not found, attempt to rejoin again after a fixed delay
//  355         osal_start_timerEx(zclSampleSensorEnviroment_TaskID, SAMPLESENSORENVIROMENT_END_DEVICE_REJOIN_EVT, SAMPLESENSORENVIROMENT_END_DEVICE_REJOIN_DELAY);
        ; Setup parameters for call to function osal_start_timerEx
        MOV       DPTR,#__Constant_3e8
        LCALL     ?PUSH_XSTACK8_X_FOUR
          CFI CFA_XSP16 add(XSP16, 4)
        MOV       R2,#0x2
        MOV       R3,#0x0
        MOV       DPTR,#zclSampleSensorEnviroment_TaskID
        MOVX      A,@DPTR
        MOV       R1,A
        LCALL     `??osal_start_timerEx::?relay`; Banked call to: osal_start_timerEx
        MOV       A,#0x4
        LCALL     ?DEALLOC_XSTACK8
          CFI CFA_XSP16 XSP16+0
//  356       }
//  357     break;
//  358 #endif 
//  359     }
//  360 }
??zclSampleSensorEnviroment_ProcessCommissionin_4:
          CFI EndBlock cfiBlock2
        REQUIRE ?Subroutine1
        ; // Fall through to label ?Subroutine1

        RSEG BANKED_CODE:HUGECODE:NOROOT(0)
?Subroutine1:
          CFI Block cfiBlock3 Using cfiCommon0
          CFI NoFunction
          CFI CFA_SP SP+-5
          CFI DPL0 Frame(CFA_SP, 4)
          CFI DPH0 Frame(CFA_SP, 5)
        POP       DPH
          CFI CFA_SP SP+-4
          CFI DPH0 SameValue
        POP       DPL
          CFI CFA_SP SP+-3
          CFI DPL0 SameValue
        LJMP      ?BRET
          CFI EndBlock cfiBlock3
//  361 
//  362 /*********************************************************************
//  363  * @fn          zclSample_event_loop
//  364  *
//  365  * @brief       Event Loop Processor for zclGeneral.
//  366  *
//  367  * @param       none
//  368  *
//  369  * @return      none
//  370  */

        RSEG BANKED_CODE:HUGECODE:NOROOT(0)
//  371 uint16 zclSampleSensorEnviroment_event_loop( uint8 task_id, uint16 events )
zclSampleSensorEnviroment_event_loop:
          CFI Block cfiBlock4 Using cfiCommon0
          CFI Function zclSampleSensorEnviroment_event_loop
        CODE
//  372 {
        FUNCALL zclSampleSensorEnviroment_event_loop, bdb_ZedAttemptRecoverNwk
        LOCFRAME ISTACK, 0, STACK
        LOCFRAME PSTACK, 0, STACK
        LOCFRAME XSTACK, 12, STACK
        LOCFRAME IOVERLAY, 0, STATIC
        LOCFRAME DOVERLAY, 0, STATIC
        ARGFRAME ISTACK, 0, STACK
        ARGFRAME PSTACK, 0, STACK
        ARGFRAME XSTACK, 12, STACK
        ARGFRAME IOVERLAY, 0, STATIC
        ARGFRAME DOVERLAY, 0, STATIC
        FUNCALL zclSampleSensorEnviroment_event_loop, zclSampleSensorEnviroment_ProcessIncomingMsg
        LOCFRAME ISTACK, 0, STACK
        LOCFRAME PSTACK, 0, STACK
        LOCFRAME XSTACK, 12, STACK
        LOCFRAME IOVERLAY, 0, STATIC
        LOCFRAME DOVERLAY, 0, STATIC
        ARGFRAME ISTACK, 0, STACK
        ARGFRAME PSTACK, 0, STACK
        ARGFRAME XSTACK, 12, STACK
        ARGFRAME IOVERLAY, 0, STATIC
        ARGFRAME DOVERLAY, 0, STATIC
        FUNCALL zclSampleSensorEnviroment_event_loop, osal_msg_deallocate
        LOCFRAME ISTACK, 0, STACK
        LOCFRAME PSTACK, 0, STACK
        LOCFRAME XSTACK, 12, STACK
        LOCFRAME IOVERLAY, 0, STATIC
        LOCFRAME DOVERLAY, 0, STATIC
        ARGFRAME ISTACK, 0, STACK
        ARGFRAME PSTACK, 0, STACK
        ARGFRAME XSTACK, 12, STACK
        ARGFRAME IOVERLAY, 0, STATIC
        ARGFRAME DOVERLAY, 0, STATIC
        FUNCALL zclSampleSensorEnviroment_event_loop, osal_msg_receive
        LOCFRAME ISTACK, 0, STACK
        LOCFRAME PSTACK, 0, STACK
        LOCFRAME XSTACK, 12, STACK
        LOCFRAME IOVERLAY, 0, STATIC
        LOCFRAME DOVERLAY, 0, STATIC
        ARGFRAME ISTACK, 0, STACK
        ARGFRAME PSTACK, 0, STACK
        ARGFRAME XSTACK, 12, STACK
        ARGFRAME IOVERLAY, 0, STATIC
        ARGFRAME DOVERLAY, 0, STATIC
        FUNCALL zclSampleSensorEnviroment_event_loop, zclSampleSensorEnviroment_CheckReportConfig
        LOCFRAME ISTACK, 0, STACK
        LOCFRAME PSTACK, 0, STACK
        LOCFRAME XSTACK, 12, STACK
        LOCFRAME IOVERLAY, 0, STATIC
        LOCFRAME DOVERLAY, 0, STATIC
        ARGFRAME ISTACK, 0, STACK
        ARGFRAME PSTACK, 0, STACK
        ARGFRAME XSTACK, 12, STACK
        ARGFRAME IOVERLAY, 0, STATIC
        ARGFRAME DOVERLAY, 0, STATIC
        REQUIRE ?V0
        REQUIRE ?V1
        REQUIRE ?V2
        REQUIRE ?V3
        MOV       A,#-0xc
        LCALL     ?BANKED_ENTER_XDATA
          CFI DPH0 load(1, XDATA, add(CFA_XSP16, literal(-1)))
          CFI DPL0 load(1, XDATA, add(CFA_XSP16, literal(-2)))
          CFI ?BRET_EXT load(1, XDATA, add(CFA_XSP16, literal(-3)))
          CFI ?RET_HIGH load(1, XDATA, add(CFA_XSP16, literal(-4)))
          CFI ?RET_LOW load(1, XDATA, add(CFA_XSP16, literal(-5)))
          CFI R7 load(1, XDATA, add(CFA_XSP16, literal(-6)))
          CFI V3 load(1, XDATA, add(CFA_XSP16, literal(-7)))
          CFI V2 load(1, XDATA, add(CFA_XSP16, literal(-8)))
          CFI V1 load(1, XDATA, add(CFA_XSP16, literal(-9)))
          CFI V0 load(1, XDATA, add(CFA_XSP16, literal(-10)))
          CFI VB load(1, XDATA, add(CFA_XSP16, literal(-11)))
          CFI R6 load(1, XDATA, add(CFA_XSP16, literal(-12)))
          CFI CFA_SP SP+0
          CFI CFA_XSP16 add(XSP16, 12)
        ; Saved register size: 12
        ; Auto size: 0
        MOV       A,R2
        MOV       R6,A
        MOV       A,R3
        MOV       R7,A
//  373   afIncomingMSGPacket_t *MSGpkt;
//  374 
//  375   (void)task_id;  // Intentionally unreferenced parameter
//  376 
//  377   if ( events & SYS_EVENT_MSG )
        ANL       A,#0x80
        JNZ       ??zclSampleSensorEnviroment_event_loop_0
//  378   {
//  379     while ( (MSGpkt = (afIncomingMSGPacket_t *)osal_msg_receive( zclSampleSensorEnviroment_TaskID )) )
//  380     {
//  381       switch ( MSGpkt->hdr.event )
//  382       {
//  383         case ZCL_INCOMING_MSG:
//  384           // Incoming ZCL Foundation command/response messages
//  385           zclSampleSensorEnviroment_ProcessIncomingMsg( (zclIncomingMsg_t *)MSGpkt );
//  386           break;
//  387 
//  388         case KEY_CHANGE:
//  389           zclSampleSensorEnviroment_HandleKeys( ((keyChange_t *)MSGpkt)->state, ((keyChange_t *)MSGpkt)->keys );
//  390           break;
//  391           
//  392         case ZDO_STATE_CHANGE:
//  393           break;
//  394 
//  395         default:
//  396           break;
//  397       }
//  398 
//  399       // Release the memory
//  400       osal_msg_deallocate( (uint8 *)MSGpkt );
//  401     }
//  402     
//  403     // return unprocessed events
//  404     return (events ^ SYS_EVENT_MSG);
//  405   }
//  406   
//  407 #if ZG_BUILD_ENDDEVICE_TYPE    
//  408   if ( events & SAMPLESENSORENVIROMENT_END_DEVICE_REJOIN_EVT )
        MOV       A,R2
        ANL       A,#0x2
        JZ        ??zclSampleSensorEnviroment_event_loop_1
//  409   {
//  410     bdb_ZedAttemptRecoverNwk();
        ; Setup parameters for call to function bdb_ZedAttemptRecoverNwk
        LCALL     `??bdb_ZedAttemptRecoverNwk::?relay`; Banked call to: bdb_ZedAttemptRecoverNwk
//  411     return ( events ^ SAMPLESENSORENVIROMENT_END_DEVICE_REJOIN_EVT );
        MOV       A,R6
        XRL       A,#0x2
        SJMP      ??zclSampleSensorEnviroment_event_loop_2
//  412   }
??zclSampleSensorEnviroment_event_loop_3:
        MOV       DPL,R2
        MOV       DPH,R3
        MOVX      A,@DPTR
        XRL       A,#0x34
        JNZ       ??zclSampleSensorEnviroment_event_loop_4
        ; Setup parameters for call to function zclSampleSensorEnviroment_ProcessIncomingMsg
        LCALL     `??zclSampleSensorEnviroment_ProcessIncomingMsg:`; Banked call to: zclSampleSensorEnviroment_ProcessIncomingMsg
??zclSampleSensorEnviroment_event_loop_4:
        ; Setup parameters for call to function osal_msg_deallocate
        MOV       R2,?V0
        MOV       R3,?V1
        LCALL     `??osal_msg_deallocate::?relay`; Banked call to: osal_msg_deallocate
??zclSampleSensorEnviroment_event_loop_0:
        ; Setup parameters for call to function osal_msg_receive
        MOV       DPTR,#zclSampleSensorEnviroment_TaskID
        MOVX      A,@DPTR
        MOV       R1,A
        LCALL     `??osal_msg_receive::?relay`; Banked call to: osal_msg_receive
        MOV       ?V0,R2
        MOV       ?V1,R3
        MOV       A,R2
        ORL       A,R3
        JNZ       ??zclSampleSensorEnviroment_event_loop_3
        MOV       A,R6
        MOV       R2,A
        MOV       A,R7
        XRL       A,#0x80
        SJMP      ??zclSampleSensorEnviroment_event_loop_5
//  413 #endif
//  414   
//  415     if ( events & SAMPLESENSORENVIROMENT_CHECK_REPORT__EVT )
??zclSampleSensorEnviroment_event_loop_1:
        MOV       A,R2
        ANL       A,#0x4
        JZ        ??zclSampleSensorEnviroment_event_loop_6
//  416   {
//  417     zclSampleSensorEnviroment_CheckReportConfig();
        ; Setup parameters for call to function zclSampleSensorEnviroment_CheckReportConfig
        LCALL     `??zclSampleSensorEnviroment_CheckReportConfig::`; Banked call to: zclSampleSensorEnviroment_CheckReportConfig
//  418     return ( events ^ SAMPLESENSORENVIROMENT_CHECK_REPORT__EVT );
        MOV       A,R6
        XRL       A,#0x4
??zclSampleSensorEnviroment_event_loop_2:
        MOV       R2,A
        MOV       A,R7
??zclSampleSensorEnviroment_event_loop_5:
        MOV       R3,A
        SJMP      ??zclSampleSensorEnviroment_event_loop_7
//  419   }
//  420   
//  421   // Discard unknown events
//  422   return 0;
??zclSampleSensorEnviroment_event_loop_6:
        MOV       R2,#0x0
        MOV       R3,#0x0
??zclSampleSensorEnviroment_event_loop_7:
        SJMP      ??Subroutine40_0
//  423 }
          CFI EndBlock cfiBlock4

        RSEG BANKED_CODE:HUGECODE:NOROOT(0)
?Subroutine2:
          CFI Block cfiBlock5 Using cfiCommon0
          CFI NoFunction
          CFI CFA_SP SP+0
          CFI CFA_XSP16 add(XSP16, 25)
          CFI VB load(1, XDATA, add(CFA_XSP16, literal(-11)))
          CFI DPL0 load(1, XDATA, add(CFA_XSP16, literal(-2)))
          CFI DPH0 load(1, XDATA, add(CFA_XSP16, literal(-1)))
          CFI R6 load(1, XDATA, add(CFA_XSP16, literal(-12)))
          CFI R7 load(1, XDATA, add(CFA_XSP16, literal(-6)))
          CFI V0 load(1, XDATA, add(CFA_XSP16, literal(-10)))
          CFI V1 load(1, XDATA, add(CFA_XSP16, literal(-9)))
          CFI V2 load(1, XDATA, add(CFA_XSP16, literal(-8)))
          CFI V3 load(1, XDATA, add(CFA_XSP16, literal(-7)))
          CFI ?BRET_EXT load(1, XDATA, add(CFA_XSP16, literal(-3)))
          CFI ?RET_HIGH load(1, XDATA, add(CFA_XSP16, literal(-4)))
          CFI ?RET_LOW load(1, XDATA, add(CFA_XSP16, literal(-5)))
          CFI Invalid
        LCALL     ?DEALLOC_XSTACK8
          CFI EndBlock cfiBlock5
        REQUIRE ??Subroutine40_0
        ; // Fall through to label ??Subroutine40_0

        RSEG BANKED_CODE:HUGECODE:NOROOT(0)
??Subroutine40_0:
          CFI Block cfiBlock6 Using cfiCommon0
          CFI NoFunction
          CFI CFA_SP SP+0
          CFI CFA_XSP16 add(XSP16, 12)
          CFI VB load(1, XDATA, add(CFA_XSP16, literal(-11)))
          CFI DPL0 load(1, XDATA, add(CFA_XSP16, literal(-2)))
          CFI DPH0 load(1, XDATA, add(CFA_XSP16, literal(-1)))
          CFI R6 load(1, XDATA, add(CFA_XSP16, literal(-12)))
          CFI R7 load(1, XDATA, add(CFA_XSP16, literal(-6)))
          CFI V0 load(1, XDATA, add(CFA_XSP16, literal(-10)))
          CFI V1 load(1, XDATA, add(CFA_XSP16, literal(-9)))
          CFI V2 load(1, XDATA, add(CFA_XSP16, literal(-8)))
          CFI V3 load(1, XDATA, add(CFA_XSP16, literal(-7)))
          CFI ?BRET_EXT load(1, XDATA, add(CFA_XSP16, literal(-3)))
          CFI ?RET_HIGH load(1, XDATA, add(CFA_XSP16, literal(-4)))
          CFI ?RET_LOW load(1, XDATA, add(CFA_XSP16, literal(-5)))
        MOV       R7,#0x4
        LJMP      ?BANKED_LEAVE_XDATA
          CFI EndBlock cfiBlock6
//  424 
//  425 /*********************************************************************
//  426  * @fn      zclSampleSensorEnviroment_BasicResetCB
//  427  *
//  428  * @brief   Callback from the ZCL General Cluster Library
//  429  *          to set all the Basic Cluster attributes to default values.
//  430  *
//  431  * @param   none
//  432  *
//  433  * @return  none
//  434  */

        RSEG BANKED_CODE:HUGECODE:NOROOT(0)
//  435 static void zclSampleSensorEnviroment_BasicResetCB( void )
zclSampleSensorEnviroment_BasicResetCB:
          CFI Block cfiBlock7 Using cfiCommon0
          CFI Function zclSampleSensorEnviroment_BasicResetCB
        CODE
//  436 {
        FUNCALL zclSampleSensorEnviroment_BasicResetCB, zclSampleSensorEnviroment_ResetAttributesToDefaultValues
        LOCFRAME ISTACK, 2, STACK
        LOCFRAME PSTACK, 0, STACK
        LOCFRAME XSTACK, 0, STACK
        LOCFRAME IOVERLAY, 0, STATIC
        LOCFRAME DOVERLAY, 0, STATIC
        ARGFRAME ISTACK, 2, STACK
        ARGFRAME PSTACK, 0, STACK
        ARGFRAME XSTACK, 0, STACK
        ARGFRAME IOVERLAY, 0, STATIC
        ARGFRAME DOVERLAY, 0, STATIC
        PUSH      DPL
          CFI DPL0 Frame(CFA_SP, 4)
          CFI CFA_SP SP+-4
        PUSH      DPH
          CFI DPH0 Frame(CFA_SP, 5)
          CFI CFA_SP SP+-5
        ; Saved register size: 2
        ; Auto size: 0
//  437   zclSampleSensorEnviroment_ResetAttributesToDefaultValues();
        ; Setup parameters for call to function zclSampleSensorEnviroment_ResetAttributesToDefaultValues
        LCALL     ??zclSampleSensorEnviroment_ResetAttributesToDe; Banked call to: zclSampleSensorEnviroment_ResetAttributesToDefaultValues
//  438 }
        SJMP      ?Subroutine1
          CFI EndBlock cfiBlock7
//  439 
//  440 /*********************************************************************
//  441  * @fn      zclSampleSensorEnviroment_BatteryWarningCB
//  442  *
//  443  * @brief   Called to handle battery-low situation.
//  444  *
//  445  * @param   voltLevel - level of severity
//  446  *
//  447  * @return  none
//  448  */

        RSEG BANKED_CODE:HUGECODE:NOROOT(0)
//  449 void zclSampleSensorEnviroment_BatteryWarningCB( uint8 voltLevel )
zclSampleSensorEnviroment_BatteryWarningCB:
          CFI Block cfiBlock8 Using cfiCommon0
          CFI Function zclSampleSensorEnviroment_BatteryWarningCB
        CODE
//  450 {
        ; Saved register size: 0
        ; Auto size: 0
//  451   if ( voltLevel == VOLT_LEVEL_CAUTIOUS )
//  452   {
//  453     // Send warning message to the gateway and blink LED
//  454   }
//  455   else if ( voltLevel == VOLT_LEVEL_BAD )
//  456   {
//  457     // Shut down the system
//  458   }
//  459 }
        LJMP      ?BRET
          CFI EndBlock cfiBlock8
//  460 
//  461 /******************************************************************************
//  462  *
//  463  *  Functions for processing ZCL Foundation incoming Command/Response messages
//  464  *
//  465  *****************************************************************************/
//  466 
//  467 /*********************************************************************
//  468  * @fn      zclSampleSensorEnviroment_ProcessIncomingMsg
//  469  *
//  470  * @brief   Process ZCL Foundation incoming message
//  471  *
//  472  * @param   pInMsg - pointer to the received message
//  473  *
//  474  * @return  none
//  475  */

        RSEG BANKED_CODE:HUGECODE:NOROOT(0)
//  476 static void zclSampleSensorEnviroment_ProcessIncomingMsg( zclIncomingMsg_t *pInMsg)
zclSampleSensorEnviroment_ProcessIncomingMsg:
          CFI Block cfiBlock9 Using cfiCommon0
          CFI Function zclSampleSensorEnviroment_ProcessIncomingMsg
        CODE
//  477 {
        FUNCALL zclSampleSensorEnviroment_ProcessIncomingMsg, zclSampleSensorEnviroment_ProcessInConfigReportCmd
        LOCFRAME ISTACK, 0, STACK
        LOCFRAME PSTACK, 0, STACK
        LOCFRAME XSTACK, 9, STACK
        LOCFRAME IOVERLAY, 0, STATIC
        LOCFRAME DOVERLAY, 0, STATIC
        ARGFRAME ISTACK, 0, STACK
        ARGFRAME PSTACK, 0, STACK
        ARGFRAME XSTACK, 9, STACK
        ARGFRAME IOVERLAY, 0, STATIC
        ARGFRAME DOVERLAY, 0, STATIC
        FUNCALL zclSampleSensorEnviroment_ProcessIncomingMsg, zclSampleSensorEnviroment_ProcessInReadReportCfgCmd
        LOCFRAME ISTACK, 0, STACK
        LOCFRAME PSTACK, 0, STACK
        LOCFRAME XSTACK, 9, STACK
        LOCFRAME IOVERLAY, 0, STATIC
        LOCFRAME DOVERLAY, 0, STATIC
        ARGFRAME ISTACK, 0, STACK
        ARGFRAME PSTACK, 0, STACK
        ARGFRAME XSTACK, 9, STACK
        ARGFRAME IOVERLAY, 0, STATIC
        ARGFRAME DOVERLAY, 0, STATIC
        FUNCALL zclSampleSensorEnviroment_ProcessIncomingMsg, zclSampleSensorEnviroment_ProcessInReportCmd
        LOCFRAME ISTACK, 0, STACK
        LOCFRAME PSTACK, 0, STACK
        LOCFRAME XSTACK, 9, STACK
        LOCFRAME IOVERLAY, 0, STATIC
        LOCFRAME DOVERLAY, 0, STATIC
        ARGFRAME ISTACK, 0, STACK
        ARGFRAME PSTACK, 0, STACK
        ARGFRAME XSTACK, 9, STACK
        ARGFRAME IOVERLAY, 0, STATIC
        ARGFRAME DOVERLAY, 0, STATIC
        FUNCALL zclSampleSensorEnviroment_ProcessIncomingMsg, zclSampleSensorEnviroment_ProcessInDiscCmdsRspCmd
        LOCFRAME ISTACK, 0, STACK
        LOCFRAME PSTACK, 0, STACK
        LOCFRAME XSTACK, 9, STACK
        LOCFRAME IOVERLAY, 0, STATIC
        LOCFRAME DOVERLAY, 0, STATIC
        ARGFRAME ISTACK, 0, STACK
        ARGFRAME PSTACK, 0, STACK
        ARGFRAME XSTACK, 9, STACK
        ARGFRAME IOVERLAY, 0, STATIC
        ARGFRAME DOVERLAY, 0, STATIC
        FUNCALL zclSampleSensorEnviroment_ProcessIncomingMsg, zclSampleSensorEnviroment_ProcessInDiscCmdsRspCmd
        LOCFRAME ISTACK, 0, STACK
        LOCFRAME PSTACK, 0, STACK
        LOCFRAME XSTACK, 9, STACK
        LOCFRAME IOVERLAY, 0, STATIC
        LOCFRAME DOVERLAY, 0, STATIC
        ARGFRAME ISTACK, 0, STACK
        ARGFRAME PSTACK, 0, STACK
        ARGFRAME XSTACK, 9, STACK
        ARGFRAME IOVERLAY, 0, STATIC
        ARGFRAME DOVERLAY, 0, STATIC
        FUNCALL zclSampleSensorEnviroment_ProcessIncomingMsg, osal_mem_free
        LOCFRAME ISTACK, 0, STACK
        LOCFRAME PSTACK, 0, STACK
        LOCFRAME XSTACK, 9, STACK
        LOCFRAME IOVERLAY, 0, STATIC
        LOCFRAME DOVERLAY, 0, STATIC
        ARGFRAME ISTACK, 0, STACK
        ARGFRAME PSTACK, 0, STACK
        ARGFRAME XSTACK, 9, STACK
        ARGFRAME IOVERLAY, 0, STATIC
        ARGFRAME DOVERLAY, 0, STATIC
        MOV       A,#-0x9
        LCALL     ?BANKED_ENTER_XDATA
          CFI DPH0 load(1, XDATA, add(CFA_XSP16, literal(-1)))
          CFI DPL0 load(1, XDATA, add(CFA_XSP16, literal(-2)))
          CFI ?BRET_EXT load(1, XDATA, add(CFA_XSP16, literal(-3)))
          CFI ?RET_HIGH load(1, XDATA, add(CFA_XSP16, literal(-4)))
          CFI ?RET_LOW load(1, XDATA, add(CFA_XSP16, literal(-5)))
          CFI R7 load(1, XDATA, add(CFA_XSP16, literal(-6)))
          CFI V0 load(1, XDATA, add(CFA_XSP16, literal(-7)))
          CFI VB load(1, XDATA, add(CFA_XSP16, literal(-8)))
          CFI R6 load(1, XDATA, add(CFA_XSP16, literal(-9)))
          CFI CFA_SP SP+0
          CFI CFA_XSP16 add(XSP16, 9)
        ; Saved register size: 9
        ; Auto size: 0
//  478   switch ( pInMsg->zclHdr.commandID )
        MOV       A,R2
        ADD       A,#0x17
        MOV       R0,A
        CLR       A
        ADDC      A,R3
        MOV       R1,A
        MOV       A,R0
        MOV       R6,A
        MOV       A,R1
        MOV       R7,A
        MOV       DPL,R2
        MOV       DPH,R3
        INC       DPTR
        INC       DPTR
        INC       DPTR
        INC       DPTR
        INC       DPTR
        INC       DPTR
        INC       DPTR
        MOVX      A,@DPTR
        DEC       A
        JZ        ??zclSampleSensorEnviroment_ProcessIncomingMsg_0
        ADD       A,#-0x3
        JZ        ??zclSampleSensorEnviroment_ProcessIncomingMsg_1
        ADD       A,#-0x2
        JZ        ??zclSampleSensorEnviroment_ProcessIncomingMsg_2
        ADD       A,#-0x2
        JZ        ??zclSampleSensorEnviroment_ProcessIncomingMsg_3
        ADD       A,#-0x2
        JZ        ??zclSampleSensorEnviroment_ProcessIncomingMsg_4
        ADD       A,#-0x3
        JZ        ??zclSampleSensorEnviroment_ProcessIncomingMsg_5
        ADD       A,#-0x5
        JZ        ??zclSampleSensorEnviroment_ProcessIncomingMsg_6
        ADD       A,#-0x2
        JZ        ??zclSampleSensorEnviroment_ProcessIncomingMsg_6
        ADD       A,#-0x2
        JZ        ??zclSampleSensorEnviroment_ProcessIncomingMsg_7
        SJMP      ??zclSampleSensorEnviroment_ProcessIncomingMsg_8
//  479   {
//  480 #ifdef ZCL_READ
//  481     case ZCL_CMD_READ_RSP:
//  482       zclSampleSensorEnviroment_ProcessInReadRspCmd( pInMsg );
??zclSampleSensorEnviroment_ProcessIncomingMsg_0:
        LCALL     ?Subroutine21 & 0xFFFF
??CrossCallReturnLabel_23:
        MOVX      A,@DPTR
        MOV       R1,A
        MOV       A,R0
        CLR       C
        SUBB      A,R1
        JNC       ??zclSampleSensorEnviroment_ProcessIncomingMsg_8
        INC       R0
        SJMP      ??CrossCallReturnLabel_23
//  483       break;
//  484 #endif
//  485 #ifdef ZCL_WRITE
//  486     case ZCL_CMD_WRITE_RSP:
//  487       zclSampleSensorEnviroment_ProcessInWriteRspCmd( pInMsg );
??zclSampleSensorEnviroment_ProcessIncomingMsg_1:
        LCALL     ?Subroutine21 & 0xFFFF
??CrossCallReturnLabel_24:
        MOVX      A,@DPTR
        MOV       R1,A
        MOV       A,R0
        CLR       C
        SUBB      A,R1
        JNC       ??zclSampleSensorEnviroment_ProcessIncomingMsg_8
        INC       R0
        SJMP      ??CrossCallReturnLabel_24
//  488       break;
//  489 #endif
//  490 #ifdef ZCL_REPORT
//  491     // See ZCL Test Applicaiton (zcl_testapp.c) for sample code on Attribute Reporting
//  492     case ZCL_CMD_CONFIG_REPORT:
//  493       zclSampleSensorEnviroment_ProcessInConfigReportCmd( pInMsg );
??zclSampleSensorEnviroment_ProcessIncomingMsg_2:
        ; Setup parameters for call to function zclSampleSensorEnviroment_ProcessInConfigReportCmd
        LCALL     ??zclSampleSensorEnviroment_ProcessInConfigRepo; Banked call to: zclSampleSensorEnviroment_ProcessInConfigReportCmd
//  494       break;
        SJMP      ??zclSampleSensorEnviroment_ProcessIncomingMsg_8
//  495       case ZCL_CMD_READ_REPORT_CFG:
//  496       zclSampleSensorEnviroment_ProcessInReadReportCfgCmd( pInMsg );
??zclSampleSensorEnviroment_ProcessIncomingMsg_3:
        ; Setup parameters for call to function zclSampleSensorEnviroment_ProcessInReadReportCfgCmd
        LCALL     ??zclSampleSensorEnviroment_ProcessInReadReport; Banked call to: zclSampleSensorEnviroment_ProcessInReadReportCfgCmd
//  497       break;
        SJMP      ??zclSampleSensorEnviroment_ProcessIncomingMsg_8
//  498     case ZCL_CMD_CONFIG_REPORT_RSP:
//  499       //zclSampleSensorEnviroment_ProcessInConfigReportRspCmd( pInMsg );
//  500       break;
//  501     case ZCL_CMD_READ_REPORT_CFG_RSP:
//  502       //zclSampleSensorEnviroment_ProcessInReadReportCfgRspCmd( pInMsg );
//  503       break;
//  504 
//  505     case ZCL_CMD_REPORT:
//  506       zclSampleSensorEnviroment_ProcessInReportCmd( pInMsg );
??zclSampleSensorEnviroment_ProcessIncomingMsg_4:
        ; Setup parameters for call to function zclSampleSensorEnviroment_ProcessInReportCmd
        LCALL     `??zclSampleSensorEnviroment_ProcessInReportCmd:`; Banked call to: zclSampleSensorEnviroment_ProcessInReportCmd
//  507       break;
        SJMP      ??zclSampleSensorEnviroment_ProcessIncomingMsg_8
//  508 #endif
//  509     case ZCL_CMD_DEFAULT_RSP:
//  510       zclSampleSensorEnviroment_ProcessInDefaultRspCmd( pInMsg );
//  511       break;
//  512 #ifdef ZCL_DISCOVER
//  513     case ZCL_CMD_DISCOVER_CMDS_RECEIVED_RSP:
//  514       zclSampleSensorEnviroment_ProcessInDiscCmdsRspCmd( pInMsg );
??zclSampleSensorEnviroment_ProcessIncomingMsg_6:
        ; Setup parameters for call to function zclSampleSensorEnviroment_ProcessInDiscCmdsRspCmd
//  515       break;
//  516 
//  517     case ZCL_CMD_DISCOVER_CMDS_GEN_RSP:
//  518       zclSampleSensorEnviroment_ProcessInDiscCmdsRspCmd( pInMsg );
        ; Setup parameters for call to function zclSampleSensorEnviroment_ProcessInDiscCmdsRspCmd
        LCALL     ??zclSampleSensorEnviroment_ProcessInDiscCmdsRs; Banked call to: zclSampleSensorEnviroment_ProcessInDiscCmdsRspCmd
//  519       break;
        SJMP      ??zclSampleSensorEnviroment_ProcessIncomingMsg_8
//  520 
//  521     case ZCL_CMD_DISCOVER_ATTRS_RSP:
//  522       zclSampleSensorEnviroment_ProcessInDiscAttrsRspCmd( pInMsg );
??zclSampleSensorEnviroment_ProcessIncomingMsg_5:
        LCALL     ?Subroutine18 & 0xFFFF
??CrossCallReturnLabel_49:
        MOV       DPL,R0
        MOV       DPH,R1
        INC       DPTR
        MOVX      A,@DPTR
        MOV       R3,A
        MOV       A,R2
        CLR       C
        SUBB      A,R3
        JNC       ??zclSampleSensorEnviroment_ProcessIncomingMsg_8
        INC       R2
        SJMP      ??CrossCallReturnLabel_49
//  523       break;
//  524 
//  525     case ZCL_CMD_DISCOVER_ATTRS_EXT_RSP:
//  526       zclSampleSensorEnviroment_ProcessInDiscAttrsExtRspCmd( pInMsg );
??zclSampleSensorEnviroment_ProcessIncomingMsg_7:
        LCALL     ?Subroutine18 & 0xFFFF
//  527       break;
//  528 #endif
//  529     default:
//  530       break;
//  531   }
??CrossCallReturnLabel_50:
        SJMP      ??zclSampleSensorEnviroment_ProcessIncomingMsg_9
??zclSampleSensorEnviroment_ProcessIncomingMsg_10:
        INC       R2
??zclSampleSensorEnviroment_ProcessIncomingMsg_9:
        MOV       DPL,R0
        MOV       DPH,R1
        INC       DPTR
        MOVX      A,@DPTR
        MOV       R3,A
        MOV       A,R2
        CLR       C
        SUBB      A,R3
        JC        ??zclSampleSensorEnviroment_ProcessIncomingMsg_10
//  532 
//  533   if ( pInMsg->attrCmd )
??zclSampleSensorEnviroment_ProcessIncomingMsg_8:
        MOV       DPL,R6
        MOV       DPH,R7
        LCALL     ??Subroutine42_0 & 0xFFFF
??CrossCallReturnLabel_51:
        MOV       A,R2
        ORL       A,R3
        JZ        ??zclSampleSensorEnviroment_ProcessIncomingMsg_11
//  534   {
//  535     osal_mem_free( pInMsg->attrCmd );
        ; Setup parameters for call to function osal_mem_free
        LCALL     `??osal_mem_free::?relay`; Banked call to: osal_mem_free
//  536   }
//  537 }
??zclSampleSensorEnviroment_ProcessIncomingMsg_11:
        LJMP      ?Subroutine0 & 0xFFFF
          CFI EndBlock cfiBlock9

        RSEG BANKED_CODE:HUGECODE:NOROOT(0)
?Subroutine21:
          CFI Block cfiCond10 Using cfiCommon0
          CFI Function zclSampleSensorEnviroment_ProcessIncomingMsg
          CFI Conditional ??CrossCallReturnLabel_23
          CFI R6 load(1, XDATA, add(CFA_XSP16, literal(-9)))
          CFI VB load(1, XDATA, add(CFA_XSP16, literal(-8)))
          CFI V0 load(1, XDATA, add(CFA_XSP16, literal(-7)))
          CFI R7 load(1, XDATA, add(CFA_XSP16, literal(-6)))
          CFI ?RET_LOW load(1, XDATA, add(CFA_XSP16, literal(-5)))
          CFI ?RET_HIGH load(1, XDATA, add(CFA_XSP16, literal(-4)))
          CFI ?BRET_EXT load(1, XDATA, add(CFA_XSP16, literal(-3)))
          CFI DPL0 load(1, XDATA, add(CFA_XSP16, literal(-2)))
          CFI DPH0 load(1, XDATA, add(CFA_XSP16, literal(-1)))
          CFI CFA_SP SP+-2
          CFI CFA_XSP16 add(XSP16, 9)
          CFI Block cfiCond11 Using cfiCommon0
          CFI (cfiCond11) Function zclSampleSensorEnviroment_ProcessIncomingMsg
          CFI (cfiCond11) Conditional ??CrossCallReturnLabel_24
          CFI (cfiCond11) R6 load(1, XDATA, add(CFA_XSP16, literal(-9)))
          CFI (cfiCond11) VB load(1, XDATA, add(CFA_XSP16, literal(-8)))
          CFI (cfiCond11) V0 load(1, XDATA, add(CFA_XSP16, literal(-7)))
          CFI (cfiCond11) R7 load(1, XDATA, add(CFA_XSP16, literal(-6)))
          CFI (cfiCond11) ?RET_LOW load(1, XDATA, add(CFA_XSP16, literal(-5)))
          CFI (cfiCond11) ?RET_HIGH load(1, XDATA, add(CFA_XSP16, literal(-4)))
          CFI (cfiCond11) ?BRET_EXT load(1, XDATA, add(CFA_XSP16, literal(-3)))
          CFI (cfiCond11) DPL0 load(1, XDATA, add(CFA_XSP16, literal(-2)))
          CFI (cfiCond11) DPH0 load(1, XDATA, add(CFA_XSP16, literal(-1)))
          CFI (cfiCond11) CFA_SP SP+-2
          CFI (cfiCond11) CFA_XSP16 add(XSP16, 9)
          CFI Block cfiPicker12 Using cfiCommon1
          CFI (cfiPicker12) NoFunction
          CFI (cfiPicker12) Picker
        MOV       DPL,R0
        MOV       DPH,R1
        LCALL     ??Subroutine55_0 & 0xFFFF
??CrossCallReturnLabel_110:
        MOV       DPL,R0
        MOV       DPH,A
        MOV       R0,#0x0
        RET
          CFI EndBlock cfiCond10
          CFI EndBlock cfiCond11
          CFI EndBlock cfiPicker12

        RSEG BANKED_CODE:HUGECODE:NOROOT(0)
?Subroutine18:
          CFI Block cfiCond13 Using cfiCommon0
          CFI Function zclSampleSensorEnviroment_ProcessIncomingMsg
          CFI Conditional ??CrossCallReturnLabel_49
          CFI R6 load(1, XDATA, add(CFA_XSP16, literal(-9)))
          CFI VB load(1, XDATA, add(CFA_XSP16, literal(-8)))
          CFI V0 load(1, XDATA, add(CFA_XSP16, literal(-7)))
          CFI R7 load(1, XDATA, add(CFA_XSP16, literal(-6)))
          CFI ?RET_LOW load(1, XDATA, add(CFA_XSP16, literal(-5)))
          CFI ?RET_HIGH load(1, XDATA, add(CFA_XSP16, literal(-4)))
          CFI ?BRET_EXT load(1, XDATA, add(CFA_XSP16, literal(-3)))
          CFI DPL0 load(1, XDATA, add(CFA_XSP16, literal(-2)))
          CFI DPH0 load(1, XDATA, add(CFA_XSP16, literal(-1)))
          CFI CFA_SP SP+-2
          CFI CFA_XSP16 add(XSP16, 9)
          CFI Block cfiCond14 Using cfiCommon0
          CFI (cfiCond14) Function zclSampleSensorEnviroment_ProcessIncomingMsg
          CFI (cfiCond14) Conditional ??CrossCallReturnLabel_50
          CFI (cfiCond14) R6 load(1, XDATA, add(CFA_XSP16, literal(-9)))
          CFI (cfiCond14) VB load(1, XDATA, add(CFA_XSP16, literal(-8)))
          CFI (cfiCond14) V0 load(1, XDATA, add(CFA_XSP16, literal(-7)))
          CFI (cfiCond14) R7 load(1, XDATA, add(CFA_XSP16, literal(-6)))
          CFI (cfiCond14) ?RET_LOW load(1, XDATA, add(CFA_XSP16, literal(-5)))
          CFI (cfiCond14) ?RET_HIGH load(1, XDATA, add(CFA_XSP16, literal(-4)))
          CFI (cfiCond14) ?BRET_EXT load(1, XDATA, add(CFA_XSP16, literal(-3)))
          CFI (cfiCond14) DPL0 load(1, XDATA, add(CFA_XSP16, literal(-2)))
          CFI (cfiCond14) DPH0 load(1, XDATA, add(CFA_XSP16, literal(-1)))
          CFI (cfiCond14) CFA_SP SP+-2
          CFI (cfiCond14) CFA_XSP16 add(XSP16, 9)
          CFI Block cfiPicker15 Using cfiCommon1
          CFI (cfiPicker15) NoFunction
          CFI (cfiPicker15) Picker
        MOV       DPL,R0
        MOV       DPH,R1
          CFI EndBlock cfiCond13
          CFI EndBlock cfiCond14
          CFI EndBlock cfiPicker15
        REQUIRE ??Subroutine41_0
        ; // Fall through to label ??Subroutine41_0

        RSEG BANKED_CODE:HUGECODE:NOROOT(0)
??Subroutine41_0:
          CFI Block cfiCond16 Using cfiCommon0
          CFI Function zclSampleSensorEnviroment_ProcessInDiscCmdsRspCmd
          CFI Conditional ??CrossCallReturnLabel_48
          CFI DPL0 Frame(CFA_SP, 4)
          CFI DPH0 Frame(CFA_SP, 5)
          CFI CFA_SP SP+-7
          CFI Block cfiCond17 Using cfiCommon0
          CFI (cfiCond17) Function zclSampleSensorEnviroment_ProcessIncomingMsg
          CFI (cfiCond17) Conditional ??CrossCallReturnLabel_49
          CFI (cfiCond17) R6 load(1, XDATA, add(CFA_XSP16, literal(-9)))
          CFI (cfiCond17) VB load(1, XDATA, add(CFA_XSP16, literal(-8)))
          CFI (cfiCond17) V0 load(1, XDATA, add(CFA_XSP16, literal(-7)))
          CFI (cfiCond17) R7 load(1, XDATA, add(CFA_XSP16, literal(-6)))
          CFI (cfiCond17) ?RET_LOW load(1, XDATA, add(CFA_XSP16, literal(-5)))
          CFI (cfiCond17) ?RET_HIGH load(1, XDATA, add(CFA_XSP16, literal(-4)))
          CFI (cfiCond17) ?BRET_EXT load(1, XDATA, add(CFA_XSP16, literal(-3)))
          CFI (cfiCond17) DPL0 load(1, XDATA, add(CFA_XSP16, literal(-2)))
          CFI (cfiCond17) DPH0 load(1, XDATA, add(CFA_XSP16, literal(-1)))
          CFI (cfiCond17) CFA_SP SP+-2
          CFI (cfiCond17) CFA_XSP16 add(XSP16, 9)
          CFI Block cfiCond18 Using cfiCommon0
          CFI (cfiCond18) Function zclSampleSensorEnviroment_ProcessIncomingMsg
          CFI (cfiCond18) Conditional ??CrossCallReturnLabel_50
          CFI (cfiCond18) R6 load(1, XDATA, add(CFA_XSP16, literal(-9)))
          CFI (cfiCond18) VB load(1, XDATA, add(CFA_XSP16, literal(-8)))
          CFI (cfiCond18) V0 load(1, XDATA, add(CFA_XSP16, literal(-7)))
          CFI (cfiCond18) R7 load(1, XDATA, add(CFA_XSP16, literal(-6)))
          CFI (cfiCond18) ?RET_LOW load(1, XDATA, add(CFA_XSP16, literal(-5)))
          CFI (cfiCond18) ?RET_HIGH load(1, XDATA, add(CFA_XSP16, literal(-4)))
          CFI (cfiCond18) ?BRET_EXT load(1, XDATA, add(CFA_XSP16, literal(-3)))
          CFI (cfiCond18) DPL0 load(1, XDATA, add(CFA_XSP16, literal(-2)))
          CFI (cfiCond18) DPH0 load(1, XDATA, add(CFA_XSP16, literal(-1)))
          CFI (cfiCond18) CFA_SP SP+-2
          CFI (cfiCond18) CFA_XSP16 add(XSP16, 9)
          CFI Block cfiPicker19 Using cfiCommon1
          CFI (cfiPicker19) NoFunction
          CFI (cfiPicker19) Picker
        LCALL     ?Subroutine34 & 0xFFFF
??CrossCallReturnLabel_74:
        MOV       R2,#0x0
        RET
          CFI EndBlock cfiCond16
          CFI EndBlock cfiCond17
          CFI EndBlock cfiCond18
          CFI EndBlock cfiPicker19
//  538 
//  539 #ifdef ZCL_READ
//  540 /*********************************************************************
//  541  * @fn      zclSampleSensorEnviroment_ProcessInReadRspCmd
//  542  *
//  543  * @brief   Process the "Profile" Read Response Command
//  544  *
//  545  * @param   pInMsg - incoming message to process
//  546  *
//  547  * @return  none
//  548  */
//  549 static uint8 zclSampleSensorEnviroment_ProcessInReadRspCmd( zclIncomingMsg_t *pInMsg )
//  550 {
//  551   zclReadRspCmd_t *readRspCmd;
//  552   uint8 i;
//  553 
//  554   readRspCmd = (zclReadRspCmd_t *)pInMsg->attrCmd;
//  555   for ( i = 0; i < readRspCmd->numAttr; i++ )
//  556   {
//  557     // Notify the originator of the results of the original read attributes
//  558     // attempt and, for each successfull request, the value of the requested
//  559     // attribute
//  560   }
//  561 
//  562   return ( TRUE );
//  563 }
//  564 #endif // ZCL_READ
//  565 
//  566 #ifdef ZCL_WRITE
//  567 /*********************************************************************
//  568  * @fn      zclSampleSensorEnviroment_ProcessInWriteRspCmd
//  569  *
//  570  * @brief   Process the "Profile" Write Response Command
//  571  *
//  572  * @param   pInMsg - incoming message to process
//  573  *
//  574  * @return  none
//  575  */
//  576 static uint8 zclSampleSensorEnviroment_ProcessInWriteRspCmd( zclIncomingMsg_t *pInMsg )
//  577 {
//  578   zclWriteRspCmd_t *writeRspCmd;
//  579   uint8 i;
//  580 
//  581   writeRspCmd = (zclWriteRspCmd_t *)pInMsg->attrCmd;
//  582   for ( i = 0; i < writeRspCmd->numAttr; i++ )
//  583   {
//  584     // Notify the device of the results of the its original write attributes
//  585     // command.
//  586   }
//  587 
//  588   return ( TRUE );
//  589 }
//  590 #endif // ZCL_WRITE
//  591 
//  592 /*********************************************************************
//  593  * @fn      zclSampleSensorEnviroment_ProcessInDefaultRspCmd
//  594  *
//  595  * @brief   Process the "Profile" Default Response Command
//  596  *
//  597  * @param   pInMsg - incoming message to process
//  598  *
//  599  * @return  none
//  600  */
//  601 static uint8 zclSampleSensorEnviroment_ProcessInDefaultRspCmd( zclIncomingMsg_t *pInMsg )
//  602 {
//  603   // zclDefaultRspCmd_t *defaultRspCmd = (zclDefaultRspCmd_t *)pInMsg->attrCmd;
//  604 
//  605   // Device is notified of the Default Response command.
//  606   (void)pInMsg;
//  607 
//  608   return ( TRUE );
//  609 }
//  610 
//  611 #ifdef ZCL_DISCOVER
//  612 /*********************************************************************
//  613  * @fn      zclSampleSensorEnviroment_ProcessInDiscCmdsRspCmd
//  614  *
//  615  * @brief   Process the Discover Commands Response Command
//  616  *
//  617  * @param   pInMsg - incoming message to process
//  618  *
//  619  * @return  none
//  620  */

        RSEG BANKED_CODE:HUGECODE:NOROOT(0)
//  621 static uint8 zclSampleSensorEnviroment_ProcessInDiscCmdsRspCmd( zclIncomingMsg_t *pInMsg )
zclSampleSensorEnviroment_ProcessInDiscCmdsRspCmd:
          CFI Block cfiBlock20 Using cfiCommon0
          CFI Function zclSampleSensorEnviroment_ProcessInDiscCmdsRspCmd
        CODE
//  622 {
        PUSH      DPL
          CFI DPL0 Frame(CFA_SP, 4)
          CFI CFA_SP SP+-4
        PUSH      DPH
          CFI DPH0 Frame(CFA_SP, 5)
          CFI CFA_SP SP+-5
        ; Saved register size: 2
        ; Auto size: 0
//  623   zclDiscoverCmdsCmdRsp_t *discoverRspCmd;
//  624   uint8 i;
//  625 
//  626   discoverRspCmd = (zclDiscoverCmdsCmdRsp_t *)pInMsg->attrCmd;
        LCALL     ?Subroutine27 & 0xFFFF
??CrossCallReturnLabel_31:
        LCALL     ??Subroutine41_0 & 0xFFFF
//  627   for ( i = 0; i < discoverRspCmd->numCmd; i++ )
??CrossCallReturnLabel_48:
        SJMP      ??zclSampleSensorEnviroment_ProcessInDiscCmdsRs_1
??zclSampleSensorEnviroment_ProcessInDiscCmdsRs_2:
        INC       R2
??zclSampleSensorEnviroment_ProcessInDiscCmdsRs_1:
        MOV       DPL,R0
        MOV       DPH,R1
        INC       DPTR
        INC       DPTR
        MOVX      A,@DPTR
        MOV       R3,A
        MOV       A,R2
        CLR       C
        SUBB      A,R3
        JC        ??zclSampleSensorEnviroment_ProcessInDiscCmdsRs_2
//  628   {
//  629     // Device is notified of the result of its attribute discovery command.
//  630   }
//  631 
//  632   return ( TRUE );
        MOV       R1,#0x1
        LJMP      ?Subroutine1 & 0xFFFF
//  633 }
          CFI EndBlock cfiBlock20
//  634 
//  635 /*********************************************************************
//  636  * @fn      zclSampleSensorEnviroment_ProcessInDiscAttrsRspCmd
//  637  *
//  638  * @brief   Process the "Profile" Discover Attributes Response Command
//  639  *
//  640  * @param   pInMsg - incoming message to process
//  641  *
//  642  * @return  none
//  643  */
//  644 static uint8 zclSampleSensorEnviroment_ProcessInDiscAttrsRspCmd( zclIncomingMsg_t *pInMsg )
//  645 {
//  646   zclDiscoverAttrsRspCmd_t *discoverRspCmd;
//  647   uint8 i;
//  648 
//  649   discoverRspCmd = (zclDiscoverAttrsRspCmd_t *)pInMsg->attrCmd;
//  650   for ( i = 0; i < discoverRspCmd->numAttr; i++ )
//  651   {
//  652     // Device is notified of the result of its attribute discovery command.
//  653   }
//  654 
//  655   return ( TRUE );
//  656 }
//  657 
//  658 /*********************************************************************
//  659  * @fn      zclSampleTemperatureSensor_ProcessInDiscAttrsExtRspCmd
//  660  *
//  661  * @brief   Process the "Profile" Discover Attributes Extended Response Command
//  662  *
//  663  * @param   pInMsg - incoming message to process
//  664  *
//  665  * @return  none
//  666  */
//  667 static uint8 zclSampleSensorEnviroment_ProcessInDiscAttrsExtRspCmd( zclIncomingMsg_t *pInMsg )
//  668 {
//  669   zclDiscoverAttrsExtRsp_t *discoverRspCmd;
//  670   uint8 i;
//  671 
//  672   discoverRspCmd = (zclDiscoverAttrsExtRsp_t *)pInMsg->attrCmd;
//  673   for ( i = 0; i < discoverRspCmd->numAttr; i++ )
//  674   {
//  675     // Device is notified of the result of its attribute discovery command.
//  676   }
//  677 
//  678   return ( TRUE );
//  679 }
//  680 #endif // ZCL_DISCOVER
//  681 
//  682 /*********************************************************************
//  683  * @fn      zclSampleTemperatureSensor_HandleKeys
//  684  *
//  685  * @brief   Handles all key events for this device.
//  686  *
//  687  * @param   shift - true if in shift/alt.
//  688  * @param   keys - bit field for key events. Valid entries:
//  689  *                 HAL_KEY_SW_5
//  690 *                 HAL_KEY_SW_4
//  691 *                 HAL_KEY_SW_3
//  692 *                 HAL_KEY_SW_2
//  693 *                 HAL_KEY_SW_1
//  694 *
//  695 * @return  none
//  696 */
//  697 static void zclSampleSensorEnviroment_HandleKeys( byte shift, byte keys )
//  698 {
//  699   if ( keys & HAL_KEY_SW_1 )
//  700   {
//  701 
//  702     
//  703 //    ZDP_EndDeviceBindReq( &dstAddr, NLME_GetShortAddr(),
//  704 //                         SAMPLESENSORENVIROMENT_ENDPOINT_PIR,
//  705 //                         ZCL_HA_PROFILE_ID,
//  706 //                         ZCLSAMPLESENSORENVIROMENT_PIR_MAX_INCLUSTERS,
//  707 //                         (cId_t *)zclSampleSensorEnviroment_Pir_InClusterList,
//  708 //                         ZCLSAMPLESENSORENVIROMENT_PIR_MAX_OUTCLUSTERS,
//  709 //                         (cId_t *)zclSampleSensorEnviroment_Pir_OutClusterList,
//  710 //                         FALSE );
//  711     
//  712   }
//  713 }
//  714 
//  715 static void zclSampleSensorEnviroment_UART_Init(void)
//  716 {
//  717   halUARTCfg_t uartConfig;
//  718   
//  719   // configure UART
//  720   uartConfig.configured           = TRUE;
//  721   uartConfig.baudRate             = HAL_UART_BR_38400;
//  722   uartConfig.flowControl          = FALSE;
//  723   uartConfig.flowControlThreshold = 48;
//  724   uartConfig.rx.maxBufSize        = 75;
//  725   uartConfig.tx.maxBufSize        = 7;
//  726   uartConfig.idleTimeout          = 6;
//  727   uartConfig.intEnable            = TRUE;
//  728   uartConfig.callBackFunc         = uartEventApplicationCB;
//  729   
//  730   HalUARTOpen( HAL_UART_PORT_0, &uartConfig);
//  731 }
//  732 

        RSEG BANKED_CODE:HUGECODE:NOROOT(0)
//  733 void uartEventApplicationCB(uint8 port, uint8 event)
uartEventApplicationCB:
          CFI Block cfiBlock21 Using cfiCommon0
          CFI Function uartEventApplicationCB
        CODE
//  734 {
        FUNCALL uartEventApplicationCB, Hal_UART_RxBufLen
        LOCFRAME ISTACK, 0, STACK
        LOCFRAME PSTACK, 0, STACK
        LOCFRAME XSTACK, 25, STACK
        LOCFRAME IOVERLAY, 0, STATIC
        LOCFRAME DOVERLAY, 0, STATIC
        ARGFRAME ISTACK, 0, STACK
        ARGFRAME PSTACK, 0, STACK
        ARGFRAME XSTACK, 25, STACK
        ARGFRAME IOVERLAY, 0, STATIC
        ARGFRAME DOVERLAY, 0, STATIC
        FUNCALL uartEventApplicationCB, HalUARTRead
        LOCFRAME ISTACK, 0, STACK
        LOCFRAME PSTACK, 0, STACK
        LOCFRAME XSTACK, 25, STACK
        LOCFRAME IOVERLAY, 0, STATIC
        LOCFRAME DOVERLAY, 0, STATIC
        ARGFRAME ISTACK, 0, STACK
        ARGFRAME PSTACK, 0, STACK
        ARGFRAME XSTACK, 25, STACK
        ARGFRAME IOVERLAY, 0, STATIC
        ARGFRAME DOVERLAY, 0, STATIC
        REQUIRE ?V0
        REQUIRE ?V1
        REQUIRE ?V2
        REQUIRE ?V3
        MOV       A,#-0xc
        LCALL     ?BANKED_ENTER_XDATA
          CFI DPH0 load(1, XDATA, add(CFA_XSP16, literal(-1)))
          CFI DPL0 load(1, XDATA, add(CFA_XSP16, literal(-2)))
          CFI ?BRET_EXT load(1, XDATA, add(CFA_XSP16, literal(-3)))
          CFI ?RET_HIGH load(1, XDATA, add(CFA_XSP16, literal(-4)))
          CFI ?RET_LOW load(1, XDATA, add(CFA_XSP16, literal(-5)))
          CFI R7 load(1, XDATA, add(CFA_XSP16, literal(-6)))
          CFI V3 load(1, XDATA, add(CFA_XSP16, literal(-7)))
          CFI V2 load(1, XDATA, add(CFA_XSP16, literal(-8)))
          CFI V1 load(1, XDATA, add(CFA_XSP16, literal(-9)))
          CFI V0 load(1, XDATA, add(CFA_XSP16, literal(-10)))
          CFI VB load(1, XDATA, add(CFA_XSP16, literal(-11)))
          CFI R6 load(1, XDATA, add(CFA_XSP16, literal(-12)))
          CFI CFA_SP SP+0
          CFI CFA_XSP16 add(XSP16, 12)
        ; Saved register size: 12
        ; Auto size: 13
        MOV       A,#-0xd
        LCALL     ?ALLOC_XSTACK8
          CFI CFA_XSP16 add(XSP16, 25)
        MOV       ?V1,R1
//  735     int16 valueOfSensors[NUMBER_OF_SENSOR] = {0};
        MOV       DPTR,#`?<Constant {0, 0, 0, 0, 0, 0}>`
        MOV       A,#0x1
        LCALL     ?XSTACK_DISP102_8
        MOV       A,#0xc
        LCALL     ?MOVE_LONG8_XDATA_XDATA
//  736     int fieldIndex = 0;         // the current field being received
        MOV       R6,A
        MOV       R7,A
//  737 
//  738     //osal_memset(valueOfSensors, 0, NUMBER_OF_SENSOR);
//  739     
//  740     if ( event & HAL_UART_RX_TIMEOUT)
        MOV       A,R2
        MOV       C,0xE0 /* A   */.2
        JC        ??uartEventApplicationCB_0
//  741     {
//  742       while ( Hal_UART_RxBufLen(port) > 0 )
//  743       {
//  744         uint8 ch;
//  745         HalUARTRead(port, &ch, 1);
//  746         if (ch >= '0' && ch <= '9')     // is this an ascii digit between 0 and 9 ?
//  747         {
//  748           //yes, accumulate the value
//  749           valueOfSensors[fieldIndex] = (valueOfSensors[fieldIndex] * 10) + (ch - '0');
//  750         }
//  751         else if (ch == ',')     // comma is our separator, so move on to the next field
//  752         {
//  753           if (fieldIndex < NUMBER_OF_SENSOR - 1)
//  754             fieldIndex++;       // increment field index
//  755         }
//  756         else
//  757         {
//  758           // any character not a digit or comma ends the acquisition of fields
//  759           // In this project, it's the newline character sent by the STM32 MCU
//  760           zclSampleSensorEnviroment_Light_MeasuredValue = valueOfSensors[INDEX_LIGHT] ;
//  761           zclSampleSensorEnviroment_Temperature_MeasuredValue = valueOfSensors[INDEX_TEMPERATURE];  
//  762           zclSampleSensorEnviroment_Humidity_MeasuredValue = valueOfSensors[INDEX_HUMIDITY];
//  763           zclSampleSensorEnviroment_Pir_Status = (uint8)valueOfSensors[INDEX_PIR];
//  764           zclSampleSensorEnviroment_TVOC_MeasuredValue = valueOfSensors[INDEX_TVOC];
//  765           zclSampleSensorEnviroment_CO2_MeasuredValue = valueOfSensors[INDEX_CO2];
//  766 
//  767         }
//  768       }
//  769     }
//  770 }
??uartEventApplicationCB_1:
        MOV       A,#0xd
        LJMP      ?Subroutine2 & 0xFFFF
??uartEventApplicationCB_2:
        MOV       A,R6
        MOV       R0,A
        MOV       A,R7
        MOV       R1,A
        MOV       A,R0
        ADD       A,R0
        MOV       R0,A
        MOV       A,R1
        RLC       A
        MOV       R1,A
        MOV       A,#0x1
        LCALL     ?XSTACK_DISP0_8
        MOV       A,DPL
        ADD       A,R0
        MOV       R0,A
        MOV       A,DPH
        ADDC      A,R1
        MOV       R1,A
        LCALL     ?Subroutine23 & 0xFFFF
??CrossCallReturnLabel_53:
        MOV       A,R2
        MOV       B,#0xa
        MUL       AB
        MOV       R2,A
        MOV       R4,B
        MOV       B,#0xa
        MOV       A,R3
        MUL       AB
        ADD       A,R4
        MOV       R3,A
        MOV       DPL,?XSP + 0
        MOV       DPH,?XSP + 1
        MOVX      A,@DPTR
        MOV       R4,A
        MOV       A,R2
        ADD       A,R4
        MOV       R2,A
        CLR       A
        ADDC      A,R3
        MOV       R3,A
        MOV       A,R2
        ADD       A,#-0x30
        MOV       R2,A
        MOV       A,R3
        ADDC      A,#-0x1
        MOV       R3,A
        MOV       DPL,R0
        MOV       DPH,R1
        MOV       A,R2
        MOVX      @DPTR,A
        INC       DPTR
        MOV       A,R3
??uartEventApplicationCB_3:
        MOVX      @DPTR,A
??uartEventApplicationCB_0:
        ; Setup parameters for call to function Hal_UART_RxBufLen
        MOV       R1,?V1
        LCALL     `??Hal_UART_RxBufLen::?relay`; Banked call to: Hal_UART_RxBufLen
        MOV       A,R2
        ORL       A,R3
        JZ        ??uartEventApplicationCB_1
        ; Setup parameters for call to function HalUARTRead
        MOV       R4,#0x1
        MOV       R5,#0x0
        MOV       R2,?XSP + 0
        MOV       R3,?XSP + 1
        MOV       R1,?V1
        LCALL     `??HalUARTRead::?relay`; Banked call to: HalUARTRead
        MOV       DPL,?XSP + 0
        MOV       DPH,?XSP + 1
        MOVX      A,@DPTR
        ADD       A,#-0x30
        CLR       C
        SUBB      A,#0xa
        JC        ??uartEventApplicationCB_2
        MOVX      A,@DPTR
        XRL       A,#0x2c
        JNZ       ??uartEventApplicationCB_4
        CLR       C
        MOV       A,R6
        SUBB      A,#0x5
        MOV       A,R7
        SUBB      A,#0x0
        MOV       C,0xD0 /* PSW */.2
        XRL       A,PSW
        RLC       A
        JNC       ??uartEventApplicationCB_0
        INC       R6
        MOV       A,R6
        JNZ       ??uartEventApplicationCB_0
        INC       R7
        SJMP      ??uartEventApplicationCB_0
??uartEventApplicationCB_4:
        MOV       A,#0x1
        LCALL     ?XSTACK_DISP0_8
        LCALL     ??Subroutine46_0 & 0xFFFF
??CrossCallReturnLabel_60:
        MOV       DPTR,#zclSampleSensorEnviroment_Light_MeasuredValue
        LCALL     ??Subroutine49_0 & 0xFFFF
??CrossCallReturnLabel_83:
        MOV       A,#0x3
        LCALL     ?XSTACK_DISP0_8
        LCALL     ??Subroutine46_0 & 0xFFFF
??CrossCallReturnLabel_61:
        MOV       DPTR,#zclSampleSensorEnviroment_Temperature_MeasuredValue
        LCALL     ??Subroutine49_0 & 0xFFFF
??CrossCallReturnLabel_84:
        MOV       A,#0x5
        LCALL     ?XSTACK_DISP0_8
        LCALL     ??Subroutine46_0 & 0xFFFF
??CrossCallReturnLabel_62:
        MOV       DPTR,#zclSampleSensorEnviroment_Humidity_MeasuredValue
        LCALL     ??Subroutine49_0 & 0xFFFF
??CrossCallReturnLabel_85:
        MOV       A,#0x7
        LCALL     ?XSTACK_DISP0_8
        MOVX      A,@DPTR
        MOV       DPTR,#zclSampleSensorEnviroment_Pir_Status
        MOVX      @DPTR,A
        MOV       A,#0x9
        LCALL     ?XSTACK_DISP0_8
        LCALL     ??Subroutine46_0 & 0xFFFF
??CrossCallReturnLabel_63:
        MOV       DPTR,#zclSampleSensorEnviroment_TVOC_MeasuredValue
        LCALL     ??Subroutine49_0 & 0xFFFF
??CrossCallReturnLabel_86:
        MOV       A,#0xb
        LCALL     ?XSTACK_DISP0_8
        LCALL     ??Subroutine46_0 & 0xFFFF
??CrossCallReturnLabel_64:
        MOV       DPTR,#zclSampleSensorEnviroment_CO2_MeasuredValue
        MOV       A,R0
        MOVX      @DPTR,A
        INC       DPTR
        MOV       A,R1
        LJMP      ??uartEventApplicationCB_3 & 0xFFFF
          CFI EndBlock cfiBlock21

        RSEG BANKED_CODE:HUGECODE:NOROOT(0)
?Subroutine23:
          CFI Block cfiCond22 Using cfiCommon0
          CFI Function uartEventApplicationCB
          CFI Conditional ??CrossCallReturnLabel_53
          CFI R6 load(1, XDATA, add(CFA_XSP16, literal(-12)))
          CFI VB load(1, XDATA, add(CFA_XSP16, literal(-11)))
          CFI V0 load(1, XDATA, add(CFA_XSP16, literal(-10)))
          CFI V1 load(1, XDATA, add(CFA_XSP16, literal(-9)))
          CFI V2 load(1, XDATA, add(CFA_XSP16, literal(-8)))
          CFI V3 load(1, XDATA, add(CFA_XSP16, literal(-7)))
          CFI R7 load(1, XDATA, add(CFA_XSP16, literal(-6)))
          CFI ?RET_LOW load(1, XDATA, add(CFA_XSP16, literal(-5)))
          CFI ?RET_HIGH load(1, XDATA, add(CFA_XSP16, literal(-4)))
          CFI ?BRET_EXT load(1, XDATA, add(CFA_XSP16, literal(-3)))
          CFI DPL0 load(1, XDATA, add(CFA_XSP16, literal(-2)))
          CFI DPH0 load(1, XDATA, add(CFA_XSP16, literal(-1)))
          CFI CFA_SP SP+-2
          CFI CFA_XSP16 add(XSP16, 25)
          CFI Block cfiCond23 Using cfiCommon0
          CFI (cfiCond23) Function zclSampleSensorEnviroment_CheckReportConfig
          CFI (cfiCond23) Conditional ??CrossCallReturnLabel_54
          CFI (cfiCond23) R6 load(1, XDATA, add(CFA_XSP16, literal(-17)))
          CFI (cfiCond23) VB load(1, XDATA, add(CFA_XSP16, literal(-16)))
          CFI (cfiCond23) V0 load(1, XDATA, add(CFA_XSP16, literal(-15)))
          CFI (cfiCond23) V1 load(1, XDATA, add(CFA_XSP16, literal(-14)))
          CFI (cfiCond23) V2 load(1, XDATA, add(CFA_XSP16, literal(-13)))
          CFI (cfiCond23) V3 load(1, XDATA, add(CFA_XSP16, literal(-12)))
          CFI (cfiCond23) V4 load(1, XDATA, add(CFA_XSP16, literal(-11)))
          CFI (cfiCond23) V5 load(1, XDATA, add(CFA_XSP16, literal(-10)))
          CFI (cfiCond23) V6 load(1, XDATA, add(CFA_XSP16, literal(-9)))
          CFI (cfiCond23) V7 load(1, XDATA, add(CFA_XSP16, literal(-8)))
          CFI (cfiCond23) V8 load(1, XDATA, add(CFA_XSP16, literal(-7)))
          CFI (cfiCond23) R7 load(1, XDATA, add(CFA_XSP16, literal(-6)))
          CFI (cfiCond23) ?RET_LOW load(1, XDATA, add(CFA_XSP16, literal(-5)))
          CFI (cfiCond23) ?RET_HIGH load(1, XDATA, add(CFA_XSP16, literal(-4)))
          CFI (cfiCond23) ?BRET_EXT load(1, XDATA, add(CFA_XSP16, literal(-3)))
          CFI (cfiCond23) DPL0 load(1, XDATA, add(CFA_XSP16, literal(-2)))
          CFI (cfiCond23) DPH0 load(1, XDATA, add(CFA_XSP16, literal(-1)))
          CFI (cfiCond23) CFA_SP SP+-2
          CFI (cfiCond23) CFA_XSP16 add(XSP16, 17)
          CFI Block cfiPicker24 Using cfiCommon1
          CFI (cfiPicker24) NoFunction
          CFI (cfiPicker24) Picker
        MOV       DPL,R0
        MOV       DPH,A
          CFI EndBlock cfiCond22
          CFI EndBlock cfiCond23
          CFI EndBlock cfiPicker24
        REQUIRE ??Subroutine42_0
        ; // Fall through to label ??Subroutine42_0

        RSEG BANKED_CODE:HUGECODE:NOROOT(0)
??Subroutine42_0:
          CFI Block cfiCond25 Using cfiCommon0
          CFI Function zclSampleSensorEnviroment_ProcessIncomingMsg
          CFI Conditional ??CrossCallReturnLabel_51
          CFI R6 load(1, XDATA, add(CFA_XSP16, literal(-9)))
          CFI VB load(1, XDATA, add(CFA_XSP16, literal(-8)))
          CFI V0 load(1, XDATA, add(CFA_XSP16, literal(-7)))
          CFI R7 load(1, XDATA, add(CFA_XSP16, literal(-6)))
          CFI ?RET_LOW load(1, XDATA, add(CFA_XSP16, literal(-5)))
          CFI ?RET_HIGH load(1, XDATA, add(CFA_XSP16, literal(-4)))
          CFI ?BRET_EXT load(1, XDATA, add(CFA_XSP16, literal(-3)))
          CFI DPL0 load(1, XDATA, add(CFA_XSP16, literal(-2)))
          CFI DPH0 load(1, XDATA, add(CFA_XSP16, literal(-1)))
          CFI CFA_SP SP+-2
          CFI CFA_XSP16 add(XSP16, 9)
          CFI Block cfiCond26 Using cfiCommon0
          CFI (cfiCond26) Function zclSampleSensorEnviroment_CheckAndSendClusterAttrReport
          CFI (cfiCond26) Conditional ??CrossCallReturnLabel_52
          CFI (cfiCond26) R6 load(1, XDATA, add(CFA_XSP16, literal(-24)))
          CFI (cfiCond26) VB load(1, XDATA, add(CFA_XSP16, literal(-23)))
          CFI (cfiCond26) V0 load(1, XDATA, add(CFA_XSP16, literal(-22)))
          CFI (cfiCond26) V1 load(1, XDATA, add(CFA_XSP16, literal(-21)))
          CFI (cfiCond26) V2 load(1, XDATA, add(CFA_XSP16, literal(-20)))
          CFI (cfiCond26) V3 load(1, XDATA, add(CFA_XSP16, literal(-19)))
          CFI (cfiCond26) V4 load(1, XDATA, add(CFA_XSP16, literal(-18)))
          CFI (cfiCond26) V5 load(1, XDATA, add(CFA_XSP16, literal(-17)))
          CFI (cfiCond26) V6 load(1, XDATA, add(CFA_XSP16, literal(-16)))
          CFI (cfiCond26) V7 load(1, XDATA, add(CFA_XSP16, literal(-15)))
          CFI (cfiCond26) V8 load(1, XDATA, add(CFA_XSP16, literal(-14)))
          CFI (cfiCond26) V9 load(1, XDATA, add(CFA_XSP16, literal(-13)))
          CFI (cfiCond26) V10 load(1, XDATA, add(CFA_XSP16, literal(-12)))
          CFI (cfiCond26) V11 load(1, XDATA, add(CFA_XSP16, literal(-11)))
          CFI (cfiCond26) V12 load(1, XDATA, add(CFA_XSP16, literal(-10)))
          CFI (cfiCond26) V13 load(1, XDATA, add(CFA_XSP16, literal(-9)))
          CFI (cfiCond26) V14 load(1, XDATA, add(CFA_XSP16, literal(-8)))
          CFI (cfiCond26) V15 load(1, XDATA, add(CFA_XSP16, literal(-7)))
          CFI (cfiCond26) R7 load(1, XDATA, add(CFA_XSP16, literal(-6)))
          CFI (cfiCond26) ?RET_LOW load(1, XDATA, add(CFA_XSP16, literal(-5)))
          CFI (cfiCond26) ?RET_HIGH load(1, XDATA, add(CFA_XSP16, literal(-4)))
          CFI (cfiCond26) ?BRET_EXT load(1, XDATA, add(CFA_XSP16, literal(-3)))
          CFI (cfiCond26) DPL0 load(1, XDATA, add(CFA_XSP16, literal(-2)))
          CFI (cfiCond26) DPH0 load(1, XDATA, add(CFA_XSP16, literal(-1)))
          CFI (cfiCond26) CFA_SP SP+-2
          CFI (cfiCond26) CFA_XSP16 add(XSP16, 36)
          CFI Block cfiCond27 Using cfiCommon0
          CFI (cfiCond27) Function uartEventApplicationCB
          CFI (cfiCond27) Conditional ??CrossCallReturnLabel_53
          CFI (cfiCond27) R6 load(1, XDATA, add(CFA_XSP16, literal(-12)))
          CFI (cfiCond27) VB load(1, XDATA, add(CFA_XSP16, literal(-11)))
          CFI (cfiCond27) V0 load(1, XDATA, add(CFA_XSP16, literal(-10)))
          CFI (cfiCond27) V1 load(1, XDATA, add(CFA_XSP16, literal(-9)))
          CFI (cfiCond27) V2 load(1, XDATA, add(CFA_XSP16, literal(-8)))
          CFI (cfiCond27) V3 load(1, XDATA, add(CFA_XSP16, literal(-7)))
          CFI (cfiCond27) R7 load(1, XDATA, add(CFA_XSP16, literal(-6)))
          CFI (cfiCond27) ?RET_LOW load(1, XDATA, add(CFA_XSP16, literal(-5)))
          CFI (cfiCond27) ?RET_HIGH load(1, XDATA, add(CFA_XSP16, literal(-4)))
          CFI (cfiCond27) ?BRET_EXT load(1, XDATA, add(CFA_XSP16, literal(-3)))
          CFI (cfiCond27) DPL0 load(1, XDATA, add(CFA_XSP16, literal(-2)))
          CFI (cfiCond27) DPH0 load(1, XDATA, add(CFA_XSP16, literal(-1)))
          CFI (cfiCond27) CFA_SP SP+-2
          CFI (cfiCond27) CFA_XSP16 add(XSP16, 25)
          CFI Block cfiCond28 Using cfiCommon0
          CFI (cfiCond28) Function zclSampleSensorEnviroment_CheckReportConfig
          CFI (cfiCond28) Conditional ??CrossCallReturnLabel_54
          CFI (cfiCond28) R6 load(1, XDATA, add(CFA_XSP16, literal(-17)))
          CFI (cfiCond28) VB load(1, XDATA, add(CFA_XSP16, literal(-16)))
          CFI (cfiCond28) V0 load(1, XDATA, add(CFA_XSP16, literal(-15)))
          CFI (cfiCond28) V1 load(1, XDATA, add(CFA_XSP16, literal(-14)))
          CFI (cfiCond28) V2 load(1, XDATA, add(CFA_XSP16, literal(-13)))
          CFI (cfiCond28) V3 load(1, XDATA, add(CFA_XSP16, literal(-12)))
          CFI (cfiCond28) V4 load(1, XDATA, add(CFA_XSP16, literal(-11)))
          CFI (cfiCond28) V5 load(1, XDATA, add(CFA_XSP16, literal(-10)))
          CFI (cfiCond28) V6 load(1, XDATA, add(CFA_XSP16, literal(-9)))
          CFI (cfiCond28) V7 load(1, XDATA, add(CFA_XSP16, literal(-8)))
          CFI (cfiCond28) V8 load(1, XDATA, add(CFA_XSP16, literal(-7)))
          CFI (cfiCond28) R7 load(1, XDATA, add(CFA_XSP16, literal(-6)))
          CFI (cfiCond28) ?RET_LOW load(1, XDATA, add(CFA_XSP16, literal(-5)))
          CFI (cfiCond28) ?RET_HIGH load(1, XDATA, add(CFA_XSP16, literal(-4)))
          CFI (cfiCond28) ?BRET_EXT load(1, XDATA, add(CFA_XSP16, literal(-3)))
          CFI (cfiCond28) DPL0 load(1, XDATA, add(CFA_XSP16, literal(-2)))
          CFI (cfiCond28) DPH0 load(1, XDATA, add(CFA_XSP16, literal(-1)))
          CFI (cfiCond28) CFA_SP SP+-2
          CFI (cfiCond28) CFA_XSP16 add(XSP16, 17)
          CFI Block cfiPicker29 Using cfiCommon1
          CFI (cfiPicker29) NoFunction
          CFI (cfiPicker29) Picker
        LCALL     ??Subroutine48_0 & 0xFFFF
??CrossCallReturnLabel_81:
        RET
          CFI EndBlock cfiCond25
          CFI EndBlock cfiCond26
          CFI EndBlock cfiCond27
          CFI EndBlock cfiCond28
          CFI EndBlock cfiPicker29
//  771 
//  772 /*********************************************************************
//  773 * @fn      zclSampleSensorEnviroment_CheckAndSendClusterAttrReport
//  774 *
//  775 * @brief   Check if there is a reportable attribute in all cluster is timeout to report
//  776 *
//  777 * @param   none
//  778 *
//  779 * @return  none
//  780 */

        RSEG BANKED_CODE:HUGECODE:NOROOT(0)
//  781 static void zclSampleSensorEnviroment_CheckAndSendClusterAttrReport( uint8 endpoint, uint16 clusterId,
zclSampleSensorEnviroment_CheckAndSendClusterAttrReport:
          CFI Block cfiBlock30 Using cfiCommon0
          CFI Function zclSampleSensorEnviroment_CheckAndSendClusterAttrReport
        CODE
//  782                                                                      zclConfigReportRecsList *pConfigReportRecsList )
//  783 {
        FUNCALL zclSampleSensorEnviroment_CheckAndSendClusterAttrReport, osal_mem_alloc
        LOCFRAME ISTACK, 0, STACK
        LOCFRAME PSTACK, 0, STACK
        LOCFRAME XSTACK, 34, STACK
        LOCFRAME IOVERLAY, 0, STATIC
        LOCFRAME DOVERLAY, 0, STATIC
        ARGFRAME ISTACK, 0, STACK
        ARGFRAME PSTACK, 0, STACK
        ARGFRAME XSTACK, 34, STACK
        ARGFRAME IOVERLAY, 0, STATIC
        ARGFRAME DOVERLAY, 0, STATIC
        FUNCALL zclSampleSensorEnviroment_CheckAndSendClusterAttrReport, osal_memset
        LOCFRAME ISTACK, 0, STACK
        LOCFRAME PSTACK, 0, STACK
        LOCFRAME XSTACK, 34, STACK
        LOCFRAME IOVERLAY, 0, STATIC
        LOCFRAME DOVERLAY, 0, STATIC
        ARGFRAME ISTACK, 0, STACK
        ARGFRAME PSTACK, 0, STACK
        ARGFRAME XSTACK, 34, STACK
        ARGFRAME IOVERLAY, 0, STATIC
        ARGFRAME DOVERLAY, 0, STATIC
        FUNCALL zclSampleSensorEnviroment_CheckAndSendClusterAttrReport, zclFindAttrRec
        LOCFRAME ISTACK, 0, STACK
        LOCFRAME PSTACK, 0, STACK
        LOCFRAME XSTACK, 36, STACK
        LOCFRAME IOVERLAY, 0, STATIC
        LOCFRAME DOVERLAY, 0, STATIC
        ARGFRAME ISTACK, 0, STACK
        ARGFRAME PSTACK, 0, STACK
        ARGFRAME XSTACK, 36, STACK
        ARGFRAME IOVERLAY, 0, STATIC
        ARGFRAME DOVERLAY, 0, STATIC
        FUNCALL zclSampleSensorEnviroment_CheckAndSendClusterAttrReport, osal_msg_allocate
        LOCFRAME ISTACK, 0, STACK
        LOCFRAME PSTACK, 0, STACK
        LOCFRAME XSTACK, 34, STACK
        LOCFRAME IOVERLAY, 0, STATIC
        LOCFRAME DOVERLAY, 0, STATIC
        ARGFRAME ISTACK, 0, STACK
        ARGFRAME PSTACK, 0, STACK
        ARGFRAME XSTACK, 34, STACK
        ARGFRAME IOVERLAY, 0, STATIC
        ARGFRAME DOVERLAY, 0, STATIC
        FUNCALL zclSampleSensorEnviroment_CheckAndSendClusterAttrReport, osal_msg_send
        LOCFRAME ISTACK, 0, STACK
        LOCFRAME PSTACK, 0, STACK
        LOCFRAME XSTACK, 34, STACK
        LOCFRAME IOVERLAY, 0, STATIC
        LOCFRAME DOVERLAY, 0, STATIC
        ARGFRAME ISTACK, 0, STACK
        ARGFRAME PSTACK, 0, STACK
        ARGFRAME XSTACK, 34, STACK
        ARGFRAME IOVERLAY, 0, STATIC
        ARGFRAME DOVERLAY, 0, STATIC
        REQUIRE ?V0
        REQUIRE ?V1
        REQUIRE ?V2
        REQUIRE ?V3
        REQUIRE ?V4
        REQUIRE ?V6
        REQUIRE ?V7
        REQUIRE ?V8
        REQUIRE ?V9
        REQUIRE ?V10
        REQUIRE ?V11
        REQUIRE ?V12
        REQUIRE ?V13
        REQUIRE ?V14
        REQUIRE ?V15
        MOV       A,#-0x18
        LCALL     ?BANKED_ENTER_XDATA
          CFI DPH0 load(1, XDATA, add(CFA_XSP16, literal(-1)))
          CFI DPL0 load(1, XDATA, add(CFA_XSP16, literal(-2)))
          CFI ?BRET_EXT load(1, XDATA, add(CFA_XSP16, literal(-3)))
          CFI ?RET_HIGH load(1, XDATA, add(CFA_XSP16, literal(-4)))
          CFI ?RET_LOW load(1, XDATA, add(CFA_XSP16, literal(-5)))
          CFI R7 load(1, XDATA, add(CFA_XSP16, literal(-6)))
          CFI V15 load(1, XDATA, add(CFA_XSP16, literal(-7)))
          CFI V14 load(1, XDATA, add(CFA_XSP16, literal(-8)))
          CFI V13 load(1, XDATA, add(CFA_XSP16, literal(-9)))
          CFI V12 load(1, XDATA, add(CFA_XSP16, literal(-10)))
          CFI V11 load(1, XDATA, add(CFA_XSP16, literal(-11)))
          CFI V10 load(1, XDATA, add(CFA_XSP16, literal(-12)))
          CFI V9 load(1, XDATA, add(CFA_XSP16, literal(-13)))
          CFI V8 load(1, XDATA, add(CFA_XSP16, literal(-14)))
          CFI V7 load(1, XDATA, add(CFA_XSP16, literal(-15)))
          CFI V6 load(1, XDATA, add(CFA_XSP16, literal(-16)))
          CFI V5 load(1, XDATA, add(CFA_XSP16, literal(-17)))
          CFI V4 load(1, XDATA, add(CFA_XSP16, literal(-18)))
          CFI V3 load(1, XDATA, add(CFA_XSP16, literal(-19)))
          CFI V2 load(1, XDATA, add(CFA_XSP16, literal(-20)))
          CFI V1 load(1, XDATA, add(CFA_XSP16, literal(-21)))
          CFI V0 load(1, XDATA, add(CFA_XSP16, literal(-22)))
          CFI VB load(1, XDATA, add(CFA_XSP16, literal(-23)))
          CFI R6 load(1, XDATA, add(CFA_XSP16, literal(-24)))
          CFI CFA_SP SP+0
          CFI CFA_XSP16 add(XSP16, 24)
        ; Saved register size: 24
        ; Auto size: 10
        MOV       A,#-0xa
        LCALL     ?ALLOC_XSTACK8
          CFI CFA_XSP16 add(XSP16, 34)
        MOV       ?V4,R1
        MOV       ?V12,R2
        MOV       ?V13,R3
        MOV       ?V8,R4
        MOV       ?V9,R5
//  784   uint8 numAttr = 0;
        MOV       ?V0,#0x0
//  785   uint8 x;
//  786   uint16 len;
//  787   zclReportCmd_t *pReportCmd;
//  788   zclConfigReportRec_t *pConfigReportRec = NULL;
//  789   zclAttrRec_t attrRec;
//  790   
//  791   for (x = 0; x < pConfigReportRecsList->numConfigReportRec; x++)
        MOV       ?V1,#0x0
        SJMP      ??zclSampleSensorEnviroment_CheckAndSendCluster_1
//  792   {
//  793     pConfigReportRec = &(pConfigReportRecsList->configReportRecs[x]);
??zclSampleSensorEnviroment_CheckAndSendCluster_2:
        MOV       A,?V1
        MOV       B,#0x12
        MUL       AB
        MOV       R0,A
        MOV       R1,B
        MOV       DPL,R4
        MOV       DPH,R5
        LCALL     ?Subroutine14 & 0xFFFF
//  794     
//  795     if (pConfigReportRec->clusterId == clusterId &&
//  796         pConfigReportRec->cfgReportRec.maxReportInt != 0xFFFF)
??CrossCallReturnLabel_14:
        XRL       A,R2
        JNZ       ??zclSampleSensorEnviroment_CheckAndSendCluster_3
        INC       DPTR
        MOVX      A,@DPTR
        XRL       A,R3
??zclSampleSensorEnviroment_CheckAndSendCluster_3:
        JNZ       ??zclSampleSensorEnviroment_CheckAndSendCluster_4
        LCALL     ?Subroutine28 & 0xFFFF
??CrossCallReturnLabel_34:
        JNZ       ??zclSampleSensorEnviroment_CheckAndSendCluster_5
        INC       DPTR
        MOVX      A,@DPTR
        CPL       A
??zclSampleSensorEnviroment_CheckAndSendCluster_5:
        JZ        ??zclSampleSensorEnviroment_CheckAndSendCluster_4
//  797     {
//  798       if (pConfigReportRec->timeup == 0xFFFF || pConfigReportRec->timeup == gTimeCounter)
        MOV       DPL,?V2
        MOV       DPH,?V3
        INC       DPTR
        INC       DPTR
        LCALL     ?Subroutine25 & 0xFFFF
??CrossCallReturnLabel_29:
        JNZ       ??zclSampleSensorEnviroment_CheckAndSendCluster_6
        MOV       A,#-0x1
        XRL       A,R1
??zclSampleSensorEnviroment_CheckAndSendCluster_6:
        JZ        ??zclSampleSensorEnviroment_CheckAndSendCluster_7
        MOV       DPTR,#gTimeCounter
        MOVX      A,@DPTR
        XRL       A,R0
        JNZ       ??zclSampleSensorEnviroment_CheckAndSendCluster_8
        INC       DPTR
        MOVX      A,@DPTR
        XRL       A,R1
??zclSampleSensorEnviroment_CheckAndSendCluster_8:
        JNZ       ??zclSampleSensorEnviroment_CheckAndSendCluster_4
//  799       {
//  800         numAttr++;
??zclSampleSensorEnviroment_CheckAndSendCluster_7:
        INC       ?V0
//  801       }
//  802     }
//  803   }
??zclSampleSensorEnviroment_CheckAndSendCluster_4:
        INC       ?V1
??zclSampleSensorEnviroment_CheckAndSendCluster_1:
        MOV       DPL,R4
        MOV       DPH,R5
        INC       DPTR
        INC       DPTR
        INC       DPTR
        MOVX      A,@DPTR
        MOV       R0,A
        MOV       A,?V1
        CLR       C
        SUBB      A,R0
        JC        ??zclSampleSensorEnviroment_CheckAndSendCluster_2
//  804   
//  805   if (numAttr != 0)
        MOV       A,?V0
        JZ        ??zclSampleSensorEnviroment_CheckAndSendCluster_9
//  806   {
//  807     // we need to send a report - allocate space for it
//  808     len = sizeof(zclReportCmd_t) + (numAttr * sizeof(zclReport_t));
        MOV       B,#0x5
        MUL       AB
        MOV       R1,B
        ADD       A,#0x1
        MOV       R6,A
        CLR       A
        ADDC      A,R1
        MOV       R7,A
//  809     pReportCmd = (zclReportCmd_t *)zcl_mem_alloc( len );
        ; Setup parameters for call to function osal_mem_alloc
        MOV       A,R6
        MOV       R2,A
        MOV       A,R7
        MOV       R3,A
        LCALL     `??osal_mem_alloc::?relay`; Banked call to: osal_mem_alloc
        MOV       DPL,?XSP + 0
        MOV       DPH,?XSP + 1
        LCALL     ?Subroutine5 & 0xFFFF
//  810     pReportCmd->numAttr = numAttr;
//  811   }
??CrossCallReturnLabel_0:
        MOV       A,?V0
        MOVX      @DPTR,A
//  812   
//  813   numAttr = 0;
??zclSampleSensorEnviroment_CheckAndSendCluster_9:
        MOV       ?V0,#0x0
//  814   
//  815   for (x = 0; x < pConfigReportRecsList->numConfigReportRec; x++ )
        MOV       ?V1,#0x0
        SJMP      ??zclSampleSensorEnviroment_CheckAndSendCluster_10
//  816   {
//  817     zclReport_t *reportRec;
//  818     pConfigReportRec = &(pConfigReportRecsList->configReportRecs[x]);
//  819     
//  820     if (pConfigReportRec->clusterId == clusterId && pConfigReportRec->cfgReportRec.maxReportInt != 0xFFFF)      // need report
//  821     {
//  822       if (pConfigReportRec->timeup == 0xFFFF || pConfigReportRec->timeup == gTimeCounter)       //timeup to report
//  823       {
//  824         // fill the record in *pReportCmd
//  825         reportRec = &(pReportCmd->attrList[numAttr]);
//  826         zcl_memset( reportRec, 0, sizeof(zclReport_t));
//  827         numAttr++;
//  828         zclFindAttrRec(endpoint, pConfigReportRec->clusterId, pConfigReportRec->cfgReportRec.attrID, &attrRec);
//  829         
//  830         reportRec->attrID = attrRec.attr.attrId;
//  831         reportRec->dataType = attrRec.attr.dataType;
//  832         reportRec->attrData = attrRec.attr.dataPtr;
//  833         
//  834         if (pConfigReportRec->cfgReportRec.minReportInt == 0)
//  835           pConfigReportRec->timeup = gTimeCounter + pConfigReportRec->cfgReportRec.maxReportInt;
//  836         else
//  837           pConfigReportRec->timeup = gTimeCounter + pConfigReportRec->cfgReportRec.minReportInt;
??zclSampleSensorEnviroment_CheckAndSendCluster_11:
        MOVX      A,@DPTR
        ADD       A,R0
        MOV       R0,A
        INC       DPTR
        MOVX      A,@DPTR
        ADDC      A,R1
        MOV       R1,A
        MOV       DPL,?V14
        MOV       DPH,?V15
        LCALL     ??Subroutine49_0 & 0xFFFF
??CrossCallReturnLabel_87:
        INC       ?V1
??zclSampleSensorEnviroment_CheckAndSendCluster_10:
        MOV       DPL,?V8
        MOV       DPH,?V9
        INC       DPTR
        INC       DPTR
        INC       DPTR
        MOVX      A,@DPTR
        MOV       R0,A
        MOV       A,?V1
        CLR       C
        SUBB      A,R0
        JC        $+5
        LJMP      ??zclSampleSensorEnviroment_CheckAndSendCluster_12 & 0xFFFF
        MOV       A,?V1
        MOV       B,#0x12
        MUL       AB
        MOV       R0,A
        MOV       R1,B
        MOV       DPL,?V8
        MOV       DPH,?V9
        LCALL     ?Subroutine14 & 0xFFFF
??CrossCallReturnLabel_15:
        XRL       A,?V12
        JNZ       ??zclSampleSensorEnviroment_CheckAndSendCluster_13
        INC       DPTR
        MOVX      A,@DPTR
        XRL       A,?V13
??zclSampleSensorEnviroment_CheckAndSendCluster_13:
        JNZ       ??CrossCallReturnLabel_87
        LCALL     ?Subroutine28 & 0xFFFF
??CrossCallReturnLabel_35:
        JNZ       ??zclSampleSensorEnviroment_CheckAndSendCluster_14
        INC       DPTR
        MOVX      A,@DPTR
        CPL       A
??zclSampleSensorEnviroment_CheckAndSendCluster_14:
        JZ        ??CrossCallReturnLabel_87
        MOV       A,?V2
        ADD       A,#0x2
        MOV       ?V14,A
        CLR       A
        ADDC      A,?V3
        MOV       ?V15,A
        MOV       DPL,?V14
        MOV       DPH,A
        LCALL     ?Subroutine25 & 0xFFFF
??CrossCallReturnLabel_30:
        JNZ       ??zclSampleSensorEnviroment_CheckAndSendCluster_15
        MOV       A,#-0x1
        XRL       A,R1
??zclSampleSensorEnviroment_CheckAndSendCluster_15:
        JZ        ??zclSampleSensorEnviroment_CheckAndSendCluster_16
        MOV       DPTR,#gTimeCounter
        MOVX      A,@DPTR
        XRL       A,R0
        JNZ       ??zclSampleSensorEnviroment_CheckAndSendCluster_17
        INC       DPTR
        MOVX      A,@DPTR
        XRL       A,R1
??zclSampleSensorEnviroment_CheckAndSendCluster_17:
        JNZ       ??CrossCallReturnLabel_87
??zclSampleSensorEnviroment_CheckAndSendCluster_16:
        MOV       A,?V0
        MOV       B,#0x5
        MUL       AB
        MOV       R0,A
        MOV       R1,B
        MOV       DPL,?XSP + 0
        MOV       DPH,?XSP + 1
        MOVX      A,@DPTR
        ADD       A,R0
        MOV       R2,A
        INC       DPTR
        MOVX      A,@DPTR
        ADDC      A,R1
        MOV       DPL,R2
        MOV       DPH,A
        INC       DPTR
        MOV       ?V6,DPL
        MOV       ?V7,DPH
        ; Setup parameters for call to function osal_memset
        MOV       R4,#0x5
        MOV       R5,#0x0
        MOV       R1,#0x0
        MOV       R2,?V6
        MOV       R3,?V7
        LCALL     `??osal_memset::?relay`; Banked call to: osal_memset
        INC       ?V0
        ; Setup parameters for call to function zclFindAttrRec
        MOV       A,#0x2
        LCALL     ?XSTACK_DISP100_8
        MOV       ?V10,R0
        MOV       ?V11,R1
        MOV       R0,#?V10
        LCALL     ?PUSH_XSTACK_I_TWO
          CFI CFA_XSP16 add(XSP16, 36)
        MOV       DPL,?V2
        MOV       DPH,?V3
        LCALL     ??Subroutine44_0 & 0xFFFF
??CrossCallReturnLabel_57:
        MOV       DPL,?V2
        MOV       DPH,?V3
        LCALL     ??Subroutine42_0 & 0xFFFF
??CrossCallReturnLabel_52:
        MOV       R1,?V4
        LCALL     `??zclFindAttrRec::?relay`; Banked call to: zclFindAttrRec
        MOV       A,#0x2
        LCALL     ?DEALLOC_XSTACK8
          CFI CFA_XSP16 add(XSP16, 34)
        MOV       A,#0x4
        LCALL     ?XSTACK_DISP0_8
        LCALL     ?Subroutine19 & 0xFFFF
??CrossCallReturnLabel_21:
        LCALL     ??Subroutine49_0 & 0xFFFF
??CrossCallReturnLabel_88:
        MOV       A,#0x6
        LCALL     ?XSTACK_DISP0_8
        MOVX      A,@DPTR
        MOV       DPL,?V6
        MOV       DPH,?V7
        INC       DPTR
        INC       DPTR
        MOVX      @DPTR,A
        MOV       A,#0x8
        LCALL     ?XSTACK_DISP0_8
        LCALL     ?Subroutine19 & 0xFFFF
??CrossCallReturnLabel_22:
        INC       DPTR
        LCALL     ?Subroutine8 & 0xFFFF
??CrossCallReturnLabel_92:
        MOV       DPL,?V2
        MOV       DPH,?V3
        INC       DPTR
        INC       DPTR
        INC       DPTR
        INC       DPTR
        INC       DPTR
        INC       DPTR
        INC       DPTR
        INC       DPTR
        INC       DPTR
        INC       DPTR
        LCALL     ??Subroutine46_0 & 0xFFFF
??CrossCallReturnLabel_65:
        MOV       A,R0
        ORL       A,R1
        MOV       DPTR,#gTimeCounter
        JZ        $+5
        LJMP      ??zclSampleSensorEnviroment_CheckAndSendCluster_11 & 0xFFFF
        LCALL     ??Subroutine46_0 & 0xFFFF
//  838       }
//  839     }
//  840   }
??CrossCallReturnLabel_66:
        MOV       A,?V2
        ADD       A,#0xc
        MOV       DPL,A
        CLR       A
        ADDC      A,?V3
        MOV       DPH,A
        LJMP      ??zclSampleSensorEnviroment_CheckAndSendCluster_11 & 0xFFFF
//  841   
//  842   if (numAttr != 0)
??zclSampleSensorEnviroment_CheckAndSendCluster_12:
        MOV       A,?V0
        JNZ       $+5
        LJMP      ??zclSampleSensorEnviroment_CheckAndSendCluster_18 & 0xFFFF
//  843   {
//  844     SendZclAttrReport( endpoint, clusterId, pReportCmd, len);
        ; Setup parameters for call to function osal_msg_allocate
        MOV       A,R6
        ADD       A,#0x19
        MOV       R2,A
        CLR       A
        ADDC      A,#0x0
        MOV       R3,A
        LCALL     `??osal_msg_allocate::?relay`; Banked call to: osal_msg_allocate
        MOV       A,R2
        ORL       A,R3
        JZ        ??zclSampleSensorEnviroment_CheckAndSendCluster_18
        MOV       DPL,R2
        MOV       DPH,R3
        MOV       A,#0x34
        MOVX      @DPTR,A
        INC       DPTR
        CLR       A
        LCALL     ?Subroutine38 & 0xFFFF
//  845   }
??CrossCallReturnLabel_46:
        MOVX      @DPTR,A
        INC       DPTR
        LCALL     ?Subroutine10 & 0xFFFF
??CrossCallReturnLabel_8:
        LCALL     ?Subroutine10 & 0xFFFF
??CrossCallReturnLabel_9:
        INC       DPTR
        MOV       A,#0xa
        LCALL     ?Subroutine9 & 0xFFFF
??CrossCallReturnLabel_6:
        MOV       A,?V12
        MOVX      @DPTR,A
        INC       DPTR
        MOV       A,?V13
        MOVX      @DPTR,A
        MOV       A,R2
        ADD       A,#0x12
        MOV       DPL,A
        CLR       A
        ADDC      A,R3
        MOV       DPH,A
        MOV       A,#0x2
        LCALL     ?Subroutine9 & 0xFFFF
??CrossCallReturnLabel_7:
        INC       DPTR
        INC       DPTR
        CLR       A
        MOVX      @DPTR,A
        INC       DPTR
        MOVX      @DPTR,A
        MOV       A,R2
        ADD       A,#0x14
        MOV       DPL,A
        CLR       A
        ADDC      A,R3
        MOV       DPH,A
        CLR       A
        MOVX      @DPTR,A
        INC       DPTR
        MOVX      @DPTR,A
        MOV       A,R2
        ADD       A,#0x13
        MOV       DPL,A
        CLR       A
        ADDC      A,R3
        MOV       DPH,A
        MOV       A,?V4
        MOVX      @DPTR,A
        MOV       A,R2
        ADD       A,#0x16
        MOV       DPL,A
        CLR       A
        ADDC      A,R3
        MOV       DPH,A
        MOV       A,?V4
        MOVX      @DPTR,A
        MOV       DPL,?XSP + 0
        MOV       DPH,?XSP + 1
        LCALL     ??Subroutine46_0 & 0xFFFF
??CrossCallReturnLabel_67:
        LCALL     ?Subroutine27 & 0xFFFF
??CrossCallReturnLabel_32:
        LCALL     ??Subroutine49_0 & 0xFFFF
??CrossCallReturnLabel_89:
        ; Setup parameters for call to function osal_msg_send
        MOV       DPTR,#zclSampleSensorEnviroment_TaskID
        MOVX      A,@DPTR
        MOV       R1,A
        LCALL     `??osal_msg_send::?relay`; Banked call to: osal_msg_send
//  846 }
??zclSampleSensorEnviroment_CheckAndSendCluster_18:
          CFI EndBlock cfiBlock30
        REQUIRE ?Subroutine3
        ; // Fall through to label ?Subroutine3

        RSEG BANKED_CODE:HUGECODE:NOROOT(0)
?Subroutine3:
          CFI Block cfiBlock31 Using cfiCommon0
          CFI NoFunction
          CFI CFA_SP SP+0
          CFI CFA_XSP16 add(XSP16, 34)
          CFI VB load(1, XDATA, add(CFA_XSP16, literal(-23)))
          CFI DPL0 load(1, XDATA, add(CFA_XSP16, literal(-2)))
          CFI DPH0 load(1, XDATA, add(CFA_XSP16, literal(-1)))
          CFI R6 load(1, XDATA, add(CFA_XSP16, literal(-24)))
          CFI R7 load(1, XDATA, add(CFA_XSP16, literal(-6)))
          CFI V0 load(1, XDATA, add(CFA_XSP16, literal(-22)))
          CFI V1 load(1, XDATA, add(CFA_XSP16, literal(-21)))
          CFI V2 load(1, XDATA, add(CFA_XSP16, literal(-20)))
          CFI V3 load(1, XDATA, add(CFA_XSP16, literal(-19)))
          CFI V4 load(1, XDATA, add(CFA_XSP16, literal(-18)))
          CFI V5 load(1, XDATA, add(CFA_XSP16, literal(-17)))
          CFI V6 load(1, XDATA, add(CFA_XSP16, literal(-16)))
          CFI V7 load(1, XDATA, add(CFA_XSP16, literal(-15)))
          CFI V8 load(1, XDATA, add(CFA_XSP16, literal(-14)))
          CFI V9 load(1, XDATA, add(CFA_XSP16, literal(-13)))
          CFI V10 load(1, XDATA, add(CFA_XSP16, literal(-12)))
          CFI V11 load(1, XDATA, add(CFA_XSP16, literal(-11)))
          CFI V12 load(1, XDATA, add(CFA_XSP16, literal(-10)))
          CFI V13 load(1, XDATA, add(CFA_XSP16, literal(-9)))
          CFI V14 load(1, XDATA, add(CFA_XSP16, literal(-8)))
          CFI V15 load(1, XDATA, add(CFA_XSP16, literal(-7)))
          CFI ?BRET_EXT load(1, XDATA, add(CFA_XSP16, literal(-3)))
          CFI ?RET_HIGH load(1, XDATA, add(CFA_XSP16, literal(-4)))
          CFI ?RET_LOW load(1, XDATA, add(CFA_XSP16, literal(-5)))
        MOV       A,#0xa
          CFI EndBlock cfiBlock31
        REQUIRE ??Subroutine43_0
        ; // Fall through to label ??Subroutine43_0

        RSEG BANKED_CODE:HUGECODE:NOROOT(0)
??Subroutine43_0:
          CFI Block cfiBlock32 Using cfiCommon0
          CFI NoFunction
          CFI CFA_SP SP+0
          CFI CFA_XSP16 add(XSP16, 36)
          CFI VB load(1, XDATA, add(CFA_XSP16, literal(-23)))
          CFI DPL0 load(1, XDATA, add(CFA_XSP16, literal(-2)))
          CFI DPH0 load(1, XDATA, add(CFA_XSP16, literal(-1)))
          CFI R6 load(1, XDATA, add(CFA_XSP16, literal(-24)))
          CFI R7 load(1, XDATA, add(CFA_XSP16, literal(-6)))
          CFI V0 load(1, XDATA, add(CFA_XSP16, literal(-22)))
          CFI V1 load(1, XDATA, add(CFA_XSP16, literal(-21)))
          CFI V2 load(1, XDATA, add(CFA_XSP16, literal(-20)))
          CFI V3 load(1, XDATA, add(CFA_XSP16, literal(-19)))
          CFI V4 load(1, XDATA, add(CFA_XSP16, literal(-18)))
          CFI V5 load(1, XDATA, add(CFA_XSP16, literal(-17)))
          CFI V6 load(1, XDATA, add(CFA_XSP16, literal(-16)))
          CFI V7 load(1, XDATA, add(CFA_XSP16, literal(-15)))
          CFI V8 load(1, XDATA, add(CFA_XSP16, literal(-14)))
          CFI V9 load(1, XDATA, add(CFA_XSP16, literal(-13)))
          CFI V10 load(1, XDATA, add(CFA_XSP16, literal(-12)))
          CFI V11 load(1, XDATA, add(CFA_XSP16, literal(-11)))
          CFI V12 load(1, XDATA, add(CFA_XSP16, literal(-10)))
          CFI V13 load(1, XDATA, add(CFA_XSP16, literal(-9)))
          CFI V14 load(1, XDATA, add(CFA_XSP16, literal(-8)))
          CFI V15 load(1, XDATA, add(CFA_XSP16, literal(-7)))
          CFI ?BRET_EXT load(1, XDATA, add(CFA_XSP16, literal(-3)))
          CFI ?RET_HIGH load(1, XDATA, add(CFA_XSP16, literal(-4)))
          CFI ?RET_LOW load(1, XDATA, add(CFA_XSP16, literal(-5)))
          CFI Invalid
        LCALL     ?DEALLOC_XSTACK8
          CFI CFA_XSP16 add(XSP16, 24)
          CFI Valid
        MOV       R7,#0x10
        LJMP      ?BANKED_LEAVE_XDATA
          CFI EndBlock cfiBlock32

        RSEG BANKED_CODE:HUGECODE:NOROOT(0)
?Subroutine28:
          CFI Block cfiCond33 Using cfiCommon0
          CFI Function zclSampleSensorEnviroment_CheckAndSendClusterAttrReport
          CFI Conditional ??CrossCallReturnLabel_34
          CFI R6 load(1, XDATA, add(CFA_XSP16, literal(-24)))
          CFI VB load(1, XDATA, add(CFA_XSP16, literal(-23)))
          CFI V0 load(1, XDATA, add(CFA_XSP16, literal(-22)))
          CFI V1 load(1, XDATA, add(CFA_XSP16, literal(-21)))
          CFI V2 load(1, XDATA, add(CFA_XSP16, literal(-20)))
          CFI V3 load(1, XDATA, add(CFA_XSP16, literal(-19)))
          CFI V4 load(1, XDATA, add(CFA_XSP16, literal(-18)))
          CFI V5 load(1, XDATA, add(CFA_XSP16, literal(-17)))
          CFI V6 load(1, XDATA, add(CFA_XSP16, literal(-16)))
          CFI V7 load(1, XDATA, add(CFA_XSP16, literal(-15)))
          CFI V8 load(1, XDATA, add(CFA_XSP16, literal(-14)))
          CFI V9 load(1, XDATA, add(CFA_XSP16, literal(-13)))
          CFI V10 load(1, XDATA, add(CFA_XSP16, literal(-12)))
          CFI V11 load(1, XDATA, add(CFA_XSP16, literal(-11)))
          CFI V12 load(1, XDATA, add(CFA_XSP16, literal(-10)))
          CFI V13 load(1, XDATA, add(CFA_XSP16, literal(-9)))
          CFI V14 load(1, XDATA, add(CFA_XSP16, literal(-8)))
          CFI V15 load(1, XDATA, add(CFA_XSP16, literal(-7)))
          CFI R7 load(1, XDATA, add(CFA_XSP16, literal(-6)))
          CFI ?RET_LOW load(1, XDATA, add(CFA_XSP16, literal(-5)))
          CFI ?RET_HIGH load(1, XDATA, add(CFA_XSP16, literal(-4)))
          CFI ?BRET_EXT load(1, XDATA, add(CFA_XSP16, literal(-3)))
          CFI DPL0 load(1, XDATA, add(CFA_XSP16, literal(-2)))
          CFI DPH0 load(1, XDATA, add(CFA_XSP16, literal(-1)))
          CFI CFA_SP SP+-2
          CFI CFA_XSP16 add(XSP16, 34)
          CFI Block cfiCond34 Using cfiCommon0
          CFI (cfiCond34) Function zclSampleSensorEnviroment_CheckAndSendClusterAttrReport
          CFI (cfiCond34) Conditional ??CrossCallReturnLabel_35
          CFI (cfiCond34) R6 load(1, XDATA, add(CFA_XSP16, literal(-24)))
          CFI (cfiCond34) VB load(1, XDATA, add(CFA_XSP16, literal(-23)))
          CFI (cfiCond34) V0 load(1, XDATA, add(CFA_XSP16, literal(-22)))
          CFI (cfiCond34) V1 load(1, XDATA, add(CFA_XSP16, literal(-21)))
          CFI (cfiCond34) V2 load(1, XDATA, add(CFA_XSP16, literal(-20)))
          CFI (cfiCond34) V3 load(1, XDATA, add(CFA_XSP16, literal(-19)))
          CFI (cfiCond34) V4 load(1, XDATA, add(CFA_XSP16, literal(-18)))
          CFI (cfiCond34) V5 load(1, XDATA, add(CFA_XSP16, literal(-17)))
          CFI (cfiCond34) V6 load(1, XDATA, add(CFA_XSP16, literal(-16)))
          CFI (cfiCond34) V7 load(1, XDATA, add(CFA_XSP16, literal(-15)))
          CFI (cfiCond34) V8 load(1, XDATA, add(CFA_XSP16, literal(-14)))
          CFI (cfiCond34) V9 load(1, XDATA, add(CFA_XSP16, literal(-13)))
          CFI (cfiCond34) V10 load(1, XDATA, add(CFA_XSP16, literal(-12)))
          CFI (cfiCond34) V11 load(1, XDATA, add(CFA_XSP16, literal(-11)))
          CFI (cfiCond34) V12 load(1, XDATA, add(CFA_XSP16, literal(-10)))
          CFI (cfiCond34) V13 load(1, XDATA, add(CFA_XSP16, literal(-9)))
          CFI (cfiCond34) V14 load(1, XDATA, add(CFA_XSP16, literal(-8)))
          CFI (cfiCond34) V15 load(1, XDATA, add(CFA_XSP16, literal(-7)))
          CFI (cfiCond34) R7 load(1, XDATA, add(CFA_XSP16, literal(-6)))
          CFI (cfiCond34) ?RET_LOW load(1, XDATA, add(CFA_XSP16, literal(-5)))
          CFI (cfiCond34) ?RET_HIGH load(1, XDATA, add(CFA_XSP16, literal(-4)))
          CFI (cfiCond34) ?BRET_EXT load(1, XDATA, add(CFA_XSP16, literal(-3)))
          CFI (cfiCond34) DPL0 load(1, XDATA, add(CFA_XSP16, literal(-2)))
          CFI (cfiCond34) DPH0 load(1, XDATA, add(CFA_XSP16, literal(-1)))
          CFI (cfiCond34) CFA_SP SP+-2
          CFI (cfiCond34) CFA_XSP16 add(XSP16, 34)
          CFI Block cfiPicker35 Using cfiCommon1
          CFI (cfiPicker35) NoFunction
          CFI (cfiPicker35) Picker
        MOV       A,?V2
        ADD       A,#0xc
        LCALL     ??Subroutine50_0 & 0xFFFF
??CrossCallReturnLabel_95:
        CPL       A
        RET
          CFI EndBlock cfiCond33
          CFI EndBlock cfiCond34
          CFI EndBlock cfiPicker35

        RSEG BANKED_CODE:HUGECODE:NOROOT(0)
?Subroutine27:
          CFI Block cfiCond36 Using cfiCommon0
          CFI Function zclSampleSensorEnviroment_ProcessInDiscCmdsRspCmd
          CFI Conditional ??CrossCallReturnLabel_31
          CFI DPL0 Frame(CFA_SP, 4)
          CFI DPH0 Frame(CFA_SP, 5)
          CFI CFA_SP SP+-7
          CFI Block cfiCond37 Using cfiCommon0
          CFI (cfiCond37) Function zclSampleSensorEnviroment_CheckAndSendClusterAttrReport
          CFI (cfiCond37) Conditional ??CrossCallReturnLabel_32
          CFI (cfiCond37) R6 load(1, XDATA, add(CFA_XSP16, literal(-24)))
          CFI (cfiCond37) VB load(1, XDATA, add(CFA_XSP16, literal(-23)))
          CFI (cfiCond37) V0 load(1, XDATA, add(CFA_XSP16, literal(-22)))
          CFI (cfiCond37) V1 load(1, XDATA, add(CFA_XSP16, literal(-21)))
          CFI (cfiCond37) V2 load(1, XDATA, add(CFA_XSP16, literal(-20)))
          CFI (cfiCond37) V3 load(1, XDATA, add(CFA_XSP16, literal(-19)))
          CFI (cfiCond37) V4 load(1, XDATA, add(CFA_XSP16, literal(-18)))
          CFI (cfiCond37) V5 load(1, XDATA, add(CFA_XSP16, literal(-17)))
          CFI (cfiCond37) V6 load(1, XDATA, add(CFA_XSP16, literal(-16)))
          CFI (cfiCond37) V7 load(1, XDATA, add(CFA_XSP16, literal(-15)))
          CFI (cfiCond37) V8 load(1, XDATA, add(CFA_XSP16, literal(-14)))
          CFI (cfiCond37) V9 load(1, XDATA, add(CFA_XSP16, literal(-13)))
          CFI (cfiCond37) V10 load(1, XDATA, add(CFA_XSP16, literal(-12)))
          CFI (cfiCond37) V11 load(1, XDATA, add(CFA_XSP16, literal(-11)))
          CFI (cfiCond37) V12 load(1, XDATA, add(CFA_XSP16, literal(-10)))
          CFI (cfiCond37) V13 load(1, XDATA, add(CFA_XSP16, literal(-9)))
          CFI (cfiCond37) V14 load(1, XDATA, add(CFA_XSP16, literal(-8)))
          CFI (cfiCond37) V15 load(1, XDATA, add(CFA_XSP16, literal(-7)))
          CFI (cfiCond37) R7 load(1, XDATA, add(CFA_XSP16, literal(-6)))
          CFI (cfiCond37) ?RET_LOW load(1, XDATA, add(CFA_XSP16, literal(-5)))
          CFI (cfiCond37) ?RET_HIGH load(1, XDATA, add(CFA_XSP16, literal(-4)))
          CFI (cfiCond37) ?BRET_EXT load(1, XDATA, add(CFA_XSP16, literal(-3)))
          CFI (cfiCond37) DPL0 load(1, XDATA, add(CFA_XSP16, literal(-2)))
          CFI (cfiCond37) DPH0 load(1, XDATA, add(CFA_XSP16, literal(-1)))
          CFI (cfiCond37) CFA_SP SP+-2
          CFI (cfiCond37) CFA_XSP16 add(XSP16, 34)
          CFI Block cfiCond38 Using cfiCommon0
          CFI (cfiCond38) Function zclSampleSensorEnviroment_ProcessInReportCmd
          CFI (cfiCond38) Conditional ??CrossCallReturnLabel_33
          CFI (cfiCond38) R6 load(1, XDATA, add(CFA_XSP16, literal(-12)))
          CFI (cfiCond38) VB load(1, XDATA, add(CFA_XSP16, literal(-11)))
          CFI (cfiCond38) V0 load(1, XDATA, add(CFA_XSP16, literal(-10)))
          CFI (cfiCond38) V1 load(1, XDATA, add(CFA_XSP16, literal(-9)))
          CFI (cfiCond38) V2 load(1, XDATA, add(CFA_XSP16, literal(-8)))
          CFI (cfiCond38) V3 load(1, XDATA, add(CFA_XSP16, literal(-7)))
          CFI (cfiCond38) R7 load(1, XDATA, add(CFA_XSP16, literal(-6)))
          CFI (cfiCond38) ?RET_LOW load(1, XDATA, add(CFA_XSP16, literal(-5)))
          CFI (cfiCond38) ?RET_HIGH load(1, XDATA, add(CFA_XSP16, literal(-4)))
          CFI (cfiCond38) ?BRET_EXT load(1, XDATA, add(CFA_XSP16, literal(-3)))
          CFI (cfiCond38) DPL0 load(1, XDATA, add(CFA_XSP16, literal(-2)))
          CFI (cfiCond38) DPH0 load(1, XDATA, add(CFA_XSP16, literal(-1)))
          CFI (cfiCond38) CFA_SP SP+-2
          CFI (cfiCond38) CFA_XSP16 add(XSP16, 24)
          CFI Block cfiPicker39 Using cfiCommon1
          CFI (cfiPicker39) NoFunction
          CFI (cfiPicker39) Picker
        MOV       A,R2
        ADD       A,#0x17
        MOV       DPL,A
        CLR       A
        ADDC      A,R3
        MOV       DPH,A
        RET
          CFI EndBlock cfiCond36
          CFI EndBlock cfiCond37
          CFI EndBlock cfiCond38
          CFI EndBlock cfiPicker39

        RSEG BANKED_CODE:HUGECODE:NOROOT(0)
?Subroutine25:
          CFI Block cfiCond40 Using cfiCommon0
          CFI Function zclSampleSensorEnviroment_CheckAndSendClusterAttrReport
          CFI Conditional ??CrossCallReturnLabel_29
          CFI R6 load(1, XDATA, add(CFA_XSP16, literal(-24)))
          CFI VB load(1, XDATA, add(CFA_XSP16, literal(-23)))
          CFI V0 load(1, XDATA, add(CFA_XSP16, literal(-22)))
          CFI V1 load(1, XDATA, add(CFA_XSP16, literal(-21)))
          CFI V2 load(1, XDATA, add(CFA_XSP16, literal(-20)))
          CFI V3 load(1, XDATA, add(CFA_XSP16, literal(-19)))
          CFI V4 load(1, XDATA, add(CFA_XSP16, literal(-18)))
          CFI V5 load(1, XDATA, add(CFA_XSP16, literal(-17)))
          CFI V6 load(1, XDATA, add(CFA_XSP16, literal(-16)))
          CFI V7 load(1, XDATA, add(CFA_XSP16, literal(-15)))
          CFI V8 load(1, XDATA, add(CFA_XSP16, literal(-14)))
          CFI V9 load(1, XDATA, add(CFA_XSP16, literal(-13)))
          CFI V10 load(1, XDATA, add(CFA_XSP16, literal(-12)))
          CFI V11 load(1, XDATA, add(CFA_XSP16, literal(-11)))
          CFI V12 load(1, XDATA, add(CFA_XSP16, literal(-10)))
          CFI V13 load(1, XDATA, add(CFA_XSP16, literal(-9)))
          CFI V14 load(1, XDATA, add(CFA_XSP16, literal(-8)))
          CFI V15 load(1, XDATA, add(CFA_XSP16, literal(-7)))
          CFI R7 load(1, XDATA, add(CFA_XSP16, literal(-6)))
          CFI ?RET_LOW load(1, XDATA, add(CFA_XSP16, literal(-5)))
          CFI ?RET_HIGH load(1, XDATA, add(CFA_XSP16, literal(-4)))
          CFI ?BRET_EXT load(1, XDATA, add(CFA_XSP16, literal(-3)))
          CFI DPL0 load(1, XDATA, add(CFA_XSP16, literal(-2)))
          CFI DPH0 load(1, XDATA, add(CFA_XSP16, literal(-1)))
          CFI CFA_SP SP+-2
          CFI CFA_XSP16 add(XSP16, 34)
          CFI Block cfiCond41 Using cfiCommon0
          CFI (cfiCond41) Function zclSampleSensorEnviroment_CheckAndSendClusterAttrReport
          CFI (cfiCond41) Conditional ??CrossCallReturnLabel_30
          CFI (cfiCond41) R6 load(1, XDATA, add(CFA_XSP16, literal(-24)))
          CFI (cfiCond41) VB load(1, XDATA, add(CFA_XSP16, literal(-23)))
          CFI (cfiCond41) V0 load(1, XDATA, add(CFA_XSP16, literal(-22)))
          CFI (cfiCond41) V1 load(1, XDATA, add(CFA_XSP16, literal(-21)))
          CFI (cfiCond41) V2 load(1, XDATA, add(CFA_XSP16, literal(-20)))
          CFI (cfiCond41) V3 load(1, XDATA, add(CFA_XSP16, literal(-19)))
          CFI (cfiCond41) V4 load(1, XDATA, add(CFA_XSP16, literal(-18)))
          CFI (cfiCond41) V5 load(1, XDATA, add(CFA_XSP16, literal(-17)))
          CFI (cfiCond41) V6 load(1, XDATA, add(CFA_XSP16, literal(-16)))
          CFI (cfiCond41) V7 load(1, XDATA, add(CFA_XSP16, literal(-15)))
          CFI (cfiCond41) V8 load(1, XDATA, add(CFA_XSP16, literal(-14)))
          CFI (cfiCond41) V9 load(1, XDATA, add(CFA_XSP16, literal(-13)))
          CFI (cfiCond41) V10 load(1, XDATA, add(CFA_XSP16, literal(-12)))
          CFI (cfiCond41) V11 load(1, XDATA, add(CFA_XSP16, literal(-11)))
          CFI (cfiCond41) V12 load(1, XDATA, add(CFA_XSP16, literal(-10)))
          CFI (cfiCond41) V13 load(1, XDATA, add(CFA_XSP16, literal(-9)))
          CFI (cfiCond41) V14 load(1, XDATA, add(CFA_XSP16, literal(-8)))
          CFI (cfiCond41) V15 load(1, XDATA, add(CFA_XSP16, literal(-7)))
          CFI (cfiCond41) R7 load(1, XDATA, add(CFA_XSP16, literal(-6)))
          CFI (cfiCond41) ?RET_LOW load(1, XDATA, add(CFA_XSP16, literal(-5)))
          CFI (cfiCond41) ?RET_HIGH load(1, XDATA, add(CFA_XSP16, literal(-4)))
          CFI (cfiCond41) ?BRET_EXT load(1, XDATA, add(CFA_XSP16, literal(-3)))
          CFI (cfiCond41) DPL0 load(1, XDATA, add(CFA_XSP16, literal(-2)))
          CFI (cfiCond41) DPH0 load(1, XDATA, add(CFA_XSP16, literal(-1)))
          CFI (cfiCond41) CFA_SP SP+-2
          CFI (cfiCond41) CFA_XSP16 add(XSP16, 34)
          CFI Block cfiPicker42 Using cfiCommon1
          CFI (cfiPicker42) NoFunction
          CFI (cfiPicker42) Picker
        LCALL     ?Subroutine34 & 0xFFFF
??CrossCallReturnLabel_73:
        MOV       A,#-0x1
        XRL       A,R0
        RET
          CFI EndBlock cfiCond40
          CFI EndBlock cfiCond41
          CFI EndBlock cfiPicker42

        RSEG BANKED_CODE:HUGECODE:NOROOT(0)
?Subroutine20:
          CFI Block cfiCond43 Using cfiCommon0
          CFI Function zclSampleSensorEnviroment_ProcessInConfigReportCmd
          CFI Conditional ??CrossCallReturnLabel_58
          CFI R6 load(1, XDATA, add(CFA_XSP16, literal(-24)))
          CFI VB load(1, XDATA, add(CFA_XSP16, literal(-23)))
          CFI V0 load(1, XDATA, add(CFA_XSP16, literal(-22)))
          CFI V1 load(1, XDATA, add(CFA_XSP16, literal(-21)))
          CFI V2 load(1, XDATA, add(CFA_XSP16, literal(-20)))
          CFI V3 load(1, XDATA, add(CFA_XSP16, literal(-19)))
          CFI V4 load(1, XDATA, add(CFA_XSP16, literal(-18)))
          CFI V5 load(1, XDATA, add(CFA_XSP16, literal(-17)))
          CFI V6 load(1, XDATA, add(CFA_XSP16, literal(-16)))
          CFI V7 load(1, XDATA, add(CFA_XSP16, literal(-15)))
          CFI V8 load(1, XDATA, add(CFA_XSP16, literal(-14)))
          CFI V9 load(1, XDATA, add(CFA_XSP16, literal(-13)))
          CFI V10 load(1, XDATA, add(CFA_XSP16, literal(-12)))
          CFI V11 load(1, XDATA, add(CFA_XSP16, literal(-11)))
          CFI V12 load(1, XDATA, add(CFA_XSP16, literal(-10)))
          CFI V13 load(1, XDATA, add(CFA_XSP16, literal(-9)))
          CFI V14 load(1, XDATA, add(CFA_XSP16, literal(-8)))
          CFI V15 load(1, XDATA, add(CFA_XSP16, literal(-7)))
          CFI R7 load(1, XDATA, add(CFA_XSP16, literal(-6)))
          CFI ?RET_LOW load(1, XDATA, add(CFA_XSP16, literal(-5)))
          CFI ?RET_HIGH load(1, XDATA, add(CFA_XSP16, literal(-4)))
          CFI ?BRET_EXT load(1, XDATA, add(CFA_XSP16, literal(-3)))
          CFI DPL0 load(1, XDATA, add(CFA_XSP16, literal(-2)))
          CFI DPH0 load(1, XDATA, add(CFA_XSP16, literal(-1)))
          CFI CFA_SP SP+-2
          CFI CFA_XSP16 add(XSP16, 41)
          CFI Block cfiCond44 Using cfiCommon0
          CFI (cfiCond44) Function zclSampleSensorEnviroment_ProcessInReadReportCfgCmd
          CFI (cfiCond44) Conditional ??CrossCallReturnLabel_59
          CFI (cfiCond44) R6 load(1, XDATA, add(CFA_XSP16, literal(-24)))
          CFI (cfiCond44) VB load(1, XDATA, add(CFA_XSP16, literal(-23)))
          CFI (cfiCond44) V0 load(1, XDATA, add(CFA_XSP16, literal(-22)))
          CFI (cfiCond44) V1 load(1, XDATA, add(CFA_XSP16, literal(-21)))
          CFI (cfiCond44) V2 load(1, XDATA, add(CFA_XSP16, literal(-20)))
          CFI (cfiCond44) V3 load(1, XDATA, add(CFA_XSP16, literal(-19)))
          CFI (cfiCond44) V4 load(1, XDATA, add(CFA_XSP16, literal(-18)))
          CFI (cfiCond44) V5 load(1, XDATA, add(CFA_XSP16, literal(-17)))
          CFI (cfiCond44) V6 load(1, XDATA, add(CFA_XSP16, literal(-16)))
          CFI (cfiCond44) V7 load(1, XDATA, add(CFA_XSP16, literal(-15)))
          CFI (cfiCond44) V8 load(1, XDATA, add(CFA_XSP16, literal(-14)))
          CFI (cfiCond44) V9 load(1, XDATA, add(CFA_XSP16, literal(-13)))
          CFI (cfiCond44) V10 load(1, XDATA, add(CFA_XSP16, literal(-12)))
          CFI (cfiCond44) V11 load(1, XDATA, add(CFA_XSP16, literal(-11)))
          CFI (cfiCond44) V12 load(1, XDATA, add(CFA_XSP16, literal(-10)))
          CFI (cfiCond44) V13 load(1, XDATA, add(CFA_XSP16, literal(-9)))
          CFI (cfiCond44) V14 load(1, XDATA, add(CFA_XSP16, literal(-8)))
          CFI (cfiCond44) V15 load(1, XDATA, add(CFA_XSP16, literal(-7)))
          CFI (cfiCond44) R7 load(1, XDATA, add(CFA_XSP16, literal(-6)))
          CFI (cfiCond44) ?RET_LOW load(1, XDATA, add(CFA_XSP16, literal(-5)))
          CFI (cfiCond44) ?RET_HIGH load(1, XDATA, add(CFA_XSP16, literal(-4)))
          CFI (cfiCond44) ?BRET_EXT load(1, XDATA, add(CFA_XSP16, literal(-3)))
          CFI (cfiCond44) DPL0 load(1, XDATA, add(CFA_XSP16, literal(-2)))
          CFI (cfiCond44) DPH0 load(1, XDATA, add(CFA_XSP16, literal(-1)))
          CFI (cfiCond44) CFA_SP SP+-2
          CFI (cfiCond44) CFA_XSP16 add(XSP16, 39)
          CFI Block cfiPicker45 Using cfiCommon1
          CFI (cfiPicker45) NoFunction
          CFI (cfiPicker45) Picker
        INC       DPTR
          CFI EndBlock cfiCond43
          CFI EndBlock cfiCond44
          CFI EndBlock cfiPicker45
        REQUIRE ??Subroutine44_0
        ; // Fall through to label ??Subroutine44_0

        RSEG BANKED_CODE:HUGECODE:NOROOT(0)
??Subroutine44_0:
          CFI Block cfiCond46 Using cfiCommon0
          CFI Function zclSampleSensorEnviroment_CheckAndSendClusterAttrReport
          CFI Conditional ??CrossCallReturnLabel_57
          CFI R6 load(1, XDATA, add(CFA_XSP16, literal(-24)))
          CFI VB load(1, XDATA, add(CFA_XSP16, literal(-23)))
          CFI V0 load(1, XDATA, add(CFA_XSP16, literal(-22)))
          CFI V1 load(1, XDATA, add(CFA_XSP16, literal(-21)))
          CFI V2 load(1, XDATA, add(CFA_XSP16, literal(-20)))
          CFI V3 load(1, XDATA, add(CFA_XSP16, literal(-19)))
          CFI V4 load(1, XDATA, add(CFA_XSP16, literal(-18)))
          CFI V5 load(1, XDATA, add(CFA_XSP16, literal(-17)))
          CFI V6 load(1, XDATA, add(CFA_XSP16, literal(-16)))
          CFI V7 load(1, XDATA, add(CFA_XSP16, literal(-15)))
          CFI V8 load(1, XDATA, add(CFA_XSP16, literal(-14)))
          CFI V9 load(1, XDATA, add(CFA_XSP16, literal(-13)))
          CFI V10 load(1, XDATA, add(CFA_XSP16, literal(-12)))
          CFI V11 load(1, XDATA, add(CFA_XSP16, literal(-11)))
          CFI V12 load(1, XDATA, add(CFA_XSP16, literal(-10)))
          CFI V13 load(1, XDATA, add(CFA_XSP16, literal(-9)))
          CFI V14 load(1, XDATA, add(CFA_XSP16, literal(-8)))
          CFI V15 load(1, XDATA, add(CFA_XSP16, literal(-7)))
          CFI R7 load(1, XDATA, add(CFA_XSP16, literal(-6)))
          CFI ?RET_LOW load(1, XDATA, add(CFA_XSP16, literal(-5)))
          CFI ?RET_HIGH load(1, XDATA, add(CFA_XSP16, literal(-4)))
          CFI ?BRET_EXT load(1, XDATA, add(CFA_XSP16, literal(-3)))
          CFI DPL0 load(1, XDATA, add(CFA_XSP16, literal(-2)))
          CFI DPH0 load(1, XDATA, add(CFA_XSP16, literal(-1)))
          CFI CFA_SP SP+-2
          CFI CFA_XSP16 add(XSP16, 36)
          CFI Block cfiCond47 Using cfiCommon0
          CFI (cfiCond47) Function zclSampleSensorEnviroment_ProcessInConfigReportCmd
          CFI (cfiCond47) Conditional ??CrossCallReturnLabel_58
          CFI (cfiCond47) R6 load(1, XDATA, add(CFA_XSP16, literal(-24)))
          CFI (cfiCond47) VB load(1, XDATA, add(CFA_XSP16, literal(-23)))
          CFI (cfiCond47) V0 load(1, XDATA, add(CFA_XSP16, literal(-22)))
          CFI (cfiCond47) V1 load(1, XDATA, add(CFA_XSP16, literal(-21)))
          CFI (cfiCond47) V2 load(1, XDATA, add(CFA_XSP16, literal(-20)))
          CFI (cfiCond47) V3 load(1, XDATA, add(CFA_XSP16, literal(-19)))
          CFI (cfiCond47) V4 load(1, XDATA, add(CFA_XSP16, literal(-18)))
          CFI (cfiCond47) V5 load(1, XDATA, add(CFA_XSP16, literal(-17)))
          CFI (cfiCond47) V6 load(1, XDATA, add(CFA_XSP16, literal(-16)))
          CFI (cfiCond47) V7 load(1, XDATA, add(CFA_XSP16, literal(-15)))
          CFI (cfiCond47) V8 load(1, XDATA, add(CFA_XSP16, literal(-14)))
          CFI (cfiCond47) V9 load(1, XDATA, add(CFA_XSP16, literal(-13)))
          CFI (cfiCond47) V10 load(1, XDATA, add(CFA_XSP16, literal(-12)))
          CFI (cfiCond47) V11 load(1, XDATA, add(CFA_XSP16, literal(-11)))
          CFI (cfiCond47) V12 load(1, XDATA, add(CFA_XSP16, literal(-10)))
          CFI (cfiCond47) V13 load(1, XDATA, add(CFA_XSP16, literal(-9)))
          CFI (cfiCond47) V14 load(1, XDATA, add(CFA_XSP16, literal(-8)))
          CFI (cfiCond47) V15 load(1, XDATA, add(CFA_XSP16, literal(-7)))
          CFI (cfiCond47) R7 load(1, XDATA, add(CFA_XSP16, literal(-6)))
          CFI (cfiCond47) ?RET_LOW load(1, XDATA, add(CFA_XSP16, literal(-5)))
          CFI (cfiCond47) ?RET_HIGH load(1, XDATA, add(CFA_XSP16, literal(-4)))
          CFI (cfiCond47) ?BRET_EXT load(1, XDATA, add(CFA_XSP16, literal(-3)))
          CFI (cfiCond47) DPL0 load(1, XDATA, add(CFA_XSP16, literal(-2)))
          CFI (cfiCond47) DPH0 load(1, XDATA, add(CFA_XSP16, literal(-1)))
          CFI (cfiCond47) CFA_SP SP+-2
          CFI (cfiCond47) CFA_XSP16 add(XSP16, 41)
          CFI Block cfiCond48 Using cfiCommon0
          CFI (cfiCond48) Function zclSampleSensorEnviroment_ProcessInReadReportCfgCmd
          CFI (cfiCond48) Conditional ??CrossCallReturnLabel_59
          CFI (cfiCond48) R6 load(1, XDATA, add(CFA_XSP16, literal(-24)))
          CFI (cfiCond48) VB load(1, XDATA, add(CFA_XSP16, literal(-23)))
          CFI (cfiCond48) V0 load(1, XDATA, add(CFA_XSP16, literal(-22)))
          CFI (cfiCond48) V1 load(1, XDATA, add(CFA_XSP16, literal(-21)))
          CFI (cfiCond48) V2 load(1, XDATA, add(CFA_XSP16, literal(-20)))
          CFI (cfiCond48) V3 load(1, XDATA, add(CFA_XSP16, literal(-19)))
          CFI (cfiCond48) V4 load(1, XDATA, add(CFA_XSP16, literal(-18)))
          CFI (cfiCond48) V5 load(1, XDATA, add(CFA_XSP16, literal(-17)))
          CFI (cfiCond48) V6 load(1, XDATA, add(CFA_XSP16, literal(-16)))
          CFI (cfiCond48) V7 load(1, XDATA, add(CFA_XSP16, literal(-15)))
          CFI (cfiCond48) V8 load(1, XDATA, add(CFA_XSP16, literal(-14)))
          CFI (cfiCond48) V9 load(1, XDATA, add(CFA_XSP16, literal(-13)))
          CFI (cfiCond48) V10 load(1, XDATA, add(CFA_XSP16, literal(-12)))
          CFI (cfiCond48) V11 load(1, XDATA, add(CFA_XSP16, literal(-11)))
          CFI (cfiCond48) V12 load(1, XDATA, add(CFA_XSP16, literal(-10)))
          CFI (cfiCond48) V13 load(1, XDATA, add(CFA_XSP16, literal(-9)))
          CFI (cfiCond48) V14 load(1, XDATA, add(CFA_XSP16, literal(-8)))
          CFI (cfiCond48) V15 load(1, XDATA, add(CFA_XSP16, literal(-7)))
          CFI (cfiCond48) R7 load(1, XDATA, add(CFA_XSP16, literal(-6)))
          CFI (cfiCond48) ?RET_LOW load(1, XDATA, add(CFA_XSP16, literal(-5)))
          CFI (cfiCond48) ?RET_HIGH load(1, XDATA, add(CFA_XSP16, literal(-4)))
          CFI (cfiCond48) ?BRET_EXT load(1, XDATA, add(CFA_XSP16, literal(-3)))
          CFI (cfiCond48) DPL0 load(1, XDATA, add(CFA_XSP16, literal(-2)))
          CFI (cfiCond48) DPH0 load(1, XDATA, add(CFA_XSP16, literal(-1)))
          CFI (cfiCond48) CFA_SP SP+-2
          CFI (cfiCond48) CFA_XSP16 add(XSP16, 39)
          CFI Block cfiPicker49 Using cfiCommon1
          CFI (cfiPicker49) NoFunction
          CFI (cfiPicker49) Picker
        INC       DPTR
        INC       DPTR
        INC       DPTR
        INC       DPTR
        INC       DPTR
        INC       DPTR
        INC       DPTR
          CFI EndBlock cfiCond46
          CFI EndBlock cfiCond47
          CFI EndBlock cfiCond48
          CFI EndBlock cfiPicker49
        REQUIRE ??Subroutine45_0
        ; // Fall through to label ??Subroutine45_0

        RSEG BANKED_CODE:HUGECODE:NOROOT(0)
??Subroutine45_0:
          CFI Block cfiCond50 Using cfiCommon0
          CFI Function zclSampleSensorEnviroment_ProcessInReportCmd
          CFI Conditional ??CrossCallReturnLabel_55
          CFI R6 load(1, XDATA, add(CFA_XSP16, literal(-12)))
          CFI VB load(1, XDATA, add(CFA_XSP16, literal(-11)))
          CFI V0 load(1, XDATA, add(CFA_XSP16, literal(-10)))
          CFI V1 load(1, XDATA, add(CFA_XSP16, literal(-9)))
          CFI V2 load(1, XDATA, add(CFA_XSP16, literal(-8)))
          CFI V3 load(1, XDATA, add(CFA_XSP16, literal(-7)))
          CFI R7 load(1, XDATA, add(CFA_XSP16, literal(-6)))
          CFI ?RET_LOW load(1, XDATA, add(CFA_XSP16, literal(-5)))
          CFI ?RET_HIGH load(1, XDATA, add(CFA_XSP16, literal(-4)))
          CFI ?BRET_EXT load(1, XDATA, add(CFA_XSP16, literal(-3)))
          CFI DPL0 load(1, XDATA, add(CFA_XSP16, literal(-2)))
          CFI DPH0 load(1, XDATA, add(CFA_XSP16, literal(-1)))
          CFI CFA_SP SP+-2
          CFI CFA_XSP16 add(XSP16, 29)
          CFI Block cfiCond51 Using cfiCommon0
          CFI (cfiCond51) Function zclSampleSensorEnviroment_CheckReportConfig
          CFI (cfiCond51) Conditional ??CrossCallReturnLabel_56
          CFI (cfiCond51) R6 load(1, XDATA, add(CFA_XSP16, literal(-17)))
          CFI (cfiCond51) VB load(1, XDATA, add(CFA_XSP16, literal(-16)))
          CFI (cfiCond51) V0 load(1, XDATA, add(CFA_XSP16, literal(-15)))
          CFI (cfiCond51) V1 load(1, XDATA, add(CFA_XSP16, literal(-14)))
          CFI (cfiCond51) V2 load(1, XDATA, add(CFA_XSP16, literal(-13)))
          CFI (cfiCond51) V3 load(1, XDATA, add(CFA_XSP16, literal(-12)))
          CFI (cfiCond51) V4 load(1, XDATA, add(CFA_XSP16, literal(-11)))
          CFI (cfiCond51) V5 load(1, XDATA, add(CFA_XSP16, literal(-10)))
          CFI (cfiCond51) V6 load(1, XDATA, add(CFA_XSP16, literal(-9)))
          CFI (cfiCond51) V7 load(1, XDATA, add(CFA_XSP16, literal(-8)))
          CFI (cfiCond51) V8 load(1, XDATA, add(CFA_XSP16, literal(-7)))
          CFI (cfiCond51) R7 load(1, XDATA, add(CFA_XSP16, literal(-6)))
          CFI (cfiCond51) ?RET_LOW load(1, XDATA, add(CFA_XSP16, literal(-5)))
          CFI (cfiCond51) ?RET_HIGH load(1, XDATA, add(CFA_XSP16, literal(-4)))
          CFI (cfiCond51) ?BRET_EXT load(1, XDATA, add(CFA_XSP16, literal(-3)))
          CFI (cfiCond51) DPL0 load(1, XDATA, add(CFA_XSP16, literal(-2)))
          CFI (cfiCond51) DPH0 load(1, XDATA, add(CFA_XSP16, literal(-1)))
          CFI (cfiCond51) CFA_SP SP+-2
          CFI (cfiCond51) CFA_XSP16 add(XSP16, 17)
          CFI Block cfiCond52 Using cfiCommon0
          CFI (cfiCond52) Function zclSampleSensorEnviroment_CheckAndSendClusterAttrReport
          CFI (cfiCond52) Conditional ??CrossCallReturnLabel_57
          CFI (cfiCond52) R6 load(1, XDATA, add(CFA_XSP16, literal(-24)))
          CFI (cfiCond52) VB load(1, XDATA, add(CFA_XSP16, literal(-23)))
          CFI (cfiCond52) V0 load(1, XDATA, add(CFA_XSP16, literal(-22)))
          CFI (cfiCond52) V1 load(1, XDATA, add(CFA_XSP16, literal(-21)))
          CFI (cfiCond52) V2 load(1, XDATA, add(CFA_XSP16, literal(-20)))
          CFI (cfiCond52) V3 load(1, XDATA, add(CFA_XSP16, literal(-19)))
          CFI (cfiCond52) V4 load(1, XDATA, add(CFA_XSP16, literal(-18)))
          CFI (cfiCond52) V5 load(1, XDATA, add(CFA_XSP16, literal(-17)))
          CFI (cfiCond52) V6 load(1, XDATA, add(CFA_XSP16, literal(-16)))
          CFI (cfiCond52) V7 load(1, XDATA, add(CFA_XSP16, literal(-15)))
          CFI (cfiCond52) V8 load(1, XDATA, add(CFA_XSP16, literal(-14)))
          CFI (cfiCond52) V9 load(1, XDATA, add(CFA_XSP16, literal(-13)))
          CFI (cfiCond52) V10 load(1, XDATA, add(CFA_XSP16, literal(-12)))
          CFI (cfiCond52) V11 load(1, XDATA, add(CFA_XSP16, literal(-11)))
          CFI (cfiCond52) V12 load(1, XDATA, add(CFA_XSP16, literal(-10)))
          CFI (cfiCond52) V13 load(1, XDATA, add(CFA_XSP16, literal(-9)))
          CFI (cfiCond52) V14 load(1, XDATA, add(CFA_XSP16, literal(-8)))
          CFI (cfiCond52) V15 load(1, XDATA, add(CFA_XSP16, literal(-7)))
          CFI (cfiCond52) R7 load(1, XDATA, add(CFA_XSP16, literal(-6)))
          CFI (cfiCond52) ?RET_LOW load(1, XDATA, add(CFA_XSP16, literal(-5)))
          CFI (cfiCond52) ?RET_HIGH load(1, XDATA, add(CFA_XSP16, literal(-4)))
          CFI (cfiCond52) ?BRET_EXT load(1, XDATA, add(CFA_XSP16, literal(-3)))
          CFI (cfiCond52) DPL0 load(1, XDATA, add(CFA_XSP16, literal(-2)))
          CFI (cfiCond52) DPH0 load(1, XDATA, add(CFA_XSP16, literal(-1)))
          CFI (cfiCond52) CFA_SP SP+-2
          CFI (cfiCond52) CFA_XSP16 add(XSP16, 36)
          CFI Block cfiCond53 Using cfiCommon0
          CFI (cfiCond53) Function zclSampleSensorEnviroment_ProcessInConfigReportCmd
          CFI (cfiCond53) Conditional ??CrossCallReturnLabel_58
          CFI (cfiCond53) R6 load(1, XDATA, add(CFA_XSP16, literal(-24)))
          CFI (cfiCond53) VB load(1, XDATA, add(CFA_XSP16, literal(-23)))
          CFI (cfiCond53) V0 load(1, XDATA, add(CFA_XSP16, literal(-22)))
          CFI (cfiCond53) V1 load(1, XDATA, add(CFA_XSP16, literal(-21)))
          CFI (cfiCond53) V2 load(1, XDATA, add(CFA_XSP16, literal(-20)))
          CFI (cfiCond53) V3 load(1, XDATA, add(CFA_XSP16, literal(-19)))
          CFI (cfiCond53) V4 load(1, XDATA, add(CFA_XSP16, literal(-18)))
          CFI (cfiCond53) V5 load(1, XDATA, add(CFA_XSP16, literal(-17)))
          CFI (cfiCond53) V6 load(1, XDATA, add(CFA_XSP16, literal(-16)))
          CFI (cfiCond53) V7 load(1, XDATA, add(CFA_XSP16, literal(-15)))
          CFI (cfiCond53) V8 load(1, XDATA, add(CFA_XSP16, literal(-14)))
          CFI (cfiCond53) V9 load(1, XDATA, add(CFA_XSP16, literal(-13)))
          CFI (cfiCond53) V10 load(1, XDATA, add(CFA_XSP16, literal(-12)))
          CFI (cfiCond53) V11 load(1, XDATA, add(CFA_XSP16, literal(-11)))
          CFI (cfiCond53) V12 load(1, XDATA, add(CFA_XSP16, literal(-10)))
          CFI (cfiCond53) V13 load(1, XDATA, add(CFA_XSP16, literal(-9)))
          CFI (cfiCond53) V14 load(1, XDATA, add(CFA_XSP16, literal(-8)))
          CFI (cfiCond53) V15 load(1, XDATA, add(CFA_XSP16, literal(-7)))
          CFI (cfiCond53) R7 load(1, XDATA, add(CFA_XSP16, literal(-6)))
          CFI (cfiCond53) ?RET_LOW load(1, XDATA, add(CFA_XSP16, literal(-5)))
          CFI (cfiCond53) ?RET_HIGH load(1, XDATA, add(CFA_XSP16, literal(-4)))
          CFI (cfiCond53) ?BRET_EXT load(1, XDATA, add(CFA_XSP16, literal(-3)))
          CFI (cfiCond53) DPL0 load(1, XDATA, add(CFA_XSP16, literal(-2)))
          CFI (cfiCond53) DPH0 load(1, XDATA, add(CFA_XSP16, literal(-1)))
          CFI (cfiCond53) CFA_SP SP+-2
          CFI (cfiCond53) CFA_XSP16 add(XSP16, 41)
          CFI Block cfiCond54 Using cfiCommon0
          CFI (cfiCond54) Function zclSampleSensorEnviroment_ProcessInReadReportCfgCmd
          CFI (cfiCond54) Conditional ??CrossCallReturnLabel_59
          CFI (cfiCond54) R6 load(1, XDATA, add(CFA_XSP16, literal(-24)))
          CFI (cfiCond54) VB load(1, XDATA, add(CFA_XSP16, literal(-23)))
          CFI (cfiCond54) V0 load(1, XDATA, add(CFA_XSP16, literal(-22)))
          CFI (cfiCond54) V1 load(1, XDATA, add(CFA_XSP16, literal(-21)))
          CFI (cfiCond54) V2 load(1, XDATA, add(CFA_XSP16, literal(-20)))
          CFI (cfiCond54) V3 load(1, XDATA, add(CFA_XSP16, literal(-19)))
          CFI (cfiCond54) V4 load(1, XDATA, add(CFA_XSP16, literal(-18)))
          CFI (cfiCond54) V5 load(1, XDATA, add(CFA_XSP16, literal(-17)))
          CFI (cfiCond54) V6 load(1, XDATA, add(CFA_XSP16, literal(-16)))
          CFI (cfiCond54) V7 load(1, XDATA, add(CFA_XSP16, literal(-15)))
          CFI (cfiCond54) V8 load(1, XDATA, add(CFA_XSP16, literal(-14)))
          CFI (cfiCond54) V9 load(1, XDATA, add(CFA_XSP16, literal(-13)))
          CFI (cfiCond54) V10 load(1, XDATA, add(CFA_XSP16, literal(-12)))
          CFI (cfiCond54) V11 load(1, XDATA, add(CFA_XSP16, literal(-11)))
          CFI (cfiCond54) V12 load(1, XDATA, add(CFA_XSP16, literal(-10)))
          CFI (cfiCond54) V13 load(1, XDATA, add(CFA_XSP16, literal(-9)))
          CFI (cfiCond54) V14 load(1, XDATA, add(CFA_XSP16, literal(-8)))
          CFI (cfiCond54) V15 load(1, XDATA, add(CFA_XSP16, literal(-7)))
          CFI (cfiCond54) R7 load(1, XDATA, add(CFA_XSP16, literal(-6)))
          CFI (cfiCond54) ?RET_LOW load(1, XDATA, add(CFA_XSP16, literal(-5)))
          CFI (cfiCond54) ?RET_HIGH load(1, XDATA, add(CFA_XSP16, literal(-4)))
          CFI (cfiCond54) ?BRET_EXT load(1, XDATA, add(CFA_XSP16, literal(-3)))
          CFI (cfiCond54) DPL0 load(1, XDATA, add(CFA_XSP16, literal(-2)))
          CFI (cfiCond54) DPH0 load(1, XDATA, add(CFA_XSP16, literal(-1)))
          CFI (cfiCond54) CFA_SP SP+-2
          CFI (cfiCond54) CFA_XSP16 add(XSP16, 39)
          CFI Block cfiPicker55 Using cfiCommon1
          CFI (cfiPicker55) NoFunction
          CFI (cfiPicker55) Picker
        MOVX      A,@DPTR
        MOV       R4,A
        INC       DPTR
        MOVX      A,@DPTR
        MOV       R5,A
        RET
          CFI EndBlock cfiCond50
          CFI EndBlock cfiCond51
          CFI EndBlock cfiCond52
          CFI EndBlock cfiCond53
          CFI EndBlock cfiCond54
          CFI EndBlock cfiPicker55

        RSEG BANKED_CODE:HUGECODE:NOROOT(0)
?Subroutine19:
          CFI Block cfiCond56 Using cfiCommon0
          CFI Function zclSampleSensorEnviroment_CheckAndSendClusterAttrReport
          CFI Conditional ??CrossCallReturnLabel_21
          CFI R6 load(1, XDATA, add(CFA_XSP16, literal(-24)))
          CFI VB load(1, XDATA, add(CFA_XSP16, literal(-23)))
          CFI V0 load(1, XDATA, add(CFA_XSP16, literal(-22)))
          CFI V1 load(1, XDATA, add(CFA_XSP16, literal(-21)))
          CFI V2 load(1, XDATA, add(CFA_XSP16, literal(-20)))
          CFI V3 load(1, XDATA, add(CFA_XSP16, literal(-19)))
          CFI V4 load(1, XDATA, add(CFA_XSP16, literal(-18)))
          CFI V5 load(1, XDATA, add(CFA_XSP16, literal(-17)))
          CFI V6 load(1, XDATA, add(CFA_XSP16, literal(-16)))
          CFI V7 load(1, XDATA, add(CFA_XSP16, literal(-15)))
          CFI V8 load(1, XDATA, add(CFA_XSP16, literal(-14)))
          CFI V9 load(1, XDATA, add(CFA_XSP16, literal(-13)))
          CFI V10 load(1, XDATA, add(CFA_XSP16, literal(-12)))
          CFI V11 load(1, XDATA, add(CFA_XSP16, literal(-11)))
          CFI V12 load(1, XDATA, add(CFA_XSP16, literal(-10)))
          CFI V13 load(1, XDATA, add(CFA_XSP16, literal(-9)))
          CFI V14 load(1, XDATA, add(CFA_XSP16, literal(-8)))
          CFI V15 load(1, XDATA, add(CFA_XSP16, literal(-7)))
          CFI R7 load(1, XDATA, add(CFA_XSP16, literal(-6)))
          CFI ?RET_LOW load(1, XDATA, add(CFA_XSP16, literal(-5)))
          CFI ?RET_HIGH load(1, XDATA, add(CFA_XSP16, literal(-4)))
          CFI ?BRET_EXT load(1, XDATA, add(CFA_XSP16, literal(-3)))
          CFI DPL0 load(1, XDATA, add(CFA_XSP16, literal(-2)))
          CFI DPH0 load(1, XDATA, add(CFA_XSP16, literal(-1)))
          CFI CFA_SP SP+-2
          CFI CFA_XSP16 add(XSP16, 34)
          CFI Block cfiCond57 Using cfiCommon0
          CFI (cfiCond57) Function zclSampleSensorEnviroment_CheckAndSendClusterAttrReport
          CFI (cfiCond57) Conditional ??CrossCallReturnLabel_22
          CFI (cfiCond57) R6 load(1, XDATA, add(CFA_XSP16, literal(-24)))
          CFI (cfiCond57) VB load(1, XDATA, add(CFA_XSP16, literal(-23)))
          CFI (cfiCond57) V0 load(1, XDATA, add(CFA_XSP16, literal(-22)))
          CFI (cfiCond57) V1 load(1, XDATA, add(CFA_XSP16, literal(-21)))
          CFI (cfiCond57) V2 load(1, XDATA, add(CFA_XSP16, literal(-20)))
          CFI (cfiCond57) V3 load(1, XDATA, add(CFA_XSP16, literal(-19)))
          CFI (cfiCond57) V4 load(1, XDATA, add(CFA_XSP16, literal(-18)))
          CFI (cfiCond57) V5 load(1, XDATA, add(CFA_XSP16, literal(-17)))
          CFI (cfiCond57) V6 load(1, XDATA, add(CFA_XSP16, literal(-16)))
          CFI (cfiCond57) V7 load(1, XDATA, add(CFA_XSP16, literal(-15)))
          CFI (cfiCond57) V8 load(1, XDATA, add(CFA_XSP16, literal(-14)))
          CFI (cfiCond57) V9 load(1, XDATA, add(CFA_XSP16, literal(-13)))
          CFI (cfiCond57) V10 load(1, XDATA, add(CFA_XSP16, literal(-12)))
          CFI (cfiCond57) V11 load(1, XDATA, add(CFA_XSP16, literal(-11)))
          CFI (cfiCond57) V12 load(1, XDATA, add(CFA_XSP16, literal(-10)))
          CFI (cfiCond57) V13 load(1, XDATA, add(CFA_XSP16, literal(-9)))
          CFI (cfiCond57) V14 load(1, XDATA, add(CFA_XSP16, literal(-8)))
          CFI (cfiCond57) V15 load(1, XDATA, add(CFA_XSP16, literal(-7)))
          CFI (cfiCond57) R7 load(1, XDATA, add(CFA_XSP16, literal(-6)))
          CFI (cfiCond57) ?RET_LOW load(1, XDATA, add(CFA_XSP16, literal(-5)))
          CFI (cfiCond57) ?RET_HIGH load(1, XDATA, add(CFA_XSP16, literal(-4)))
          CFI (cfiCond57) ?BRET_EXT load(1, XDATA, add(CFA_XSP16, literal(-3)))
          CFI (cfiCond57) DPL0 load(1, XDATA, add(CFA_XSP16, literal(-2)))
          CFI (cfiCond57) DPH0 load(1, XDATA, add(CFA_XSP16, literal(-1)))
          CFI (cfiCond57) CFA_SP SP+-2
          CFI (cfiCond57) CFA_XSP16 add(XSP16, 34)
          CFI Block cfiPicker58 Using cfiCommon1
          CFI (cfiPicker58) NoFunction
          CFI (cfiPicker58) Picker
        LCALL     ?Subroutine34 & 0xFFFF
??CrossCallReturnLabel_72:
        MOV       DPL,?V6
        MOV       DPH,?V7
        RET
          CFI EndBlock cfiCond56
          CFI EndBlock cfiCond57
          CFI EndBlock cfiPicker58

        RSEG BANKED_CODE:HUGECODE:NOROOT(0)
?Subroutine14:
          CFI Block cfiCond59 Using cfiCommon0
          CFI Function zclSampleSensorEnviroment_CheckAndSendClusterAttrReport
          CFI Conditional ??CrossCallReturnLabel_14
          CFI R6 load(1, XDATA, add(CFA_XSP16, literal(-24)))
          CFI VB load(1, XDATA, add(CFA_XSP16, literal(-23)))
          CFI V0 load(1, XDATA, add(CFA_XSP16, literal(-22)))
          CFI V1 load(1, XDATA, add(CFA_XSP16, literal(-21)))
          CFI V2 load(1, XDATA, add(CFA_XSP16, literal(-20)))
          CFI V3 load(1, XDATA, add(CFA_XSP16, literal(-19)))
          CFI V4 load(1, XDATA, add(CFA_XSP16, literal(-18)))
          CFI V5 load(1, XDATA, add(CFA_XSP16, literal(-17)))
          CFI V6 load(1, XDATA, add(CFA_XSP16, literal(-16)))
          CFI V7 load(1, XDATA, add(CFA_XSP16, literal(-15)))
          CFI V8 load(1, XDATA, add(CFA_XSP16, literal(-14)))
          CFI V9 load(1, XDATA, add(CFA_XSP16, literal(-13)))
          CFI V10 load(1, XDATA, add(CFA_XSP16, literal(-12)))
          CFI V11 load(1, XDATA, add(CFA_XSP16, literal(-11)))
          CFI V12 load(1, XDATA, add(CFA_XSP16, literal(-10)))
          CFI V13 load(1, XDATA, add(CFA_XSP16, literal(-9)))
          CFI V14 load(1, XDATA, add(CFA_XSP16, literal(-8)))
          CFI V15 load(1, XDATA, add(CFA_XSP16, literal(-7)))
          CFI R7 load(1, XDATA, add(CFA_XSP16, literal(-6)))
          CFI ?RET_LOW load(1, XDATA, add(CFA_XSP16, literal(-5)))
          CFI ?RET_HIGH load(1, XDATA, add(CFA_XSP16, literal(-4)))
          CFI ?BRET_EXT load(1, XDATA, add(CFA_XSP16, literal(-3)))
          CFI DPL0 load(1, XDATA, add(CFA_XSP16, literal(-2)))
          CFI DPH0 load(1, XDATA, add(CFA_XSP16, literal(-1)))
          CFI CFA_SP SP+-2
          CFI CFA_XSP16 add(XSP16, 34)
          CFI Block cfiCond60 Using cfiCommon0
          CFI (cfiCond60) Function zclSampleSensorEnviroment_CheckAndSendClusterAttrReport
          CFI (cfiCond60) Conditional ??CrossCallReturnLabel_15
          CFI (cfiCond60) R6 load(1, XDATA, add(CFA_XSP16, literal(-24)))
          CFI (cfiCond60) VB load(1, XDATA, add(CFA_XSP16, literal(-23)))
          CFI (cfiCond60) V0 load(1, XDATA, add(CFA_XSP16, literal(-22)))
          CFI (cfiCond60) V1 load(1, XDATA, add(CFA_XSP16, literal(-21)))
          CFI (cfiCond60) V2 load(1, XDATA, add(CFA_XSP16, literal(-20)))
          CFI (cfiCond60) V3 load(1, XDATA, add(CFA_XSP16, literal(-19)))
          CFI (cfiCond60) V4 load(1, XDATA, add(CFA_XSP16, literal(-18)))
          CFI (cfiCond60) V5 load(1, XDATA, add(CFA_XSP16, literal(-17)))
          CFI (cfiCond60) V6 load(1, XDATA, add(CFA_XSP16, literal(-16)))
          CFI (cfiCond60) V7 load(1, XDATA, add(CFA_XSP16, literal(-15)))
          CFI (cfiCond60) V8 load(1, XDATA, add(CFA_XSP16, literal(-14)))
          CFI (cfiCond60) V9 load(1, XDATA, add(CFA_XSP16, literal(-13)))
          CFI (cfiCond60) V10 load(1, XDATA, add(CFA_XSP16, literal(-12)))
          CFI (cfiCond60) V11 load(1, XDATA, add(CFA_XSP16, literal(-11)))
          CFI (cfiCond60) V12 load(1, XDATA, add(CFA_XSP16, literal(-10)))
          CFI (cfiCond60) V13 load(1, XDATA, add(CFA_XSP16, literal(-9)))
          CFI (cfiCond60) V14 load(1, XDATA, add(CFA_XSP16, literal(-8)))
          CFI (cfiCond60) V15 load(1, XDATA, add(CFA_XSP16, literal(-7)))
          CFI (cfiCond60) R7 load(1, XDATA, add(CFA_XSP16, literal(-6)))
          CFI (cfiCond60) ?RET_LOW load(1, XDATA, add(CFA_XSP16, literal(-5)))
          CFI (cfiCond60) ?RET_HIGH load(1, XDATA, add(CFA_XSP16, literal(-4)))
          CFI (cfiCond60) ?BRET_EXT load(1, XDATA, add(CFA_XSP16, literal(-3)))
          CFI (cfiCond60) DPL0 load(1, XDATA, add(CFA_XSP16, literal(-2)))
          CFI (cfiCond60) DPH0 load(1, XDATA, add(CFA_XSP16, literal(-1)))
          CFI (cfiCond60) CFA_SP SP+-2
          CFI (cfiCond60) CFA_XSP16 add(XSP16, 34)
          CFI Block cfiPicker61 Using cfiCommon1
          CFI (cfiPicker61) NoFunction
          CFI (cfiPicker61) Picker
        INC       DPTR
        INC       DPTR
        INC       DPTR
        INC       DPTR
        MOVX      A,@DPTR
        ADD       A,R0
        MOV       ?V2,A
        INC       DPTR
        MOVX      A,@DPTR
        ADDC      A,R1
        MOV       ?V3,A
        MOV       DPL,?V2
        MOV       DPH,A
        MOVX      A,@DPTR
        RET
          CFI EndBlock cfiCond59
          CFI EndBlock cfiCond60
          CFI EndBlock cfiPicker61

        RSEG BANKED_CODE:HUGECODE:NOROOT(0)
?Subroutine10:
          CFI Block cfiCond62 Using cfiCommon0
          CFI Function zclSampleSensorEnviroment_CheckAndSendClusterAttrReport
          CFI Conditional ??CrossCallReturnLabel_8
          CFI R6 load(1, XDATA, add(CFA_XSP16, literal(-24)))
          CFI VB load(1, XDATA, add(CFA_XSP16, literal(-23)))
          CFI V0 load(1, XDATA, add(CFA_XSP16, literal(-22)))
          CFI V1 load(1, XDATA, add(CFA_XSP16, literal(-21)))
          CFI V2 load(1, XDATA, add(CFA_XSP16, literal(-20)))
          CFI V3 load(1, XDATA, add(CFA_XSP16, literal(-19)))
          CFI V4 load(1, XDATA, add(CFA_XSP16, literal(-18)))
          CFI V5 load(1, XDATA, add(CFA_XSP16, literal(-17)))
          CFI V6 load(1, XDATA, add(CFA_XSP16, literal(-16)))
          CFI V7 load(1, XDATA, add(CFA_XSP16, literal(-15)))
          CFI V8 load(1, XDATA, add(CFA_XSP16, literal(-14)))
          CFI V9 load(1, XDATA, add(CFA_XSP16, literal(-13)))
          CFI V10 load(1, XDATA, add(CFA_XSP16, literal(-12)))
          CFI V11 load(1, XDATA, add(CFA_XSP16, literal(-11)))
          CFI V12 load(1, XDATA, add(CFA_XSP16, literal(-10)))
          CFI V13 load(1, XDATA, add(CFA_XSP16, literal(-9)))
          CFI V14 load(1, XDATA, add(CFA_XSP16, literal(-8)))
          CFI V15 load(1, XDATA, add(CFA_XSP16, literal(-7)))
          CFI R7 load(1, XDATA, add(CFA_XSP16, literal(-6)))
          CFI ?RET_LOW load(1, XDATA, add(CFA_XSP16, literal(-5)))
          CFI ?RET_HIGH load(1, XDATA, add(CFA_XSP16, literal(-4)))
          CFI ?BRET_EXT load(1, XDATA, add(CFA_XSP16, literal(-3)))
          CFI DPL0 load(1, XDATA, add(CFA_XSP16, literal(-2)))
          CFI DPH0 load(1, XDATA, add(CFA_XSP16, literal(-1)))
          CFI CFA_SP SP+-2
          CFI CFA_XSP16 add(XSP16, 34)
          CFI Block cfiCond63 Using cfiCommon0
          CFI (cfiCond63) Function zclSampleSensorEnviroment_CheckAndSendClusterAttrReport
          CFI (cfiCond63) Conditional ??CrossCallReturnLabel_9
          CFI (cfiCond63) R6 load(1, XDATA, add(CFA_XSP16, literal(-24)))
          CFI (cfiCond63) VB load(1, XDATA, add(CFA_XSP16, literal(-23)))
          CFI (cfiCond63) V0 load(1, XDATA, add(CFA_XSP16, literal(-22)))
          CFI (cfiCond63) V1 load(1, XDATA, add(CFA_XSP16, literal(-21)))
          CFI (cfiCond63) V2 load(1, XDATA, add(CFA_XSP16, literal(-20)))
          CFI (cfiCond63) V3 load(1, XDATA, add(CFA_XSP16, literal(-19)))
          CFI (cfiCond63) V4 load(1, XDATA, add(CFA_XSP16, literal(-18)))
          CFI (cfiCond63) V5 load(1, XDATA, add(CFA_XSP16, literal(-17)))
          CFI (cfiCond63) V6 load(1, XDATA, add(CFA_XSP16, literal(-16)))
          CFI (cfiCond63) V7 load(1, XDATA, add(CFA_XSP16, literal(-15)))
          CFI (cfiCond63) V8 load(1, XDATA, add(CFA_XSP16, literal(-14)))
          CFI (cfiCond63) V9 load(1, XDATA, add(CFA_XSP16, literal(-13)))
          CFI (cfiCond63) V10 load(1, XDATA, add(CFA_XSP16, literal(-12)))
          CFI (cfiCond63) V11 load(1, XDATA, add(CFA_XSP16, literal(-11)))
          CFI (cfiCond63) V12 load(1, XDATA, add(CFA_XSP16, literal(-10)))
          CFI (cfiCond63) V13 load(1, XDATA, add(CFA_XSP16, literal(-9)))
          CFI (cfiCond63) V14 load(1, XDATA, add(CFA_XSP16, literal(-8)))
          CFI (cfiCond63) V15 load(1, XDATA, add(CFA_XSP16, literal(-7)))
          CFI (cfiCond63) R7 load(1, XDATA, add(CFA_XSP16, literal(-6)))
          CFI (cfiCond63) ?RET_LOW load(1, XDATA, add(CFA_XSP16, literal(-5)))
          CFI (cfiCond63) ?RET_HIGH load(1, XDATA, add(CFA_XSP16, literal(-4)))
          CFI (cfiCond63) ?BRET_EXT load(1, XDATA, add(CFA_XSP16, literal(-3)))
          CFI (cfiCond63) DPL0 load(1, XDATA, add(CFA_XSP16, literal(-2)))
          CFI (cfiCond63) DPH0 load(1, XDATA, add(CFA_XSP16, literal(-1)))
          CFI (cfiCond63) CFA_SP SP+-2
          CFI (cfiCond63) CFA_XSP16 add(XSP16, 34)
          CFI Block cfiPicker64 Using cfiCommon1
          CFI (cfiPicker64) NoFunction
          CFI (cfiPicker64) Picker
        LCALL     ?Subroutine30 & 0xFFFF
??CrossCallReturnLabel_39:
        RET
          CFI EndBlock cfiCond62
          CFI EndBlock cfiCond63
          CFI EndBlock cfiPicker64

        RSEG BANKED_CODE:HUGECODE:NOROOT(0)
?Subroutine30:
          CFI Block cfiCond65 Using cfiCommon0
          CFI Function zclSampleSensorEnviroment_CheckAndSendClusterAttrReport
          CFI Conditional ??CrossCallReturnLabel_39, ??CrossCallReturnLabel_8
          CFI R6 load(1, XDATA, add(CFA_XSP16, literal(-24)))
          CFI VB load(1, XDATA, add(CFA_XSP16, literal(-23)))
          CFI V0 load(1, XDATA, add(CFA_XSP16, literal(-22)))
          CFI V1 load(1, XDATA, add(CFA_XSP16, literal(-21)))
          CFI V2 load(1, XDATA, add(CFA_XSP16, literal(-20)))
          CFI V3 load(1, XDATA, add(CFA_XSP16, literal(-19)))
          CFI V4 load(1, XDATA, add(CFA_XSP16, literal(-18)))
          CFI V5 load(1, XDATA, add(CFA_XSP16, literal(-17)))
          CFI V6 load(1, XDATA, add(CFA_XSP16, literal(-16)))
          CFI V7 load(1, XDATA, add(CFA_XSP16, literal(-15)))
          CFI V8 load(1, XDATA, add(CFA_XSP16, literal(-14)))
          CFI V9 load(1, XDATA, add(CFA_XSP16, literal(-13)))
          CFI V10 load(1, XDATA, add(CFA_XSP16, literal(-12)))
          CFI V11 load(1, XDATA, add(CFA_XSP16, literal(-11)))
          CFI V12 load(1, XDATA, add(CFA_XSP16, literal(-10)))
          CFI V13 load(1, XDATA, add(CFA_XSP16, literal(-9)))
          CFI V14 load(1, XDATA, add(CFA_XSP16, literal(-8)))
          CFI V15 load(1, XDATA, add(CFA_XSP16, literal(-7)))
          CFI R7 load(1, XDATA, add(CFA_XSP16, literal(-6)))
          CFI ?RET_LOW load(1, XDATA, add(CFA_XSP16, literal(-5)))
          CFI ?RET_HIGH load(1, XDATA, add(CFA_XSP16, literal(-4)))
          CFI ?BRET_EXT load(1, XDATA, add(CFA_XSP16, literal(-3)))
          CFI DPL0 load(1, XDATA, add(CFA_XSP16, literal(-2)))
          CFI DPH0 load(1, XDATA, add(CFA_XSP16, literal(-1)))
          CFI CFA_SP SP+-4
          CFI CFA_XSP16 add(XSP16, 34)
          CFI Block cfiCond66 Using cfiCommon0
          CFI (cfiCond66) Function zclSampleSensorEnviroment_CheckAndSendClusterAttrReport
          CFI (cfiCond66) Conditional ??CrossCallReturnLabel_39, ??CrossCallReturnLabel_9
          CFI (cfiCond66) R6 load(1, XDATA, add(CFA_XSP16, literal(-24)))
          CFI (cfiCond66) VB load(1, XDATA, add(CFA_XSP16, literal(-23)))
          CFI (cfiCond66) V0 load(1, XDATA, add(CFA_XSP16, literal(-22)))
          CFI (cfiCond66) V1 load(1, XDATA, add(CFA_XSP16, literal(-21)))
          CFI (cfiCond66) V2 load(1, XDATA, add(CFA_XSP16, literal(-20)))
          CFI (cfiCond66) V3 load(1, XDATA, add(CFA_XSP16, literal(-19)))
          CFI (cfiCond66) V4 load(1, XDATA, add(CFA_XSP16, literal(-18)))
          CFI (cfiCond66) V5 load(1, XDATA, add(CFA_XSP16, literal(-17)))
          CFI (cfiCond66) V6 load(1, XDATA, add(CFA_XSP16, literal(-16)))
          CFI (cfiCond66) V7 load(1, XDATA, add(CFA_XSP16, literal(-15)))
          CFI (cfiCond66) V8 load(1, XDATA, add(CFA_XSP16, literal(-14)))
          CFI (cfiCond66) V9 load(1, XDATA, add(CFA_XSP16, literal(-13)))
          CFI (cfiCond66) V10 load(1, XDATA, add(CFA_XSP16, literal(-12)))
          CFI (cfiCond66) V11 load(1, XDATA, add(CFA_XSP16, literal(-11)))
          CFI (cfiCond66) V12 load(1, XDATA, add(CFA_XSP16, literal(-10)))
          CFI (cfiCond66) V13 load(1, XDATA, add(CFA_XSP16, literal(-9)))
          CFI (cfiCond66) V14 load(1, XDATA, add(CFA_XSP16, literal(-8)))
          CFI (cfiCond66) V15 load(1, XDATA, add(CFA_XSP16, literal(-7)))
          CFI (cfiCond66) R7 load(1, XDATA, add(CFA_XSP16, literal(-6)))
          CFI (cfiCond66) ?RET_LOW load(1, XDATA, add(CFA_XSP16, literal(-5)))
          CFI (cfiCond66) ?RET_HIGH load(1, XDATA, add(CFA_XSP16, literal(-4)))
          CFI (cfiCond66) ?BRET_EXT load(1, XDATA, add(CFA_XSP16, literal(-3)))
          CFI (cfiCond66) DPL0 load(1, XDATA, add(CFA_XSP16, literal(-2)))
          CFI (cfiCond66) DPH0 load(1, XDATA, add(CFA_XSP16, literal(-1)))
          CFI (cfiCond66) CFA_SP SP+-4
          CFI (cfiCond66) CFA_XSP16 add(XSP16, 34)
          CFI Block cfiCond67 Using cfiCommon0
          CFI (cfiCond67) Function zclSampleSensorEnviroment_CheckAndSendClusterAttrReport
          CFI (cfiCond67) Conditional ??CrossCallReturnLabel_38, ??CrossCallReturnLabel_6
          CFI (cfiCond67) R6 load(1, XDATA, add(CFA_XSP16, literal(-24)))
          CFI (cfiCond67) VB load(1, XDATA, add(CFA_XSP16, literal(-23)))
          CFI (cfiCond67) V0 load(1, XDATA, add(CFA_XSP16, literal(-22)))
          CFI (cfiCond67) V1 load(1, XDATA, add(CFA_XSP16, literal(-21)))
          CFI (cfiCond67) V2 load(1, XDATA, add(CFA_XSP16, literal(-20)))
          CFI (cfiCond67) V3 load(1, XDATA, add(CFA_XSP16, literal(-19)))
          CFI (cfiCond67) V4 load(1, XDATA, add(CFA_XSP16, literal(-18)))
          CFI (cfiCond67) V5 load(1, XDATA, add(CFA_XSP16, literal(-17)))
          CFI (cfiCond67) V6 load(1, XDATA, add(CFA_XSP16, literal(-16)))
          CFI (cfiCond67) V7 load(1, XDATA, add(CFA_XSP16, literal(-15)))
          CFI (cfiCond67) V8 load(1, XDATA, add(CFA_XSP16, literal(-14)))
          CFI (cfiCond67) V9 load(1, XDATA, add(CFA_XSP16, literal(-13)))
          CFI (cfiCond67) V10 load(1, XDATA, add(CFA_XSP16, literal(-12)))
          CFI (cfiCond67) V11 load(1, XDATA, add(CFA_XSP16, literal(-11)))
          CFI (cfiCond67) V12 load(1, XDATA, add(CFA_XSP16, literal(-10)))
          CFI (cfiCond67) V13 load(1, XDATA, add(CFA_XSP16, literal(-9)))
          CFI (cfiCond67) V14 load(1, XDATA, add(CFA_XSP16, literal(-8)))
          CFI (cfiCond67) V15 load(1, XDATA, add(CFA_XSP16, literal(-7)))
          CFI (cfiCond67) R7 load(1, XDATA, add(CFA_XSP16, literal(-6)))
          CFI (cfiCond67) ?RET_LOW load(1, XDATA, add(CFA_XSP16, literal(-5)))
          CFI (cfiCond67) ?RET_HIGH load(1, XDATA, add(CFA_XSP16, literal(-4)))
          CFI (cfiCond67) ?BRET_EXT load(1, XDATA, add(CFA_XSP16, literal(-3)))
          CFI (cfiCond67) DPL0 load(1, XDATA, add(CFA_XSP16, literal(-2)))
          CFI (cfiCond67) DPH0 load(1, XDATA, add(CFA_XSP16, literal(-1)))
          CFI (cfiCond67) CFA_SP SP+-4
          CFI (cfiCond67) CFA_XSP16 add(XSP16, 34)
          CFI Block cfiCond68 Using cfiCommon0
          CFI (cfiCond68) Function zclSampleSensorEnviroment_CheckAndSendClusterAttrReport
          CFI (cfiCond68) Conditional ??CrossCallReturnLabel_38, ??CrossCallReturnLabel_7
          CFI (cfiCond68) R6 load(1, XDATA, add(CFA_XSP16, literal(-24)))
          CFI (cfiCond68) VB load(1, XDATA, add(CFA_XSP16, literal(-23)))
          CFI (cfiCond68) V0 load(1, XDATA, add(CFA_XSP16, literal(-22)))
          CFI (cfiCond68) V1 load(1, XDATA, add(CFA_XSP16, literal(-21)))
          CFI (cfiCond68) V2 load(1, XDATA, add(CFA_XSP16, literal(-20)))
          CFI (cfiCond68) V3 load(1, XDATA, add(CFA_XSP16, literal(-19)))
          CFI (cfiCond68) V4 load(1, XDATA, add(CFA_XSP16, literal(-18)))
          CFI (cfiCond68) V5 load(1, XDATA, add(CFA_XSP16, literal(-17)))
          CFI (cfiCond68) V6 load(1, XDATA, add(CFA_XSP16, literal(-16)))
          CFI (cfiCond68) V7 load(1, XDATA, add(CFA_XSP16, literal(-15)))
          CFI (cfiCond68) V8 load(1, XDATA, add(CFA_XSP16, literal(-14)))
          CFI (cfiCond68) V9 load(1, XDATA, add(CFA_XSP16, literal(-13)))
          CFI (cfiCond68) V10 load(1, XDATA, add(CFA_XSP16, literal(-12)))
          CFI (cfiCond68) V11 load(1, XDATA, add(CFA_XSP16, literal(-11)))
          CFI (cfiCond68) V12 load(1, XDATA, add(CFA_XSP16, literal(-10)))
          CFI (cfiCond68) V13 load(1, XDATA, add(CFA_XSP16, literal(-9)))
          CFI (cfiCond68) V14 load(1, XDATA, add(CFA_XSP16, literal(-8)))
          CFI (cfiCond68) V15 load(1, XDATA, add(CFA_XSP16, literal(-7)))
          CFI (cfiCond68) R7 load(1, XDATA, add(CFA_XSP16, literal(-6)))
          CFI (cfiCond68) ?RET_LOW load(1, XDATA, add(CFA_XSP16, literal(-5)))
          CFI (cfiCond68) ?RET_HIGH load(1, XDATA, add(CFA_XSP16, literal(-4)))
          CFI (cfiCond68) ?BRET_EXT load(1, XDATA, add(CFA_XSP16, literal(-3)))
          CFI (cfiCond68) DPL0 load(1, XDATA, add(CFA_XSP16, literal(-2)))
          CFI (cfiCond68) DPH0 load(1, XDATA, add(CFA_XSP16, literal(-1)))
          CFI (cfiCond68) CFA_SP SP+-4
          CFI (cfiCond68) CFA_XSP16 add(XSP16, 34)
          CFI Block cfiPicker69 Using cfiCommon1
          CFI (cfiPicker69) NoFunction
          CFI (cfiPicker69) Picker
        LCALL     ?Subroutine38 & 0xFFFF
??CrossCallReturnLabel_47:
        INC       DPTR
        INC       DPTR
        RET
          CFI EndBlock cfiCond65
          CFI EndBlock cfiCond66
          CFI EndBlock cfiCond67
          CFI EndBlock cfiCond68
          CFI EndBlock cfiPicker69

        RSEG BANKED_CODE:HUGECODE:NOROOT(0)
?Subroutine38:
          CFI Block cfiCond70 Using cfiCommon0
          CFI Function zclSampleSensorEnviroment_CheckAndSendClusterAttrReport
          CFI Conditional ??CrossCallReturnLabel_46
          CFI R6 load(1, XDATA, add(CFA_XSP16, literal(-24)))
          CFI VB load(1, XDATA, add(CFA_XSP16, literal(-23)))
          CFI V0 load(1, XDATA, add(CFA_XSP16, literal(-22)))
          CFI V1 load(1, XDATA, add(CFA_XSP16, literal(-21)))
          CFI V2 load(1, XDATA, add(CFA_XSP16, literal(-20)))
          CFI V3 load(1, XDATA, add(CFA_XSP16, literal(-19)))
          CFI V4 load(1, XDATA, add(CFA_XSP16, literal(-18)))
          CFI V5 load(1, XDATA, add(CFA_XSP16, literal(-17)))
          CFI V6 load(1, XDATA, add(CFA_XSP16, literal(-16)))
          CFI V7 load(1, XDATA, add(CFA_XSP16, literal(-15)))
          CFI V8 load(1, XDATA, add(CFA_XSP16, literal(-14)))
          CFI V9 load(1, XDATA, add(CFA_XSP16, literal(-13)))
          CFI V10 load(1, XDATA, add(CFA_XSP16, literal(-12)))
          CFI V11 load(1, XDATA, add(CFA_XSP16, literal(-11)))
          CFI V12 load(1, XDATA, add(CFA_XSP16, literal(-10)))
          CFI V13 load(1, XDATA, add(CFA_XSP16, literal(-9)))
          CFI V14 load(1, XDATA, add(CFA_XSP16, literal(-8)))
          CFI V15 load(1, XDATA, add(CFA_XSP16, literal(-7)))
          CFI R7 load(1, XDATA, add(CFA_XSP16, literal(-6)))
          CFI ?RET_LOW load(1, XDATA, add(CFA_XSP16, literal(-5)))
          CFI ?RET_HIGH load(1, XDATA, add(CFA_XSP16, literal(-4)))
          CFI ?BRET_EXT load(1, XDATA, add(CFA_XSP16, literal(-3)))
          CFI DPL0 load(1, XDATA, add(CFA_XSP16, literal(-2)))
          CFI DPH0 load(1, XDATA, add(CFA_XSP16, literal(-1)))
          CFI CFA_SP SP+-2
          CFI CFA_XSP16 add(XSP16, 34)
          CFI Block cfiCond71 Using cfiCommon0
          CFI (cfiCond71) Function zclSampleSensorEnviroment_CheckAndSendClusterAttrReport
          CFI (cfiCond71) Conditional ??CrossCallReturnLabel_47, ??CrossCallReturnLabel_39, ??CrossCallReturnLabel_8
          CFI (cfiCond71) R6 load(1, XDATA, add(CFA_XSP16, literal(-24)))
          CFI (cfiCond71) VB load(1, XDATA, add(CFA_XSP16, literal(-23)))
          CFI (cfiCond71) V0 load(1, XDATA, add(CFA_XSP16, literal(-22)))
          CFI (cfiCond71) V1 load(1, XDATA, add(CFA_XSP16, literal(-21)))
          CFI (cfiCond71) V2 load(1, XDATA, add(CFA_XSP16, literal(-20)))
          CFI (cfiCond71) V3 load(1, XDATA, add(CFA_XSP16, literal(-19)))
          CFI (cfiCond71) V4 load(1, XDATA, add(CFA_XSP16, literal(-18)))
          CFI (cfiCond71) V5 load(1, XDATA, add(CFA_XSP16, literal(-17)))
          CFI (cfiCond71) V6 load(1, XDATA, add(CFA_XSP16, literal(-16)))
          CFI (cfiCond71) V7 load(1, XDATA, add(CFA_XSP16, literal(-15)))
          CFI (cfiCond71) V8 load(1, XDATA, add(CFA_XSP16, literal(-14)))
          CFI (cfiCond71) V9 load(1, XDATA, add(CFA_XSP16, literal(-13)))
          CFI (cfiCond71) V10 load(1, XDATA, add(CFA_XSP16, literal(-12)))
          CFI (cfiCond71) V11 load(1, XDATA, add(CFA_XSP16, literal(-11)))
          CFI (cfiCond71) V12 load(1, XDATA, add(CFA_XSP16, literal(-10)))
          CFI (cfiCond71) V13 load(1, XDATA, add(CFA_XSP16, literal(-9)))
          CFI (cfiCond71) V14 load(1, XDATA, add(CFA_XSP16, literal(-8)))
          CFI (cfiCond71) V15 load(1, XDATA, add(CFA_XSP16, literal(-7)))
          CFI (cfiCond71) R7 load(1, XDATA, add(CFA_XSP16, literal(-6)))
          CFI (cfiCond71) ?RET_LOW load(1, XDATA, add(CFA_XSP16, literal(-5)))
          CFI (cfiCond71) ?RET_HIGH load(1, XDATA, add(CFA_XSP16, literal(-4)))
          CFI (cfiCond71) ?BRET_EXT load(1, XDATA, add(CFA_XSP16, literal(-3)))
          CFI (cfiCond71) DPL0 load(1, XDATA, add(CFA_XSP16, literal(-2)))
          CFI (cfiCond71) DPH0 load(1, XDATA, add(CFA_XSP16, literal(-1)))
          CFI (cfiCond71) CFA_SP SP+-6
          CFI (cfiCond71) CFA_XSP16 add(XSP16, 34)
          CFI Block cfiCond72 Using cfiCommon0
          CFI (cfiCond72) Function zclSampleSensorEnviroment_CheckAndSendClusterAttrReport
          CFI (cfiCond72) Conditional ??CrossCallReturnLabel_47, ??CrossCallReturnLabel_39, ??CrossCallReturnLabel_9
          CFI (cfiCond72) R6 load(1, XDATA, add(CFA_XSP16, literal(-24)))
          CFI (cfiCond72) VB load(1, XDATA, add(CFA_XSP16, literal(-23)))
          CFI (cfiCond72) V0 load(1, XDATA, add(CFA_XSP16, literal(-22)))
          CFI (cfiCond72) V1 load(1, XDATA, add(CFA_XSP16, literal(-21)))
          CFI (cfiCond72) V2 load(1, XDATA, add(CFA_XSP16, literal(-20)))
          CFI (cfiCond72) V3 load(1, XDATA, add(CFA_XSP16, literal(-19)))
          CFI (cfiCond72) V4 load(1, XDATA, add(CFA_XSP16, literal(-18)))
          CFI (cfiCond72) V5 load(1, XDATA, add(CFA_XSP16, literal(-17)))
          CFI (cfiCond72) V6 load(1, XDATA, add(CFA_XSP16, literal(-16)))
          CFI (cfiCond72) V7 load(1, XDATA, add(CFA_XSP16, literal(-15)))
          CFI (cfiCond72) V8 load(1, XDATA, add(CFA_XSP16, literal(-14)))
          CFI (cfiCond72) V9 load(1, XDATA, add(CFA_XSP16, literal(-13)))
          CFI (cfiCond72) V10 load(1, XDATA, add(CFA_XSP16, literal(-12)))
          CFI (cfiCond72) V11 load(1, XDATA, add(CFA_XSP16, literal(-11)))
          CFI (cfiCond72) V12 load(1, XDATA, add(CFA_XSP16, literal(-10)))
          CFI (cfiCond72) V13 load(1, XDATA, add(CFA_XSP16, literal(-9)))
          CFI (cfiCond72) V14 load(1, XDATA, add(CFA_XSP16, literal(-8)))
          CFI (cfiCond72) V15 load(1, XDATA, add(CFA_XSP16, literal(-7)))
          CFI (cfiCond72) R7 load(1, XDATA, add(CFA_XSP16, literal(-6)))
          CFI (cfiCond72) ?RET_LOW load(1, XDATA, add(CFA_XSP16, literal(-5)))
          CFI (cfiCond72) ?RET_HIGH load(1, XDATA, add(CFA_XSP16, literal(-4)))
          CFI (cfiCond72) ?BRET_EXT load(1, XDATA, add(CFA_XSP16, literal(-3)))
          CFI (cfiCond72) DPL0 load(1, XDATA, add(CFA_XSP16, literal(-2)))
          CFI (cfiCond72) DPH0 load(1, XDATA, add(CFA_XSP16, literal(-1)))
          CFI (cfiCond72) CFA_SP SP+-6
          CFI (cfiCond72) CFA_XSP16 add(XSP16, 34)
          CFI Block cfiCond73 Using cfiCommon0
          CFI (cfiCond73) Function zclSampleSensorEnviroment_CheckAndSendClusterAttrReport
          CFI (cfiCond73) Conditional ??CrossCallReturnLabel_47, ??CrossCallReturnLabel_38, ??CrossCallReturnLabel_6
          CFI (cfiCond73) R6 load(1, XDATA, add(CFA_XSP16, literal(-24)))
          CFI (cfiCond73) VB load(1, XDATA, add(CFA_XSP16, literal(-23)))
          CFI (cfiCond73) V0 load(1, XDATA, add(CFA_XSP16, literal(-22)))
          CFI (cfiCond73) V1 load(1, XDATA, add(CFA_XSP16, literal(-21)))
          CFI (cfiCond73) V2 load(1, XDATA, add(CFA_XSP16, literal(-20)))
          CFI (cfiCond73) V3 load(1, XDATA, add(CFA_XSP16, literal(-19)))
          CFI (cfiCond73) V4 load(1, XDATA, add(CFA_XSP16, literal(-18)))
          CFI (cfiCond73) V5 load(1, XDATA, add(CFA_XSP16, literal(-17)))
          CFI (cfiCond73) V6 load(1, XDATA, add(CFA_XSP16, literal(-16)))
          CFI (cfiCond73) V7 load(1, XDATA, add(CFA_XSP16, literal(-15)))
          CFI (cfiCond73) V8 load(1, XDATA, add(CFA_XSP16, literal(-14)))
          CFI (cfiCond73) V9 load(1, XDATA, add(CFA_XSP16, literal(-13)))
          CFI (cfiCond73) V10 load(1, XDATA, add(CFA_XSP16, literal(-12)))
          CFI (cfiCond73) V11 load(1, XDATA, add(CFA_XSP16, literal(-11)))
          CFI (cfiCond73) V12 load(1, XDATA, add(CFA_XSP16, literal(-10)))
          CFI (cfiCond73) V13 load(1, XDATA, add(CFA_XSP16, literal(-9)))
          CFI (cfiCond73) V14 load(1, XDATA, add(CFA_XSP16, literal(-8)))
          CFI (cfiCond73) V15 load(1, XDATA, add(CFA_XSP16, literal(-7)))
          CFI (cfiCond73) R7 load(1, XDATA, add(CFA_XSP16, literal(-6)))
          CFI (cfiCond73) ?RET_LOW load(1, XDATA, add(CFA_XSP16, literal(-5)))
          CFI (cfiCond73) ?RET_HIGH load(1, XDATA, add(CFA_XSP16, literal(-4)))
          CFI (cfiCond73) ?BRET_EXT load(1, XDATA, add(CFA_XSP16, literal(-3)))
          CFI (cfiCond73) DPL0 load(1, XDATA, add(CFA_XSP16, literal(-2)))
          CFI (cfiCond73) DPH0 load(1, XDATA, add(CFA_XSP16, literal(-1)))
          CFI (cfiCond73) CFA_SP SP+-6
          CFI (cfiCond73) CFA_XSP16 add(XSP16, 34)
          CFI Block cfiCond74 Using cfiCommon0
          CFI (cfiCond74) Function zclSampleSensorEnviroment_CheckAndSendClusterAttrReport
          CFI (cfiCond74) Conditional ??CrossCallReturnLabel_47, ??CrossCallReturnLabel_38, ??CrossCallReturnLabel_7
          CFI (cfiCond74) R6 load(1, XDATA, add(CFA_XSP16, literal(-24)))
          CFI (cfiCond74) VB load(1, XDATA, add(CFA_XSP16, literal(-23)))
          CFI (cfiCond74) V0 load(1, XDATA, add(CFA_XSP16, literal(-22)))
          CFI (cfiCond74) V1 load(1, XDATA, add(CFA_XSP16, literal(-21)))
          CFI (cfiCond74) V2 load(1, XDATA, add(CFA_XSP16, literal(-20)))
          CFI (cfiCond74) V3 load(1, XDATA, add(CFA_XSP16, literal(-19)))
          CFI (cfiCond74) V4 load(1, XDATA, add(CFA_XSP16, literal(-18)))
          CFI (cfiCond74) V5 load(1, XDATA, add(CFA_XSP16, literal(-17)))
          CFI (cfiCond74) V6 load(1, XDATA, add(CFA_XSP16, literal(-16)))
          CFI (cfiCond74) V7 load(1, XDATA, add(CFA_XSP16, literal(-15)))
          CFI (cfiCond74) V8 load(1, XDATA, add(CFA_XSP16, literal(-14)))
          CFI (cfiCond74) V9 load(1, XDATA, add(CFA_XSP16, literal(-13)))
          CFI (cfiCond74) V10 load(1, XDATA, add(CFA_XSP16, literal(-12)))
          CFI (cfiCond74) V11 load(1, XDATA, add(CFA_XSP16, literal(-11)))
          CFI (cfiCond74) V12 load(1, XDATA, add(CFA_XSP16, literal(-10)))
          CFI (cfiCond74) V13 load(1, XDATA, add(CFA_XSP16, literal(-9)))
          CFI (cfiCond74) V14 load(1, XDATA, add(CFA_XSP16, literal(-8)))
          CFI (cfiCond74) V15 load(1, XDATA, add(CFA_XSP16, literal(-7)))
          CFI (cfiCond74) R7 load(1, XDATA, add(CFA_XSP16, literal(-6)))
          CFI (cfiCond74) ?RET_LOW load(1, XDATA, add(CFA_XSP16, literal(-5)))
          CFI (cfiCond74) ?RET_HIGH load(1, XDATA, add(CFA_XSP16, literal(-4)))
          CFI (cfiCond74) ?BRET_EXT load(1, XDATA, add(CFA_XSP16, literal(-3)))
          CFI (cfiCond74) DPL0 load(1, XDATA, add(CFA_XSP16, literal(-2)))
          CFI (cfiCond74) DPH0 load(1, XDATA, add(CFA_XSP16, literal(-1)))
          CFI (cfiCond74) CFA_SP SP+-6
          CFI (cfiCond74) CFA_XSP16 add(XSP16, 34)
          CFI Block cfiPicker75 Using cfiCommon1
          CFI (cfiPicker75) NoFunction
          CFI (cfiPicker75) Picker
        MOVX      @DPTR,A
        MOV       DPL,R2
        MOV       DPH,R3
        INC       DPTR
        INC       DPTR
        INC       DPTR
        INC       DPTR
        RET
          CFI EndBlock cfiCond70
          CFI EndBlock cfiCond71
          CFI EndBlock cfiCond72
          CFI EndBlock cfiCond73
          CFI EndBlock cfiCond74
          CFI EndBlock cfiPicker75

        RSEG BANKED_CODE:HUGECODE:NOROOT(0)
?Subroutine9:
          CFI Block cfiCond76 Using cfiCommon0
          CFI Function zclSampleSensorEnviroment_CheckAndSendClusterAttrReport
          CFI Conditional ??CrossCallReturnLabel_6
          CFI R6 load(1, XDATA, add(CFA_XSP16, literal(-24)))
          CFI VB load(1, XDATA, add(CFA_XSP16, literal(-23)))
          CFI V0 load(1, XDATA, add(CFA_XSP16, literal(-22)))
          CFI V1 load(1, XDATA, add(CFA_XSP16, literal(-21)))
          CFI V2 load(1, XDATA, add(CFA_XSP16, literal(-20)))
          CFI V3 load(1, XDATA, add(CFA_XSP16, literal(-19)))
          CFI V4 load(1, XDATA, add(CFA_XSP16, literal(-18)))
          CFI V5 load(1, XDATA, add(CFA_XSP16, literal(-17)))
          CFI V6 load(1, XDATA, add(CFA_XSP16, literal(-16)))
          CFI V7 load(1, XDATA, add(CFA_XSP16, literal(-15)))
          CFI V8 load(1, XDATA, add(CFA_XSP16, literal(-14)))
          CFI V9 load(1, XDATA, add(CFA_XSP16, literal(-13)))
          CFI V10 load(1, XDATA, add(CFA_XSP16, literal(-12)))
          CFI V11 load(1, XDATA, add(CFA_XSP16, literal(-11)))
          CFI V12 load(1, XDATA, add(CFA_XSP16, literal(-10)))
          CFI V13 load(1, XDATA, add(CFA_XSP16, literal(-9)))
          CFI V14 load(1, XDATA, add(CFA_XSP16, literal(-8)))
          CFI V15 load(1, XDATA, add(CFA_XSP16, literal(-7)))
          CFI R7 load(1, XDATA, add(CFA_XSP16, literal(-6)))
          CFI ?RET_LOW load(1, XDATA, add(CFA_XSP16, literal(-5)))
          CFI ?RET_HIGH load(1, XDATA, add(CFA_XSP16, literal(-4)))
          CFI ?BRET_EXT load(1, XDATA, add(CFA_XSP16, literal(-3)))
          CFI DPL0 load(1, XDATA, add(CFA_XSP16, literal(-2)))
          CFI DPH0 load(1, XDATA, add(CFA_XSP16, literal(-1)))
          CFI CFA_SP SP+-2
          CFI CFA_XSP16 add(XSP16, 34)
          CFI Block cfiCond77 Using cfiCommon0
          CFI (cfiCond77) Function zclSampleSensorEnviroment_CheckAndSendClusterAttrReport
          CFI (cfiCond77) Conditional ??CrossCallReturnLabel_7
          CFI (cfiCond77) R6 load(1, XDATA, add(CFA_XSP16, literal(-24)))
          CFI (cfiCond77) VB load(1, XDATA, add(CFA_XSP16, literal(-23)))
          CFI (cfiCond77) V0 load(1, XDATA, add(CFA_XSP16, literal(-22)))
          CFI (cfiCond77) V1 load(1, XDATA, add(CFA_XSP16, literal(-21)))
          CFI (cfiCond77) V2 load(1, XDATA, add(CFA_XSP16, literal(-20)))
          CFI (cfiCond77) V3 load(1, XDATA, add(CFA_XSP16, literal(-19)))
          CFI (cfiCond77) V4 load(1, XDATA, add(CFA_XSP16, literal(-18)))
          CFI (cfiCond77) V5 load(1, XDATA, add(CFA_XSP16, literal(-17)))
          CFI (cfiCond77) V6 load(1, XDATA, add(CFA_XSP16, literal(-16)))
          CFI (cfiCond77) V7 load(1, XDATA, add(CFA_XSP16, literal(-15)))
          CFI (cfiCond77) V8 load(1, XDATA, add(CFA_XSP16, literal(-14)))
          CFI (cfiCond77) V9 load(1, XDATA, add(CFA_XSP16, literal(-13)))
          CFI (cfiCond77) V10 load(1, XDATA, add(CFA_XSP16, literal(-12)))
          CFI (cfiCond77) V11 load(1, XDATA, add(CFA_XSP16, literal(-11)))
          CFI (cfiCond77) V12 load(1, XDATA, add(CFA_XSP16, literal(-10)))
          CFI (cfiCond77) V13 load(1, XDATA, add(CFA_XSP16, literal(-9)))
          CFI (cfiCond77) V14 load(1, XDATA, add(CFA_XSP16, literal(-8)))
          CFI (cfiCond77) V15 load(1, XDATA, add(CFA_XSP16, literal(-7)))
          CFI (cfiCond77) R7 load(1, XDATA, add(CFA_XSP16, literal(-6)))
          CFI (cfiCond77) ?RET_LOW load(1, XDATA, add(CFA_XSP16, literal(-5)))
          CFI (cfiCond77) ?RET_HIGH load(1, XDATA, add(CFA_XSP16, literal(-4)))
          CFI (cfiCond77) ?BRET_EXT load(1, XDATA, add(CFA_XSP16, literal(-3)))
          CFI (cfiCond77) DPL0 load(1, XDATA, add(CFA_XSP16, literal(-2)))
          CFI (cfiCond77) DPH0 load(1, XDATA, add(CFA_XSP16, literal(-1)))
          CFI (cfiCond77) CFA_SP SP+-2
          CFI (cfiCond77) CFA_XSP16 add(XSP16, 34)
          CFI Block cfiPicker78 Using cfiCommon1
          CFI (cfiPicker78) NoFunction
          CFI (cfiPicker78) Picker
        LCALL     ?Subroutine30 & 0xFFFF
??CrossCallReturnLabel_38:
        INC       DPTR
        INC       DPTR
        RET
          CFI EndBlock cfiCond76
          CFI EndBlock cfiCond77
          CFI EndBlock cfiPicker78
//  847 
//  848 /*********************************************************************
//  849 * @fn      SendZclAttrReport
//  850 *
//  851 * @brief   Send the attr report. Let ZCL_CMD_REPORT event handler handle this
//  852 *
//  853 * @param   srcEp - source endpoint
//  854 *          clusterID - cluster id
//  855 *          pReportCmd - pointer to the report command packet
//  856 *          dataLen - data length of the report command
//  857 *
//  858 * @return  none
//  859 */
//  860 static uint8 SendZclAttrReport(uint8 srcEp, uint16 clusterId, zclReportCmd_t *pReportCmd,
//  861                                uint8 datalen)
//  862 {
//  863   // this is for the inner-app osal msg, not OTA msg, thus some fields are not important
//  864   zclIncomingMsg_t *pMsg;       
//  865   
//  866   // pMsg will be released by zclSampleSensorEnviroment_event_loop()
//  867   pMsg = (zclIncomingMsg_t *)osal_msg_allocate(sizeof(zclIncomingMsg_t) + (datalen));
//  868   
//  869   if (pMsg == NULL)
//  870   {
//  871     return FALSE;
//  872   }
//  873   
//  874   if (pMsg)
//  875   {
//  876       pMsg->hdr.event = ZCL_INCOMING_MSG;
//  877       pMsg->hdr.status = 0;
//  878       //pMsg->zclHdr.fc = NULL;         // not important
//  879       pMsg->zclHdr.manuCode = 0;        // not important
//  880       pMsg->zclHdr.transSeqNum = 0;     // not important
//  881       pMsg->zclHdr.commandID = ZCL_CMD_REPORT;
//  882       pMsg->clusterId = clusterId;
//  883       pMsg->srcAddr.addrMode = (afAddrMode_t)Addr16Bit;
//  884       pMsg->srcAddr.addr.shortAddr = 0; // not important
//  885       pMsg->srcAddr.panId = 0;          // inner-PAN, not important
//  886       pMsg->srcAddr.endPoint = srcEp;   // src ep, SAMPLELIGHT_ENDPOINT send to himself
//  887       pMsg->endPoint = srcEp;           // dest ep, send to SAMPLELIGHT_ENDPOINT himself
//  888       pMsg->attrCmd = (zclReportCmd_t *)pReportCmd;
//  889   }
//  890   
//  891   osal_msg_send( zclSampleSensorEnviroment_TaskID, (uint8 *)pMsg);
//  892   return TRUE;
//  893 }
//  894 

        RSEG BANKED_CODE:HUGECODE:NOROOT(0)
//  895 void zclSampleSensorEnviroment_ProcessInReportCmd( zclIncomingMsg_t *pInMsg )
zclSampleSensorEnviroment_ProcessInReportCmd:
          CFI Block cfiBlock79 Using cfiCommon0
          CFI Function zclSampleSensorEnviroment_ProcessInReportCmd
        CODE
//  896 {
        FUNCALL zclSampleSensorEnviroment_ProcessInReportCmd, zcl_SendReportCmd
        LOCFRAME ISTACK, 0, STACK
        LOCFRAME PSTACK, 0, STACK
        LOCFRAME XSTACK, 29, STACK
        LOCFRAME IOVERLAY, 0, STATIC
        LOCFRAME DOVERLAY, 0, STATIC
        ARGFRAME ISTACK, 0, STACK
        ARGFRAME PSTACK, 0, STACK
        ARGFRAME XSTACK, 29, STACK
        ARGFRAME IOVERLAY, 0, STATIC
        ARGFRAME DOVERLAY, 0, STATIC
        REQUIRE ?V0
        REQUIRE ?V1
        REQUIRE ?V2
        REQUIRE ?V3
        MOV       A,#-0xc
        LCALL     ?BANKED_ENTER_XDATA
          CFI DPH0 load(1, XDATA, add(CFA_XSP16, literal(-1)))
          CFI DPL0 load(1, XDATA, add(CFA_XSP16, literal(-2)))
          CFI ?BRET_EXT load(1, XDATA, add(CFA_XSP16, literal(-3)))
          CFI ?RET_HIGH load(1, XDATA, add(CFA_XSP16, literal(-4)))
          CFI ?RET_LOW load(1, XDATA, add(CFA_XSP16, literal(-5)))
          CFI R7 load(1, XDATA, add(CFA_XSP16, literal(-6)))
          CFI V3 load(1, XDATA, add(CFA_XSP16, literal(-7)))
          CFI V2 load(1, XDATA, add(CFA_XSP16, literal(-8)))
          CFI V1 load(1, XDATA, add(CFA_XSP16, literal(-9)))
          CFI V0 load(1, XDATA, add(CFA_XSP16, literal(-10)))
          CFI VB load(1, XDATA, add(CFA_XSP16, literal(-11)))
          CFI R6 load(1, XDATA, add(CFA_XSP16, literal(-12)))
          CFI CFA_SP SP+0
          CFI CFA_XSP16 add(XSP16, 12)
        ; Saved register size: 12
        ; Auto size: 12
        MOV       A,#-0xc
        LCALL     ?ALLOC_XSTACK8
          CFI CFA_XSP16 add(XSP16, 24)
//  897   zclReportCmd_t *pReportCmd;                           // numAttr, attrList[] : (zclReport_t) attrID, dataType, *attrData
//  898   pReportCmd = (zclReportCmd_t *)pInMsg->attrCmd;       // *pReportCmd will be free by handle
        LCALL     ?Subroutine27 & 0xFFFF
??CrossCallReturnLabel_33:
        MOVX      A,@DPTR
        MOV       ?V0,A
        INC       DPTR
        MOVX      A,@DPTR
        MOV       ?V1,A
//  899   afAddrType_t dstAddr;
//  900   
//  901   dstAddr.addr.shortAddr = 0x0000;
        MOV       DPL,?XSP + 0
        MOV       DPH,?XSP + 1
        CLR       A
        MOVX      @DPTR,A
        INC       DPTR
        MOVX      @DPTR,A
//  902   dstAddr.addrMode = (afAddrMode_t)Addr16Bit;
        MOV       A,#0x8
        LCALL     ?XSTACK_DISP0_8
        MOV       A,#0x2
        MOVX      @DPTR,A
//  903   switch ( pInMsg->clusterId )
        MOV       A,R2
        ADD       A,#0x8
        MOV       R0,A
        CLR       A
        ADDC      A,R3
        MOV       R1,A
        MOV       A,R0
        MOV       R2,A
        MOV       A,R1
        MOV       DPL,R0
        MOV       DPH,A
        MOVX      A,@DPTR
        MOV       ?V2,A
        INC       DPTR
        MOVX      A,@DPTR
        MOV       ?V3,A
        MOV       R0,#?V2
        LCALL     ?US_SWITCH_SPARSE
`?<Jumptable for zclSampleSensorEnviroment_Proc_0`:
        DATA
        DATA16
        DATA
        DATA16
        DATA
        DATA16
        DW        0
        DATA
        DATA16
        DATA
        DATA16
        DATA
        DATA16
        DW        6
        DATA
        DATA16
        DATA
        DATA16
        DATA
        DATA16
        DW        1024
        DATA
        DATA16
        DATA
        DATA16
        DATA
        DATA16
        DW        ??zclSampleSensorEnviroment_ProcessInReportCmd_0
        DATA
        DATA16
        DATA
        DATA16
        DATA
        DATA16
        DW        1026
        DATA
        DATA16
        DATA
        DATA16
        DATA
        DATA16
        DW        ??zclSampleSensorEnviroment_ProcessInReportCmd_1
        DATA
        DATA16
        DATA
        DATA16
        DATA
        DATA16
        DW        1029
        DATA
        DATA16
        DATA
        DATA16
        DATA
        DATA16
        DW        ??zclSampleSensorEnviroment_ProcessInReportCmd_2
        DATA
        DATA16
        DATA
        DATA16
        DATA
        DATA16
        DW        1030
        DATA
        DATA16
        DATA
        DATA16
        DATA
        DATA16
        DW        ??zclSampleSensorEnviroment_ProcessInReportCmd_3
        DATA
        DATA16
        DATA
        DATA16
        DATA
        DATA16
        DW        3072
        DATA
        DATA16
        DATA
        DATA16
        DATA
        DATA16
        DW        ??zclSampleSensorEnviroment_ProcessInReportCmd_4
        DATA
        DATA16
        DATA
        DATA16
        DATA
        DATA16
        DW        3073
        DATA
        DATA16
        DATA
        DATA16
        DATA
        DATA16
        DW        ??zclSampleSensorEnviroment_ProcessInReportCmd_5
        DATA
        DATA16
        DATA
        DATA16
        DW        ??zclSampleSensorEnviroment_ProcessInReportCmd_6
        CODE
//  904   {
//  905   case ZCL_CLUSTER_ID_MS_ILLUMINANCE_MEASUREMENT:
//  906     dstAddr.endPoint = 1;
??zclSampleSensorEnviroment_ProcessInReportCmd_0:
        MOV       A,#0x9
        LCALL     ?XSTACK_DISP0_8
        MOV       A,#0x1
        SJMP      ??zclSampleSensorEnviroment_ProcessInReportCmd_7
//  907     break;
//  908   case ZCL_CLUSTER_ID_MS_TEMPERATURE_MEASUREMENT:
//  909     dstAddr.endPoint = 2;
??zclSampleSensorEnviroment_ProcessInReportCmd_1:
        MOV       A,#0x9
        LCALL     ?XSTACK_DISP0_8
        MOV       A,#0x2
        SJMP      ??zclSampleSensorEnviroment_ProcessInReportCmd_7
//  910     break;
//  911   case ZCL_CLUSTER_ID_MS_RELATIVE_HUMIDITY:
//  912     dstAddr.endPoint = 3;
??zclSampleSensorEnviroment_ProcessInReportCmd_2:
        MOV       A,#0x9
        LCALL     ?XSTACK_DISP0_8
        MOV       A,#0x3
        SJMP      ??zclSampleSensorEnviroment_ProcessInReportCmd_7
//  913     break;
//  914   case ZCL_CLUSTER_ID_MS_OCCUPANCY_SENSING:
//  915     dstAddr.endPoint = 4;
??zclSampleSensorEnviroment_ProcessInReportCmd_3:
        MOV       A,#0x9
        LCALL     ?XSTACK_DISP0_8
        MOV       A,#0x4
        SJMP      ??zclSampleSensorEnviroment_ProcessInReportCmd_7
//  916     break;
//  917   case ZCL_CLUSTER_ID_MS_TVOC_MEASUREMENT:
//  918     dstAddr.endPoint = 6;
??zclSampleSensorEnviroment_ProcessInReportCmd_4:
        MOV       A,#0x9
        LCALL     ?XSTACK_DISP0_8
        MOV       A,#0x6
        SJMP      ??zclSampleSensorEnviroment_ProcessInReportCmd_7
//  919     break;
//  920   case ZCL_CLUSTER_ID_MS_CO2_MEASUREMENT:
//  921     dstAddr.endPoint = 7;
??zclSampleSensorEnviroment_ProcessInReportCmd_5:
        MOV       A,#0x9
        LCALL     ?XSTACK_DISP0_8
        MOV       A,#0x7
??zclSampleSensorEnviroment_ProcessInReportCmd_7:
        MOVX      @DPTR,A
//  922     break;
//  923   default:
//  924     break;
//  925   }
//  926   
//  927   if( zcl_SendReportCmd( SAMPLESENSORENVIROMENT_ENDPOINT_MUXSENSOR, &dstAddr, pInMsg->clusterId, pReportCmd, ZCL_REPORT_RECEIVE, FALSE, NULL) != ZSuccess )
??zclSampleSensorEnviroment_ProcessInReportCmd_6:
        ; Setup parameters for call to function zcl_SendReportCmd
        MOV       ?V2,#0x0
        MOV       R0,#?V2
        LCALL     ?PUSH_XSTACK_I_ONE
          CFI CFA_XSP16 add(XSP16, 25)
        MOV       R0,#?V2
        LCALL     ?PUSH_XSTACK_I_ONE
          CFI CFA_XSP16 add(XSP16, 26)
        MOV       ?V2,#0x1
        MOV       R0,#?V2
        LCALL     ?PUSH_XSTACK_I_ONE
          CFI CFA_XSP16 add(XSP16, 27)
        MOV       R0,#?V0
        LCALL     ?PUSH_XSTACK_I_TWO
          CFI CFA_XSP16 add(XSP16, 29)
        MOV       DPL,R2
        MOV       DPH,R1
        LCALL     ??Subroutine45_0 & 0xFFFF
??CrossCallReturnLabel_55:
        MOV       A,#0x5
        LCALL     ?XSTACK_DISP101_8
        MOV       R1,#0x8
        LCALL     `??zcl_SendReportCmd::?relay`; Banked call to: zcl_SendReportCmd
        MOV       A,#0x5
        LCALL     ?DEALLOC_XSTACK8
          CFI CFA_XSP16 add(XSP16, 24)
        MOV       A,R1
        JZ        ??zclSampleSensorEnviroment_ProcessInReportCmd_8
//  928   {
//  929     while(1);
??zclSampleSensorEnviroment_ProcessInReportCmd_9:
        SJMP      ??zclSampleSensorEnviroment_ProcessInReportCmd_9
//  930   }  
//  931 }
??zclSampleSensorEnviroment_ProcessInReportCmd_8:
        MOV       A,#0xc
        LJMP      ?Subroutine2 & 0xFFFF
          CFI EndBlock cfiBlock79
//  932 

        RSEG BANKED_CODE:HUGECODE:NOROOT(0)
//  933 static uint8 zclSampleSensorEnviroment_ProcessInConfigReportCmd( zclIncomingMsg_t *pInMsg )
zclSampleSensorEnviroment_ProcessInConfigReportCmd:
          CFI Block cfiBlock80 Using cfiCommon0
          CFI Function zclSampleSensorEnviroment_ProcessInConfigReportCmd
        CODE
//  934 {
        FUNCALL zclSampleSensorEnviroment_ProcessInConfigReportCmd, osal_mem_alloc
        LOCFRAME ISTACK, 0, STACK
        LOCFRAME PSTACK, 0, STACK
        LOCFRAME XSTACK, 36, STACK
        LOCFRAME IOVERLAY, 0, STATIC
        LOCFRAME DOVERLAY, 0, STATIC
        ARGFRAME ISTACK, 0, STACK
        ARGFRAME PSTACK, 0, STACK
        ARGFRAME XSTACK, 36, STACK
        ARGFRAME IOVERLAY, 0, STATIC
        ARGFRAME DOVERLAY, 0, STATIC
        FUNCALL zclSampleSensorEnviroment_ProcessInConfigReportCmd, osal_memset
        LOCFRAME ISTACK, 0, STACK
        LOCFRAME PSTACK, 0, STACK
        LOCFRAME XSTACK, 36, STACK
        LOCFRAME IOVERLAY, 0, STATIC
        LOCFRAME DOVERLAY, 0, STATIC
        ARGFRAME ISTACK, 0, STACK
        ARGFRAME PSTACK, 0, STACK
        ARGFRAME XSTACK, 36, STACK
        ARGFRAME IOVERLAY, 0, STATIC
        ARGFRAME DOVERLAY, 0, STATIC
        FUNCALL zclSampleSensorEnviroment_ProcessInConfigReportCmd, zclFindConfigReportRec
        LOCFRAME ISTACK, 0, STACK
        LOCFRAME PSTACK, 0, STACK
        LOCFRAME XSTACK, 38, STACK
        LOCFRAME IOVERLAY, 0, STATIC
        LOCFRAME DOVERLAY, 0, STATIC
        ARGFRAME ISTACK, 0, STACK
        ARGFRAME PSTACK, 0, STACK
        ARGFRAME XSTACK, 38, STACK
        ARGFRAME IOVERLAY, 0, STATIC
        ARGFRAME DOVERLAY, 0, STATIC
        FUNCALL zclSampleSensorEnviroment_ProcessInConfigReportCmd, zclFindAttrRec
        LOCFRAME ISTACK, 0, STACK
        LOCFRAME PSTACK, 0, STACK
        LOCFRAME XSTACK, 38, STACK
        LOCFRAME IOVERLAY, 0, STATIC
        LOCFRAME DOVERLAY, 0, STATIC
        ARGFRAME ISTACK, 0, STACK
        ARGFRAME PSTACK, 0, STACK
        ARGFRAME XSTACK, 38, STACK
        ARGFRAME IOVERLAY, 0, STATIC
        ARGFRAME DOVERLAY, 0, STATIC
        FUNCALL zclSampleSensorEnviroment_ProcessInConfigReportCmd, zcl_SendConfigReportRspCmd
        LOCFRAME ISTACK, 0, STACK
        LOCFRAME PSTACK, 0, STACK
        LOCFRAME XSTACK, 41, STACK
        LOCFRAME IOVERLAY, 0, STATIC
        LOCFRAME DOVERLAY, 0, STATIC
        ARGFRAME ISTACK, 0, STACK
        ARGFRAME PSTACK, 0, STACK
        ARGFRAME XSTACK, 41, STACK
        ARGFRAME IOVERLAY, 0, STATIC
        ARGFRAME DOVERLAY, 0, STATIC
        FUNCALL zclSampleSensorEnviroment_ProcessInConfigReportCmd, osal_mem_free
        LOCFRAME ISTACK, 0, STACK
        LOCFRAME PSTACK, 0, STACK
        LOCFRAME XSTACK, 36, STACK
        LOCFRAME IOVERLAY, 0, STATIC
        LOCFRAME DOVERLAY, 0, STATIC
        ARGFRAME ISTACK, 0, STACK
        ARGFRAME PSTACK, 0, STACK
        ARGFRAME XSTACK, 36, STACK
        ARGFRAME IOVERLAY, 0, STATIC
        ARGFRAME DOVERLAY, 0, STATIC
        FUNCALL zclSampleSensorEnviroment_ProcessInConfigReportCmd, zclSampleSensorEnviroment_CheckReportConfig
        LOCFRAME ISTACK, 0, STACK
        LOCFRAME PSTACK, 0, STACK
        LOCFRAME XSTACK, 36, STACK
        LOCFRAME IOVERLAY, 0, STATIC
        LOCFRAME DOVERLAY, 0, STATIC
        ARGFRAME ISTACK, 0, STACK
        ARGFRAME PSTACK, 0, STACK
        ARGFRAME XSTACK, 36, STACK
        ARGFRAME IOVERLAY, 0, STATIC
        ARGFRAME DOVERLAY, 0, STATIC
        REQUIRE ?V0
        REQUIRE ?V1
        REQUIRE ?V2
        REQUIRE ?V3
        REQUIRE ?V4
        REQUIRE ?V5
        REQUIRE ?V6
        REQUIRE ?V7
        REQUIRE ?V8
        REQUIRE ?V9
        REQUIRE ?V10
        REQUIRE ?V11
        REQUIRE ?V12
        REQUIRE ?V13
        REQUIRE ?V14
        REQUIRE ?V15
        MOV       A,#-0x18
        LCALL     ?BANKED_ENTER_XDATA
          CFI DPH0 load(1, XDATA, add(CFA_XSP16, literal(-1)))
          CFI DPL0 load(1, XDATA, add(CFA_XSP16, literal(-2)))
          CFI ?BRET_EXT load(1, XDATA, add(CFA_XSP16, literal(-3)))
          CFI ?RET_HIGH load(1, XDATA, add(CFA_XSP16, literal(-4)))
          CFI ?RET_LOW load(1, XDATA, add(CFA_XSP16, literal(-5)))
          CFI R7 load(1, XDATA, add(CFA_XSP16, literal(-6)))
          CFI V15 load(1, XDATA, add(CFA_XSP16, literal(-7)))
          CFI V14 load(1, XDATA, add(CFA_XSP16, literal(-8)))
          CFI V13 load(1, XDATA, add(CFA_XSP16, literal(-9)))
          CFI V12 load(1, XDATA, add(CFA_XSP16, literal(-10)))
          CFI V11 load(1, XDATA, add(CFA_XSP16, literal(-11)))
          CFI V10 load(1, XDATA, add(CFA_XSP16, literal(-12)))
          CFI V9 load(1, XDATA, add(CFA_XSP16, literal(-13)))
          CFI V8 load(1, XDATA, add(CFA_XSP16, literal(-14)))
          CFI V7 load(1, XDATA, add(CFA_XSP16, literal(-15)))
          CFI V6 load(1, XDATA, add(CFA_XSP16, literal(-16)))
          CFI V5 load(1, XDATA, add(CFA_XSP16, literal(-17)))
          CFI V4 load(1, XDATA, add(CFA_XSP16, literal(-18)))
          CFI V3 load(1, XDATA, add(CFA_XSP16, literal(-19)))
          CFI V2 load(1, XDATA, add(CFA_XSP16, literal(-20)))
          CFI V1 load(1, XDATA, add(CFA_XSP16, literal(-21)))
          CFI V0 load(1, XDATA, add(CFA_XSP16, literal(-22)))
          CFI VB load(1, XDATA, add(CFA_XSP16, literal(-23)))
          CFI R6 load(1, XDATA, add(CFA_XSP16, literal(-24)))
          CFI CFA_SP SP+0
          CFI CFA_XSP16 add(XSP16, 24)
        ; Saved register size: 24
        ; Auto size: 12
        MOV       A,#-0xc
        LCALL     ?ALLOC_XSTACK8
          CFI CFA_XSP16 add(XSP16, 36)
        MOV       ?V0,R2
        MOV       ?V1,R3
//  935   zclCfgReportCmd_t *pCfgReportCmd;             // this is used to look up table
//  936   zclCfgReportRspCmd_t *pCfgReportRspCmd;       // This is used to send responde message
//  937   uint8 sendRsp = FALSE;                        // status of initialize dynamic memory for responde message
        CLR       ?VB.0
//  938   uint16 len;
//  939   uint8 j = 0;
        MOV       ?V6,#0x0
//  940   uint8 i;
//  941   
//  942   //1. Initialize message responde ( using structure zclCfgReportRspCmd_t )
//  943   pCfgReportCmd = (zclCfgReportCmd_t *)pInMsg->attrCmd;
        MOV       A,R2
        ADD       A,#0x17
        MOV       DPL,A
        CLR       A
        ADDC      A,?V1
        LCALL     ?Subroutine26 & 0xFFFF
??CrossCallReturnLabel_70:
        MOV       A,#0x2
        LCALL     ?XSTACK_DISP0_8
        LCALL     ??Subroutine49_0 & 0xFFFF
//  944   
//  945   if ( pInMsg->zclHdr.commandID == ZCL_CMD_CONFIG_REPORT )
??CrossCallReturnLabel_90:
        MOV       DPL,R2
        MOV       DPH,R3
        INC       DPTR
        INC       DPTR
        INC       DPTR
        INC       DPTR
        INC       DPTR
        INC       DPTR
        INC       DPTR
        MOVX      A,@DPTR
        XRL       A,#0x6
        JNZ       ??zclSampleSensorEnviroment_ProcessInConfigRepo_1
//  946   {
//  947     // We need to send a response back - allocate space for it
//  948     len = sizeof( zclCfgReportRspCmd_t ) + (pCfgReportCmd->numAttr * sizeof( zclCfgReportStatus_t ));
//  949     pCfgReportRspCmd = (zclCfgReportRspCmd_t *)zcl_mem_alloc( len );
        ; Setup parameters for call to function osal_mem_alloc
        MOV       A,#0x2
        LCALL     ?XSTACK_DISP0_8
        LCALL     ?Subroutine24 & 0xFFFF
??CrossCallReturnLabel_27:
        MOV       ?V2,A
        MOV       ?V3,#0x0
        MOV       A,#0x2
        MOV       R0,#?V2
        LCALL     ?S_SHL
        MOV       A,?V2
        ADD       A,#0x1
        MOV       R2,A
        CLR       A
        ADDC      A,?V3
        MOV       R3,A
        LCALL     `??osal_mem_alloc::?relay`; Banked call to: osal_mem_alloc
        MOV       ?V2,R2
        MOV       ?V3,R3
//  950     
//  951     if ( pCfgReportRspCmd == NULL )
        MOV       A,R2
        ORL       A,R3
        JNZ       ??zclSampleSensorEnviroment_ProcessInConfigRepo_2
//  952     {
//  953       return FALSE;     // embedded return
        MOV       R1,#0x0
        LJMP      ??zclSampleSensorEnviroment_ProcessInConfigRepo_3 & 0xFFFF
//  954     }
//  955     sendRsp = TRUE;     // sendRsp is active when we got correct commandID
??zclSampleSensorEnviroment_ProcessInConfigRepo_2:
        SETB      ?VB.0
//  956   }
//  957   
//  958   for ( i = 0; i < pCfgReportCmd->numAttr; i++ )
??zclSampleSensorEnviroment_ProcessInConfigRepo_1:
        MOV       ?V7,#0x0
        SJMP      ??zclSampleSensorEnviroment_ProcessInConfigRepo_4
//  959   {
//  960     
//  961     //2. Look up config. report record of the incomming message in table "config. Report Record List"
//  962     zclConfigReportRec_t *pConfigReportRec = NULL;      // find the rec and store here
//  963     zclAttrRec_t attrRec;
//  964     
//  965     zclCfgReportStatus_t *statusRec = &(pCfgReportRspCmd->attrList[i]);
//  966     zcl_memset( statusRec, 0, sizeof( zclCfgReportStatus_t ));
//  967     
//  968     if ( zclFindConfigReportRec( pInMsg->endPoint, pInMsg->clusterId,
//  969                                 pCfgReportCmd->attrList[i].attrID, &pConfigReportRec))
//  970     {
//  971       
//  972       //3. Check "dataType" of variable to variable in incomming message
//  973       uint8 status = ZCL_STATUS_SUCCESS;
//  974       
//  975       if (pCfgReportCmd->attrList[i].dataType != pConfigReportRec->cfgReportRec.dataType )
//  976       {        
//  977         status = ZCL_STATUS_INVALID_DATA_TYPE;
//  978       }
//  979       else 
//  980       {
//  981         
//  982         //4. Look up Attribute record of incomming message in tabel "attribute list"
//  983         if ( zclFindAttrRec( pInMsg->endPoint, pInMsg->clusterId,
//  984                             pCfgReportCmd->attrList[i].attrID, &attrRec))
//  985         {
//  986           //5. Check "dataType" of variable to variable in incomming message
//  987           if (pCfgReportCmd->attrList[i].dataType != attrRec.attr.dataType )
//  988           {
//  989             status = ZCL_STATUS_INVALID_DATA_TYPE;
//  990           }
//  991           else
//  992           {
//  993             //6. Check Access control type of each attribute in incomming message to attribute in table "attribute list"
//  994             if ( !zcl_AccessCtrlRead(attrRec.attr.accessControl))
//  995             {
//  996               status = ZCL_STATUS_WRITE_ONLY;
//  997             }
//  998           }
//  999         }
// 1000       }
// 1001       
// 1002       //7. Write config. value into variable in table "config. report record list"
// 1003       // If successful, store the record, and a CfgReportStatus record shall NOT be generated
// 1004       if ( sendRsp && status != ZCL_STATUS_SUCCESS )
// 1005       {
// 1006         //Attribute is write only or invalid data type - move on to the next record
// 1007         statusRec->status = status;
// 1008         statusRec->direction = pCfgReportCmd->attrList[i].direction;
// 1009         statusRec->attrID = pCfgReportCmd->attrList[i].attrID;
// 1010         j++;
// 1011       }
// 1012       else    // Success, set the config report rec
// 1013       {
// 1014         pConfigReportRec->cfgReportRec.direction = pCfgReportCmd->attrList[i].direction;
// 1015         pConfigReportRec->cfgReportRec.minReportInt = pCfgReportCmd->attrList[i].minReportInt;
// 1016         pConfigReportRec->cfgReportRec.maxReportInt = pCfgReportCmd->attrList[i].maxReportInt;
// 1017         pConfigReportRec->cfgReportRec.timeoutPeriod = pCfgReportCmd->attrList[i].timeoutPeriod;
// 1018         pConfigReportRec->timeup = 0xFFFF;
// 1019       }
// 1020     }
// 1021     else
// 1022     {
// 1023       //Attribute is not supported - move on to the next configReportRec record
// 1024       if (sendRsp)
??zclSampleSensorEnviroment_ProcessInConfigRepo_5:
        MOV       C,?VB.0
        JNC       ??zclSampleSensorEnviroment_ProcessInConfigRepo_6
// 1025       {
// 1026         statusRec->status = ZCL_STATUS_UNSUPPORTED_ATTRIBUTE;
        MOV       DPL,?V4
        MOV       DPH,?V5
        MOV       A,#-0x7a
        LCALL     ?Subroutine7 & 0xFFFF
// 1027         statusRec->status = pCfgReportCmd->attrList[i].direction;
??CrossCallReturnLabel_4:
        MOVX      @DPTR,A
// 1028         statusRec->attrID = pCfgReportCmd->attrList[i].attrID;
        MOV       DPL,?V8
        MOV       DPH,?V9
        LCALL     ??Subroutine46_0 & 0xFFFF
??CrossCallReturnLabel_68:
        MOV       DPL,?V4
        MOV       DPH,?V5
        LCALL     ?Subroutine8 & 0xFFFF
// 1029         j++;
??CrossCallReturnLabel_93:
        INC       ?V6
// 1030       }
// 1031     }
??zclSampleSensorEnviroment_ProcessInConfigRepo_6:
        INC       ?V7
??zclSampleSensorEnviroment_ProcessInConfigRepo_4:
        MOV       A,#0x2
        LCALL     ?XSTACK_DISP0_8
        LCALL     ?Subroutine24 & 0xFFFF
??CrossCallReturnLabel_28:
        MOV       R0,A
        MOV       A,?V7
        CLR       C
        SUBB      A,R0
        JC        $+5
        LJMP      ??zclSampleSensorEnviroment_ProcessInConfigRepo_7 & 0xFFFF
        MOV       DPL,?XSP + 0
        MOV       DPH,?XSP + 1
        CLR       A
        MOVX      @DPTR,A
        INC       DPTR
        MOVX      @DPTR,A
        MOV       R6,?V7
        MOV       ?V4,R6
        MOV       ?V5,A
        MOV       A,#0x2
        MOV       R0,#?V4
        LCALL     ?S_SHL
        MOV       A,?V2
        ADD       A,?V4
        MOV       DPL,A
        MOV       A,?V3
        ADDC      A,?V5
        MOV       DPH,A
        INC       DPTR
        MOV       ?V4,DPL
        MOV       ?V5,DPH
        ; Setup parameters for call to function osal_memset
        MOV       R4,#0x4
        MOV       R5,#0x0
        MOV       R1,#0x0
        MOV       R2,?V4
        MOV       R3,?V5
        LCALL     `??osal_memset::?relay`; Banked call to: osal_memset
        MOV       A,R6
        MOV       B,#0xc
        MUL       AB
        MOV       R6,A
        MOV       R7,B
        MOV       A,#0x2
        LCALL     ?XSTACK_DISP0_8
        MOVX      A,@DPTR
        ADD       A,R6
        MOV       R6,A
        INC       DPTR
        MOVX      A,@DPTR
        ADDC      A,R7
        MOV       R7,A
        MOV       DPL,R6
        MOV       DPH,A
        INC       DPTR
        MOV       ?V12,DPL
        MOV       ?V13,DPH
        MOV       A,R6
        ADD       A,#0x2
        MOV       ?V8,A
        CLR       A
        ADDC      A,R7
        MOV       ?V9,A
        ; Setup parameters for call to function zclFindConfigReportRec
        MOV       R0,?XSP + 0
        MOV       R1,?XSP + 1
        MOV       ?V10,R0
        MOV       ?V11,R1
        MOV       R0,#?V10
        LCALL     ?PUSH_XSTACK_I_TWO
          CFI CFA_XSP16 add(XSP16, 38)
        LCALL     ?Subroutine12 & 0xFFFF
??CrossCallReturnLabel_12:
        LCALL     `??zclFindConfigReportRec::?relay`; Banked call to: zclFindConfigReportRec
        MOV       A,#0x2
        LCALL     ?DEALLOC_XSTACK8
          CFI CFA_XSP16 add(XSP16, 36)
        MOV       A,R1
        JNZ       $+5
        LJMP      ??zclSampleSensorEnviroment_ProcessInConfigRepo_5 & 0xFFFF
        MOV       A,R6
        ADD       A,#0x4
        MOV       ?V14,A
        CLR       A
        ADDC      A,R7
        MOV       ?V15,A
        MOV       DPL,?V14
        MOV       DPH,A
        MOVX      A,@DPTR
        MOV       R1,A
        LCALL     ?Subroutine39 & 0xFFFF
??CrossCallReturnLabel_114:
        XCH       A,R0
        ADD       A,#0x9
        MOV       DPL,A
        CLR       A
        ADDC      A,R0
        MOV       DPH,A
        MOVX      A,@DPTR
        XRL       A,R1
        JNZ       ??zclSampleSensorEnviroment_ProcessInConfigRepo_8
