///////////////////////////////////////////////////////////////////////////////
//
// IAR C/C++ Compiler V10.20.1.5333 for 8051              18/Jul/2020  10:12:06
// Copyright 2004-2018 IAR Systems AB.
// PC-locked license - IAR Embedded Workbench for 8051
//
//    Core               =  plain
//    Code model         =  banked
//    Data model         =  large
//    Calling convention =  xdata reentrant
//    Constant location  =  data_rom
//    Dptr setup         =  1,16
//                          
//    Source file        =  
//        C:\Users\TS-577\Desktop\Zigbee workspace\Product Developer\particular
//        product\Projects\zstack\HomeAutomation\SampleSensorEnviroment_2\Source\zcl_SampleSensorEnviroment_data.c
//    Command line       =  
//        -f C:\Users\TS-577\AppData\Local\Temp\EWA7A3.tmp
//        ("C:\Users\TS-577\Desktop\Zigbee workspace\Product
//        Developer\particular
//        product\Projects\zstack\HomeAutomation\SampleSensorEnviroment_2\Source\zcl_SampleSensorEnviroment_data.c"
//        -D xBDB_REPORTING -D SECURE=1 -D TC_LINKKEY_JOIN -D xNV_INIT -D
//        xNV_RESTORE -D xPOWER_SAVING -D NWK_AUTO_POLL -D ZTOOL_P1 -D xMT_TASK
//        -D xMT_APP_FUNC -D xMT_SYS_FUNC -D xMT_ZDO_FUNC -D xMT_APP_CNF_FUNC
//        -D xLCD_SUPPORTED=DEBUG -D MULTICAST_ENABLED=FALSE -D ZCL_READ -D
//        ZCL_DISCOVER -D ZCL_WRITE -D ZCL_BASIC -D ZCL_IDENTIFY -D
//        ZCL_TEMPERATURE_MEASUREMENT -D ZCL_GROUPS -D ZCL_REPORT -D
//        ZCL_REPORTING_DEVICE -lC "C:\Users\TS-577\Desktop\Zigbee
//        workspace\Product Developer\particular
//        product\Projects\zstack\HomeAutomation\SampleSensorEnviroment_2\CC2530DB\EndDeviceEB\List"
//        -lA "C:\Users\TS-577\Desktop\Zigbee workspace\Product
//        Developer\particular
//        product\Projects\zstack\HomeAutomation\SampleSensorEnviroment_2\CC2530DB\EndDeviceEB\List"
//        --diag_suppress Pe001,Pa010 -o "C:\Users\TS-577\Desktop\Zigbee
//        workspace\Product Developer\particular
//        product\Projects\zstack\HomeAutomation\SampleSensorEnviroment_2\CC2530DB\EndDeviceEB\Obj"
//        -e --debug --core=plain --dptr=16,1 --data_model=large
//        --code_model=banked --calling_convention=xdata_reentrant
//        --place_constants=data_rom --nr_virtual_regs 16 -f
//        "C:\Users\TS-577\Desktop\Zigbee workspace\Product
//        Developer\particular
//        product\Projects\zstack\HomeAutomation\SampleSensorEnviroment_2\CC2530DB\..\..\..\Tools\CC2530DB\f8wEndev.cfg"
//        (-DCPU32MHZ -DROOT=__near_func -DMAC_CFG_TX_DATA_MAX=3
//        -DMAC_CFG_TX_MAX=6 -DMAC_CFG_RX_MAX=3) -f
//        "C:\Users\TS-577\Desktop\Zigbee workspace\Product
//        Developer\particular
//        product\Projects\zstack\HomeAutomation\SampleSensorEnviroment_2\CC2530DB\..\..\..\Tools\CC2530DB\f8wConfig.cfg"
//        (-DZIGBEEPRO -DSECURE=1 -DZG_SECURE_DYNAMIC=0 -DREFLECTOR
//        -DDEFAULT_CHANLIST=0x00002000 -DZDAPP_CONFIG_PAN_ID=0xFFFF
//        -DNWK_START_DELAY=100 -DEXTENDED_JOINING_RANDOM_MASK=0x007F
//        -DBEACON_REQUEST_DELAY=100 -DBEACON_REQ_DELAY_MASK=0x00FF
//        -DLINK_STATUS_JITTER_MASK=0x007F -DROUTE_EXPIRY_TIME=30
//        -DAPSC_ACK_WAIT_DURATION_POLLED=3000 -DNWK_INDIRECT_MSG_TIMEOUT=7
//        -DMAX_RREQ_ENTRIES=8 -DAPSC_MAX_FRAME_RETRIES=3
//        -DNWK_MAX_DATA_RETRIES=2 -DMAX_POLL_FAILURE_RETRIES=2 -DMAX_BCAST=9
//        -DAPS_MAX_GROUPS=16 -DMAX_RTG_ENTRIES=40 -DNWK_MAX_BINDING_ENTRIES=4
//        -DMAX_BINDING_CLUSTER_IDS=4 -DDEFAULT_KEY={0}
//        -DMAC_MAX_FRAME_SIZE=116 -DZDNWKMGR_MIN_TRANSMISSIONS=20
//        "-DCONST=const __code" -DGENERIC=__generic -DRFD_RCVC_ALWAYS_ON=TRUE
//        -DPOLL_RATE=1000 -DQUEUED_POLL_RATE=100 -DRESPONSE_POLL_RATE=100
//        -DREJOIN_POLL_RATE=440 -DREJOIN_BACKOFF=900000 -DREJOIN_SCAN=900000)
//        -f "C:\Users\TS-577\Desktop\Zigbee workspace\Product
//        Developer\particular
//        product\Projects\zstack\HomeAutomation\SampleSensorEnviroment_2\CC2530DB\..\..\..\Tools\CC2530DB\f8wZCL.cfg"
//        -I "C:\Users\TS-577\Desktop\Zigbee workspace\Product
//        Developer\particular
//        product\Projects\zstack\HomeAutomation\SampleSensorEnviroment_2\CC2530DB\"
//        -I "C:\Users\TS-577\Desktop\Zigbee workspace\Product
//        Developer\particular
//        product\Projects\zstack\HomeAutomation\SampleSensorEnviroment_2\CC2530DB\..\Source\"
//        -I "C:\Users\TS-577\Desktop\Zigbee workspace\Product
//        Developer\particular
//        product\Projects\zstack\HomeAutomation\SampleSensorEnviroment_2\CC2530DB\..\..\Source\"
//        -I "C:\Users\TS-577\Desktop\Zigbee workspace\Product
//        Developer\particular
//        product\Projects\zstack\HomeAutomation\SampleSensorEnviroment_2\CC2530DB\..\..\..\ZMain\TI2530DB\"
//        -I "C:\Users\TS-577\Desktop\Zigbee workspace\Product
//        Developer\particular
//        product\Projects\zstack\HomeAutomation\SampleSensorEnviroment_2\CC2530DB\..\..\..\..\..\Components\hal\include\"
//        -I "C:\Users\TS-577\Desktop\Zigbee workspace\Product
//        Developer\particular
//        product\Projects\zstack\HomeAutomation\SampleSensorEnviroment_2\CC2530DB\..\..\..\..\..\Components\hal\target\CC2530EB\"
//        -I "C:\Users\TS-577\Desktop\Zigbee workspace\Product
//        Developer\particular
//        product\Projects\zstack\HomeAutomation\SampleSensorEnviroment_2\CC2530DB\..\..\..\..\..\Components\mac\include\"
//        -I "C:\Users\TS-577\Desktop\Zigbee workspace\Product
//        Developer\particular
//        product\Projects\zstack\HomeAutomation\SampleSensorEnviroment_2\CC2530DB\..\..\..\..\..\Components\mac\high_level\"
//        -I "C:\Users\TS-577\Desktop\Zigbee workspace\Product
//        Developer\particular
//        product\Projects\zstack\HomeAutomation\SampleSensorEnviroment_2\CC2530DB\..\..\..\..\..\Components\mac\low_level\srf04\"
//        -I "C:\Users\TS-577\Desktop\Zigbee workspace\Product
//        Developer\particular
//        product\Projects\zstack\HomeAutomation\SampleSensorEnviroment_2\CC2530DB\..\..\..\..\..\Components\mac\low_level\srf04\single_chip\"
//        -I "C:\Users\TS-577\Desktop\Zigbee workspace\Product
//        Developer\particular
//        product\Projects\zstack\HomeAutomation\SampleSensorEnviroment_2\CC2530DB\..\..\..\..\..\Components\mt\"
//        -I "C:\Users\TS-577\Desktop\Zigbee workspace\Product
//        Developer\particular
//        product\Projects\zstack\HomeAutomation\SampleSensorEnviroment_2\CC2530DB\..\..\..\..\..\Components\osal\include\"
//        -I "C:\Users\TS-577\Desktop\Zigbee workspace\Product
//        Developer\particular
//        product\Projects\zstack\HomeAutomation\SampleSensorEnviroment_2\CC2530DB\..\..\..\..\..\Components\services\saddr\"
//        -I "C:\Users\TS-577\Desktop\Zigbee workspace\Product
//        Developer\particular
//        product\Projects\zstack\HomeAutomation\SampleSensorEnviroment_2\CC2530DB\..\..\..\..\..\Components\services\sdata\"
//        -I "C:\Users\TS-577\Desktop\Zigbee workspace\Product
//        Developer\particular
//        product\Projects\zstack\HomeAutomation\SampleSensorEnviroment_2\CC2530DB\..\..\..\..\..\Components\stack\af\"
//        -I "C:\Users\TS-577\Desktop\Zigbee workspace\Product
//        Developer\particular
//        product\Projects\zstack\HomeAutomation\SampleSensorEnviroment_2\CC2530DB\..\..\..\..\..\Components\stack\bdb\"
//        -I "C:\Users\TS-577\Desktop\Zigbee workspace\Product
//        Developer\particular
//        product\Projects\zstack\HomeAutomation\SampleSensorEnviroment_2\CC2530DB\..\..\..\..\..\Components\stack\gp\"
//        -I "C:\Users\TS-577\Desktop\Zigbee workspace\Product
//        Developer\particular
//        product\Projects\zstack\HomeAutomation\SampleSensorEnviroment_2\CC2530DB\..\..\..\..\..\Components\stack\nwk\"
//        -I "C:\Users\TS-577\Desktop\Zigbee workspace\Product
//        Developer\particular
//        product\Projects\zstack\HomeAutomation\SampleSensorEnviroment_2\CC2530DB\..\..\..\..\..\Components\stack\sapi\"
//        -I "C:\Users\TS-577\Desktop\Zigbee workspace\Product
//        Developer\particular
//        product\Projects\zstack\HomeAutomation\SampleSensorEnviroment_2\CC2530DB\..\..\..\..\..\Components\stack\sec\"
//        -I "C:\Users\TS-577\Desktop\Zigbee workspace\Product
//        Developer\particular
//        product\Projects\zstack\HomeAutomation\SampleSensorEnviroment_2\CC2530DB\..\..\..\..\..\Components\stack\sys\"
//        -I "C:\Users\TS-577\Desktop\Zigbee workspace\Product
//        Developer\particular
//        product\Projects\zstack\HomeAutomation\SampleSensorEnviroment_2\CC2530DB\..\..\..\..\..\Components\stack\zcl\"
//        -I "C:\Users\TS-577\Desktop\Zigbee workspace\Product
//        Developer\particular
//        product\Projects\zstack\HomeAutomation\SampleSensorEnviroment_2\CC2530DB\..\..\..\..\..\Components\stack\zdo\"
//        -I "C:\Users\TS-577\Desktop\Zigbee workspace\Product
//        Developer\particular
//        product\Projects\zstack\HomeAutomation\SampleSensorEnviroment_2\CC2530DB\..\..\..\..\..\Components\zmac\"
//        -I "C:\Users\TS-577\Desktop\Zigbee workspace\Product
//        Developer\particular
//        product\Projects\zstack\HomeAutomation\SampleSensorEnviroment_2\CC2530DB\..\..\..\..\..\Components\zmac\f8w\"
//        -Ohz --require_prototypes)
//    Locale             =  Japanese_JPN.932
//    List file          =  
//        C:\Users\TS-577\Desktop\Zigbee workspace\Product Developer\particular
//        product\Projects\zstack\HomeAutomation\SampleSensorEnviroment_2\CC2530DB\EndDeviceEB\List\zcl_SampleSensorEnviroment_data.s51
//
///////////////////////////////////////////////////////////////////////////////

        NAME zcl_SampleSensorEnviroment_data

        RTMODEL "__SystemLibrary", "CLib"
        RTMODEL "__calling_convention", "xdata_reentrant"
        RTMODEL "__code_model", "banked"
        RTMODEL "__core", "plain"
        RTMODEL "__data_model", "large"
        RTMODEL "__dptr_size", "16"
        RTMODEL "__extended_stack", "disabled"
        RTMODEL "__location_for_constants", "data"
        RTMODEL "__number_of_dptrs", "1"
        RTMODEL "__register_banks", "*"
        RTMODEL "__rt_version", "1"

        RSEG DOVERLAY:DATA:NOROOT(0)
        RSEG IOVERLAY:IDATA:NOROOT(0)
        RSEG ISTACK:IDATA:NOROOT(0)
        RSEG PSTACK:XDATA:NOROOT(0)
        RSEG XSTACK:XDATA:NOROOT(0)

        EXTERN ?BDISPATCH
        EXTERN ?BRET
        EXTERN __INIT_XDATA_I
        EXTERN __INIT_XDATA_Z

        PUBLIC ??zclSampleSensorEnviroment_ResetAttributesToDe
        FUNCTION ??zclSampleSensorEnviroment_ResetAttributesToDe,0203H
        PUBLIC zclSampleSensorEnviroment_Attrs
        PUBLIC zclSampleSensorEnviroment_CO2_MeasuredValue
        PUBLIC zclSampleSensorEnviroment_ConfigReportRecs
        PUBLIC zclSampleSensorEnviroment_DateCode
        PUBLIC zclSampleSensorEnviroment_DeviceEnable
        PUBLIC zclSampleSensorEnviroment_HWRevision
        PUBLIC zclSampleSensorEnviroment_Humidity_MaxMeasuredValue
        PUBLIC zclSampleSensorEnviroment_Humidity_MeasuredValue
        PUBLIC zclSampleSensorEnviroment_Humidity_MinMeasuredValue
        PUBLIC zclSampleSensorEnviroment_IdentifyTime
        PUBLIC zclSampleSensorEnviroment_InClusterList
        PUBLIC zclSampleSensorEnviroment_Light_MeasuredValue
        PUBLIC zclSampleSensorEnviroment_LocationDescription
        PUBLIC zclSampleSensorEnviroment_ManufacturerName
        PUBLIC zclSampleSensorEnviroment_ModelId
        PUBLIC zclSampleSensorEnviroment_NumAttributes
        PUBLIC zclSampleSensorEnviroment_NumConfigReportRecs
        PUBLIC zclSampleSensorEnviroment_OutClusterList
        PUBLIC zclSampleSensorEnviroment_PhysicalEnvironment
        PUBLIC zclSampleSensorEnviroment_Pir_Status
        PUBLIC zclSampleSensorEnviroment_Pir_Type
        PUBLIC zclSampleSensorEnviroment_PowerSource
        PUBLIC zclSampleSensorEnviroment_ResetAttributesToDefaultValues
        FUNCTION zclSampleSensorEnviroment_ResetAttributesToDefaultValues,0203H
        ARGFRAME XSTACK, 0, STACK
        LOCFRAME ISTACK, 2, STACK
        PUBLIC zclSampleSensorEnviroment_SimpleDesc
        PUBLIC zclSampleSensorEnviroment_TVOC_MeasuredValue
        PUBLIC zclSampleSensorEnviroment_Temperature_MaxMeasuredValue
        PUBLIC zclSampleSensorEnviroment_Temperature_MeasuredValue
        PUBLIC zclSampleSensorEnviroment_Temperature_MinMeasuredValue
        PUBLIC zclSampleSensorEnviroment_ZCLVersion
        PUBLIC zclSampleSensorEnviroment_clusterRevision_all
        
          CFI Names cfiNames0
          CFI StackFrame CFA_SP SP IDATA
          CFI StackFrame CFA_PSP16 PSP16 XDATA
          CFI StackFrame CFA_XSP16 XSP16 XDATA
          CFI StaticOverlayFrame CFA_IOVERLAY IOVERLAY
          CFI StaticOverlayFrame CFA_DOVERLAY DOVERLAY
          CFI Resource `PSW.CY`:1, `B.BR0`:1, `B.BR1`:1, `B.BR2`:1, `B.BR3`:1
          CFI Resource `B.BR4`:1, `B.BR5`:1, `B.BR6`:1, `B.BR7`:1, `VB.BR8`:1
          CFI Resource `VB.BR9`:1, `VB.BR10`:1, `VB.BR11`:1, `VB.BR12`:1
          CFI Resource `VB.BR13`:1, `VB.BR14`:1, `VB.BR15`:1, VB:8, B:8, A:8
          CFI Resource PSW:8, DPL0:8, DPH0:8, R0:8, R1:8, R2:8, R3:8, R4:8, R5:8
          CFI Resource R6:8, R7:8, V0:8, V1:8, V2:8, V3:8, V4:8, V5:8, V6:8, V7:8
          CFI Resource V8:8, V9:8, V10:8, V11:8, V12:8, V13:8, V14:8, V15:8, SP:8
          CFI Resource PSPH:8, PSPL:8, PSP16:16, XSPH:8, XSPL:8, XSP16:16
          CFI VirtualResource ?RET:24
          CFI Resource ?BRET_EXT:8
          CFI VirtualResource ?RET_HIGH:8, ?RET_LOW:8
          CFI ResourceParts PSP16 PSPH, PSPL
          CFI ResourceParts XSP16 XSPH, XSPL
          CFI ResourceParts ?RET ?BRET_EXT, ?RET_HIGH, ?RET_LOW
          CFI EndNames cfiNames0
        
          CFI Common cfiCommon0 Using cfiNames0
          CFI CodeAlign 1
          CFI DataAlign -1
          CFI ReturnAddress ?RET CODE
          CFI CFA_DOVERLAY Used
          CFI CFA_IOVERLAY Used
          CFI CFA_SP SP+-3
          CFI CFA_PSP16 PSP16+0
          CFI CFA_XSP16 XSP16+0
          CFI `PSW.CY` SameValue
          CFI `B.BR0` SameValue
          CFI `B.BR1` SameValue
          CFI `B.BR2` SameValue
          CFI `B.BR3` SameValue
          CFI `B.BR4` SameValue
          CFI `B.BR5` SameValue
          CFI `B.BR6` SameValue
          CFI `B.BR7` SameValue
          CFI `VB.BR8` SameValue
          CFI `VB.BR9` SameValue
          CFI `VB.BR10` SameValue
          CFI `VB.BR11` SameValue
          CFI `VB.BR12` SameValue
          CFI `VB.BR13` SameValue
          CFI `VB.BR14` SameValue
          CFI `VB.BR15` SameValue
          CFI VB SameValue
          CFI B Undefined
          CFI A Undefined
          CFI PSW SameValue
          CFI DPL0 SameValue
          CFI DPH0 SameValue
          CFI R0 Undefined
          CFI R1 Undefined
          CFI R2 Undefined
          CFI R3 Undefined
          CFI R4 Undefined
          CFI R5 Undefined
          CFI R6 SameValue
          CFI R7 SameValue
          CFI V0 SameValue
          CFI V1 SameValue
          CFI V2 SameValue
          CFI V3 SameValue
          CFI V4 SameValue
          CFI V5 SameValue
          CFI V6 SameValue
          CFI V7 SameValue
          CFI V8 SameValue
          CFI V9 SameValue
          CFI V10 SameValue
          CFI V11 SameValue
          CFI V12 SameValue
          CFI V13 SameValue
          CFI V14 SameValue
          CFI V15 SameValue
          CFI PSPH Undefined
          CFI PSPL Undefined
          CFI XSPH Undefined
          CFI XSPL Undefined
          CFI ?RET Concat
          CFI ?BRET_EXT Frame(CFA_SP, 3)
          CFI ?RET_HIGH Frame(CFA_SP, 2)
          CFI ?RET_LOW Frame(CFA_SP, 1)
          CFI EndCommon cfiCommon0
        
zclSampleSensorEnviroment_ResetAttributesToDefaultValues SYMBOL "zclSampleSensorEnviroment_ResetAttributesToDefaultValues"
??zclSampleSensorEnviroment_ResetAttributesToDe SYMBOL "?relay", zclSampleSensorEnviroment_ResetAttributesToDefaultValues

// C:\Users\TS-577\Desktop\Zigbee workspace\Product Developer\particular product\Projects\zstack\HomeAutomation\SampleSensorEnviroment_2\Source\zcl_SampleSensorEnviroment_data.c
//    1 /**************************************************************************************************
//    2 Filename:       zcl_sampletemperaturesensor_data.c
//    3 Revised:        $Date: 2014-09-25 13:20:41 -0700 (Thu, 25 Sep 2014) $
//    4 Revision:       $Revision: 40295 $
//    5 
//    6 
//    7 Description:    Zigbee Cluster Library - sample device application.
//    8 
//    9 
//   10 Copyright 2013-2014 Texas Instruments Incorporated. All rights reserved.
//   11 
//   12 IMPORTANT: Your use of this Software is limited to those specific rights
//   13 granted under the terms of a software license agreement between the user
//   14 who downloaded the software, his/her employer (which must be your employer)
//   15 and Texas Instruments Incorporated (the "License").  You may not use this
//   16 Software unless you agree to abide by the terms of the License. The License
//   17 limits your use, and you acknowledge, that the Software may not be modified,
//   18 copied or distributed unless embedded on a Texas Instruments microcontroller
//   19 or used solely and exclusively in conjunction with a Texas Instruments radio
//   20 frequency transceiver, which is integrated into your product.  Other than for
//   21 the foregoing purpose, you may not use, reproduce, copy, prepare derivative
//   22 works of, modify, distribute, perform, display or sell this Software and/or
//   23 its documentation for any purpose.
//   24 
//   25 YOU FURTHER ACKNOWLEDGE AND AGREE THAT THE SOFTWARE AND DOCUMENTATION ARE
//   26 PROVIDED "AS IS" WITHOUT WARRANTY OF ANY KIND, EITHER EXPRESS OR IMPLIED,
//   27 INCLUDING WITHOUT LIMITATION, ANY WARRANTY OF MERCHANTABILITY, TITLE,
//   28 NON-INFRINGEMENT AND FITNESS FOR A PARTICULAR PURPOSE. IN NO EVENT SHALL
//   29 TEXAS INSTRUMENTS OR ITS LICENSORS BE LIABLE OR OBLIGATED UNDER CONTRACT,
//   30 NEGLIGENCE, STRICT LIABILITY, CONTRIBUTION, BREACH OF WARRANTY, OR OTHER
//   31 LEGAL EQUITABLE THEORY ANY DIRECT OR INDIRECT DAMAGES OR EXPENSES
//   32 INCLUDING BUT NOT LIMITED TO ANY INCIDENTAL, SPECIAL, INDIRECT, PUNITIVE
//   33 OR CONSEQUENTIAL DAMAGES, LOST PROFITS OR LOST DATA, COST OF PROCUREMENT
//   34 OF SUBSTITUTE GOODS, TECHNOLOGY, SERVICES, OR ANY CLAIMS BY THIRD PARTIES
//   35 (INCLUDING BUT NOT LIMITED TO ANY DEFENSE THEREOF), OR OTHER SIMILAR COSTS.
//   36 
//   37 Should you have any questions regarding your right to use this Software,
//   38 contact Texas Instruments Incorporated at www.TI.com.
//   39 **************************************************************************************************/
//   40 
//   41 /*********************************************************************
//   42 * INCLUDES
//   43 */
//   44 #include "ZComDef.h"
//   45 #include "OSAL.h"
//   46 #include "AF.h"
//   47 #include "ZDConfig.h"
//   48 
//   49 #include "zcl.h"
//   50 #include "zcl_general.h"
//   51 #include "zcl_ha.h"
//   52 #include "zcl_ms.h"
//   53 
//   54 #include "zcl_SampleSensorEnviroment.h"
//   55 
//   56 /*********************************************************************
//   57 * CONSTANTS
//   58 */
//   59 
//   60 #define SAMPLESENSORENVIROMENT_DEVICE_VERSION     0
//   61 #define SAMPLESENSORENVIROMENT_FLAGS              0
//   62 
//   63 #define SAMPLESENSORENVIROMENT_HWVERSION          1
//   64 #define SAMPLESENSORENVIROMENT_ZCLVERSION         1
//   65 
//   66 #define SAMPLESENSORENVIROMENT_TEMPERATURE_MAX_MEASURED_VALUE  2700  // 27.00C
//   67 #define SAMPLESENSORENVIROMENT_TEMPERATURE_MIN_MEASURED_VALUE  1700  // 17.00C
//   68 #define SAMPLESENSORENVIROMENT_TEMPERATURE_MEASURED_VALUE      2000  // 20.00C
//   69 
//   70 #define SAMPLESENSORENVIROMENT_HUMIDITY_MIN_MEASURED_VALUE     50
//   71 #define SAMPLESENSORENVIROMENT_HUMIDITY_MAX_MEASURED_VALUE     300
//   72 #define SAMPLESENSORENVIROMENT_HUMIDITY_MEASURED_VALUE         150  
//   73 
//   74 #define SAMPLESENSORENVIROMENT_LIGHT_MEASURED_VALUE            700
//   75 
//   76 
//   77 /*********************************************************************
//   78 * TYPEDEFS
//   79 */
//   80 
//   81 /*********************************************************************
//   82 * MACROS
//   83 */
//   84 
//   85 /*********************************************************************
//   86 * GLOBAL VARIABLES
//   87 */
//   88 
//   89 // Global attributes

        RSEG XDATA_ROM_C:CONST:REORDER:NOROOT(0)
        DATA16
//   90 const uint16 zclSampleSensorEnviroment_clusterRevision_all = 0x0001; 
zclSampleSensorEnviroment_clusterRevision_all:
        DW 1
//   91 
//   92 // Basic Cluster

        RSEG XDATA_ROM_C:CONST:REORDER:NOROOT(0)
        DATA8
//   93 const uint8 zclSampleSensorEnviroment_HWRevision = SAMPLESENSORENVIROMENT_HWVERSION;
zclSampleSensorEnviroment_HWRevision:
        DB 1

        RSEG XDATA_ROM_C:CONST:REORDER:NOROOT(0)
        DATA8
//   94 const uint8 zclSampleSensorEnviroment_ZCLVersion = SAMPLESENSORENVIROMENT_ZCLVERSION;
zclSampleSensorEnviroment_ZCLVersion:
        DB 1

        RSEG XDATA_ROM_C:CONST:REORDER:NOROOT(0)
        DATA8
//   95 const uint8 zclSampleSensorEnviroment_ManufacturerName[] = { 16, 'T','e','x','a','s','I','n','s','t','r','u','m','e','n','t','s' };
zclSampleSensorEnviroment_ManufacturerName:
        DB 16
        DB 84
        DB 101
        DB 120
        DB 97
        DB 115
        DB 73
        DB 110
        DB 115
        DB 116
        DB 114
        DB 117
        DB 109
        DB 101
        DB 110
        DB 116
        DB 115

        RSEG XDATA_ROM_C:CONST:REORDER:NOROOT(0)
        DATA8
//   96 const uint8 zclSampleSensorEnviroment_ModelId[] = { 16, 'T','I','0','0','0','1',' ',' ',' ',' ',' ',' ',' ',' ',' ',' ' };
zclSampleSensorEnviroment_ModelId:
        DB 16
        DB 84
        DB 73
        DB 48
        DB 48
        DB 48
        DB 49
        DB 32
        DB 32
        DB 32
        DB 32
        DB 32
        DB 32
        DB 32
        DB 32
        DB 32
        DB 32

        RSEG XDATA_ROM_C:CONST:REORDER:NOROOT(0)
        DATA8
//   97 const uint8 zclSampleSensorEnviroment_DateCode[] = { 16, '2','0','0','6','0','8','3','1',' ',' ',' ',' ',' ',' ',' ',' ' };
zclSampleSensorEnviroment_DateCode:
        DB 16
        DB 50
        DB 48
        DB 48
        DB 54
        DB 48
        DB 56
        DB 51
        DB 49
        DB 32
        DB 32
        DB 32
        DB 32
        DB 32
        DB 32
        DB 32
        DB 32

        RSEG XDATA_ROM_C:CONST:REORDER:NOROOT(0)
        DATA8
//   98 const uint8 zclSampleSensorEnviroment_PowerSource = POWER_SOURCE_MAINS_1_PHASE;
zclSampleSensorEnviroment_PowerSource:
        DB 1
//   99 

        RSEG XDATA_Z:XDATA:NOROOT(0)
        DATA8
//  100 uint8 zclSampleSensorEnviroment_LocationDescription[17];
zclSampleSensorEnviroment_LocationDescription:
        DS 17
        REQUIRE __INIT_XDATA_Z

        RSEG XDATA_Z:XDATA:NOROOT(0)
        DATA8
//  101 uint8 zclSampleSensorEnviroment_PhysicalEnvironment;
zclSampleSensorEnviroment_PhysicalEnvironment:
        DS 1
        REQUIRE __INIT_XDATA_Z

        RSEG XDATA_Z:XDATA:NOROOT(0)
        DATA8
//  102 uint8 zclSampleSensorEnviroment_DeviceEnable;
zclSampleSensorEnviroment_DeviceEnable:
        DS 1
        REQUIRE __INIT_XDATA_Z
//  103 
//  104 // Identify Cluster

        RSEG XDATA_Z:XDATA:NOROOT(0)
        DATA16
//  105 uint16 zclSampleSensorEnviroment_IdentifyTime;
zclSampleSensorEnviroment_IdentifyTime:
        DS 2
        REQUIRE __INIT_XDATA_Z
//  106 
//  107 // Temperature Sensor Cluster

        RSEG XDATA_Z:XDATA:NOROOT(0)
        DATA16
//  108 int16 zclSampleSensorEnviroment_Temperature_MeasuredValue;
zclSampleSensorEnviroment_Temperature_MeasuredValue:
        DS 2
        REQUIRE __INIT_XDATA_Z

        RSEG XDATA_I:XDATA:NOROOT(0)
//  109 int16 zclSampleSensorEnviroment_Temperature_MinMeasuredValue = SAMPLESENSORENVIROMENT_TEMPERATURE_MIN_MEASURED_VALUE; 
zclSampleSensorEnviroment_Temperature_MinMeasuredValue:
        DATA16
        DS 2
        REQUIRE `?<Initializer for zclSampleSensorEnviroment_Te`
        REQUIRE __INIT_XDATA_I

        RSEG XDATA_I:XDATA:NOROOT(0)
//  110 uint16 zclSampleSensorEnviroment_Temperature_MaxMeasuredValue = SAMPLESENSORENVIROMENT_TEMPERATURE_MAX_MEASURED_VALUE;
zclSampleSensorEnviroment_Temperature_MaxMeasuredValue:
        DATA16
        DS 2
        REQUIRE `?<Initializer for zclSampleSensorEnviroment_Te_1`
        REQUIRE __INIT_XDATA_I
//  111 
//  112 // Light Sensor Cluster

        RSEG XDATA_Z:XDATA:NOROOT(0)
        DATA16
//  113 int16 zclSampleSensorEnviroment_Light_MeasuredValue;
zclSampleSensorEnviroment_Light_MeasuredValue:
        DS 2
        REQUIRE __INIT_XDATA_Z
//  114 
//  115 // Humidity Sensor Cluster

        RSEG XDATA_Z:XDATA:NOROOT(0)
        DATA16
//  116 int16 zclSampleSensorEnviroment_Humidity_MeasuredValue;
zclSampleSensorEnviroment_Humidity_MeasuredValue:
        DS 2
        REQUIRE __INIT_XDATA_Z

        RSEG XDATA_I:XDATA:NOROOT(0)
//  117 int16 zclSampleSensorEnviroment_Humidity_MinMeasuredValue = SAMPLESENSORENVIROMENT_HUMIDITY_MIN_MEASURED_VALUE;
zclSampleSensorEnviroment_Humidity_MinMeasuredValue:
        DATA16
        DS 2
        REQUIRE `?<Initializer for zclSampleSensorEnviroment_Hu`
        REQUIRE __INIT_XDATA_I

        RSEG XDATA_I:XDATA:NOROOT(0)
//  118 uint16 zclSampleSensorEnviroment_Humidity_MaxMeasuredValue = SAMPLESENSORENVIROMENT_HUMIDITY_MAX_MEASURED_VALUE;
zclSampleSensorEnviroment_Humidity_MaxMeasuredValue:
        DATA16
        DS 2
        REQUIRE `?<Initializer for zclSampleSensorEnviroment_Hu_1`
        REQUIRE __INIT_XDATA_I
//  119 
//  120 // PIR Sensor Cluster

        RSEG XDATA_Z:XDATA:NOROOT(0)
        DATA8
//  121 uint8 zclSampleSensorEnviroment_Pir_Status;
zclSampleSensorEnviroment_Pir_Status:
        DS 1
        REQUIRE __INIT_XDATA_Z

        RSEG XDATA_Z:XDATA:NOROOT(0)
        DATA8
//  122 uint8 zclSampleSensorEnviroment_Pir_Type = MS_OCCUPANCY_SENSOR_TYPE_PIR;
zclSampleSensorEnviroment_Pir_Type:
        DS 1
        REQUIRE __INIT_XDATA_Z
//  123 
//  124 // TVOC Sensor Cluster

        RSEG XDATA_Z:XDATA:NOROOT(0)
        DATA16
//  125 int16 zclSampleSensorEnviroment_TVOC_MeasuredValue;
zclSampleSensorEnviroment_TVOC_MeasuredValue:
        DS 2
        REQUIRE __INIT_XDATA_Z
//  126 
//  127 // CO2 Sensor Cluster

        RSEG XDATA_Z:XDATA:NOROOT(0)
        DATA16
//  128 int16 zclSampleSensorEnviroment_CO2_MeasuredValue;
zclSampleSensorEnviroment_CO2_MeasuredValue:
        DS 2
        REQUIRE __INIT_XDATA_Z
//  129 
//  130 /*********************************************************************
//  131 * ATTRIBUTE DEFINITIONS - Uses REAL cluster IDs
//  132 */
//  133 
//  134 // NOTE: The attributes listed in the AttrRec must be in ascending order 
//  135 // per cluster to allow right function of the Foundation discovery commands
//  136 

        RSEG CODE_C:CODE:REORDER:NOROOT(0)
        DATA8
//  137 CONST zclAttrRec_t zclSampleSensorEnviroment_Attrs[] =
zclSampleSensorEnviroment_Attrs:
        DATA16
        DW 0
        DW 0
        DATA8
        DB 32
        DB 1
        DATA16
        DW zclSampleSensorEnviroment_ZCLVersion
        DW 0
        DW 3
        DATA8
        DB 32
        DB 1
        DATA16
        DW zclSampleSensorEnviroment_HWRevision
        DW 0
        DW 4
        DATA8
        DB 66
        DB 1
        DATA16
        DW zclSampleSensorEnviroment_ManufacturerName
        DW 0
        DW 5
        DATA8
        DB 66
        DB 1
        DATA16
        DW zclSampleSensorEnviroment_ModelId
        DW 0
        DW 6
        DATA8
        DB 66
        DB 1
        DATA16
        DW zclSampleSensorEnviroment_DateCode
        DW 0
        DW 7
        DATA8
        DB 48
        DB 1
        DATA16
        DW zclSampleSensorEnviroment_PowerSource
        DW 0
        DW 16
        DATA8
        DB 66
        DB 3
        DATA16
        DW zclSampleSensorEnviroment_LocationDescription
        DW 0
        DW 17
        DATA8
        DB 48
        DB 3
        DATA16
        DW zclSampleSensorEnviroment_PhysicalEnvironment
        DW 0
        DW 18
        DATA8
        DB 16
        DB 3
        DATA16
        DW zclSampleSensorEnviroment_DeviceEnable
        DW 0
        DW 65533
        DATA8
        DB 33
        DB 1
        DATA16
        DW zclSampleSensorEnviroment_clusterRevision_all
        DW 3
        DW 0
        DATA8
        DB 33
        DB 3
        DATA16
        DW zclSampleSensorEnviroment_IdentifyTime
        DW 3
        DW 65533
        DATA8
        DB 33
        DB 65
        DATA16
        DW zclSampleSensorEnviroment_clusterRevision_all
        DW 1024
        DW 0
        DATA8
        DB 41
        DB 5
        DATA16
        DW zclSampleSensorEnviroment_Light_MeasuredValue
        DW 1024
        DW 65533
        DATA8
        DB 33
        DB 1
        DATA16
        DW zclSampleSensorEnviroment_clusterRevision_all
        DW 1026
        DW 0
        DATA8
        DB 41
        DB 5
        DATA16
        DW zclSampleSensorEnviroment_Temperature_MeasuredValue
        DW 1026
        DW 1
        DATA8
        DB 41
        DB 5
        DATA16
        DW zclSampleSensorEnviroment_Temperature_MinMeasuredValue
        DW 1026
        DW 2
        DATA8
        DB 41
        DB 5
        DATA16
        DW zclSampleSensorEnviroment_Temperature_MaxMeasuredValue
        DW 1026
        DW 65533
        DATA8
        DB 33
        DB 1
        DATA16
        DW zclSampleSensorEnviroment_clusterRevision_all
        DW 1029
        DW 0
        DATA8
        DB 41
        DB 5
        DATA16
        DW zclSampleSensorEnviroment_Humidity_MeasuredValue
        DW 1029
        DW 1
        DATA8
        DB 41
        DB 5
        DATA16
        DW zclSampleSensorEnviroment_Humidity_MinMeasuredValue
        DW 1029
        DW 2
        DATA8
        DB 41
        DB 5
        DATA16
        DW zclSampleSensorEnviroment_Humidity_MaxMeasuredValue
        DW 1029
        DW 65533
        DATA8
        DB 33
        DB 1
        DATA16
        DW zclSampleSensorEnviroment_clusterRevision_all
        DW 1030
        DW 0
        DATA8
        DB 24
        DB 5
        DATA16
        DW zclSampleSensorEnviroment_Pir_Status
        DW 1030
        DW 1
        DATA8
        DB 33
        DB 1
        DATA16
        DW zclSampleSensorEnviroment_Pir_Type
        DW 1030
        DW 65533
        DATA8
        DB 33
        DB 1
        DATA16
        DW zclSampleSensorEnviroment_clusterRevision_all
        DW 3072
        DW 0
        DATA8
        DB 41
        DB 5
        DATA16
        DW zclSampleSensorEnviroment_TVOC_MeasuredValue
        DW 3072
        DW 65533
        DATA8
        DB 33
        DB 1
        DATA16
        DW zclSampleSensorEnviroment_clusterRevision_all
        DW 3073
        DW 0
        DATA8
        DB 41
        DB 5
        DATA16
        DW zclSampleSensorEnviroment_CO2_MeasuredValue
        DW 3073
        DW 65533
        DATA8
        DB 33
        DB 1
        DATA16
        DW zclSampleSensorEnviroment_clusterRevision_all
//  138 {
//  139   // *** General Basic Cluster Attributes ***
//  140   {
//  141     ZCL_CLUSTER_ID_GEN_BASIC,
//  142     { // Attribute record
//  143       ATTRID_BASIC_ZCL_VERSION,
//  144       ZCL_DATATYPE_UINT8,
//  145       ACCESS_CONTROL_READ,
//  146       (void *)&zclSampleSensorEnviroment_ZCLVersion
//  147     }
//  148   },
//  149   {
//  150     ZCL_CLUSTER_ID_GEN_BASIC,             // Cluster IDs - defined in the foundation (ie. zcl.h)
//  151     {  // Attribute record
//  152       ATTRID_BASIC_HW_VERSION,            // Attribute ID - Found in Cluster Library header (ie. zcl_general.h)
//  153       ZCL_DATATYPE_UINT8,                 // Data Type - found in zcl.h
//  154       ACCESS_CONTROL_READ,                // Variable access control - found in zcl.h
//  155       (void *)&zclSampleSensorEnviroment_HWRevision  // Pointer to attribute variable
//  156     }
//  157   },
//  158   {
//  159     ZCL_CLUSTER_ID_GEN_BASIC,
//  160     { // Attribute record
//  161       ATTRID_BASIC_MANUFACTURER_NAME,
//  162       ZCL_DATATYPE_CHAR_STR,
//  163       ACCESS_CONTROL_READ,
//  164       (void *)zclSampleSensorEnviroment_ManufacturerName
//  165     }
//  166   },
//  167   {
//  168     ZCL_CLUSTER_ID_GEN_BASIC,
//  169     { // Attribute record
//  170       ATTRID_BASIC_MODEL_ID,
//  171       ZCL_DATATYPE_CHAR_STR,
//  172       ACCESS_CONTROL_READ,
//  173       (void *)zclSampleSensorEnviroment_ModelId
//  174     }
//  175   },
//  176   {
//  177     ZCL_CLUSTER_ID_GEN_BASIC,
//  178     { // Attribute record
//  179       ATTRID_BASIC_DATE_CODE,
//  180       ZCL_DATATYPE_CHAR_STR,
//  181       ACCESS_CONTROL_READ,
//  182       (void *)zclSampleSensorEnviroment_DateCode
//  183     }
//  184   },
//  185   {
//  186     ZCL_CLUSTER_ID_GEN_BASIC,
//  187     { // Attribute record
//  188       ATTRID_BASIC_POWER_SOURCE,
//  189       ZCL_DATATYPE_ENUM8,
//  190       ACCESS_CONTROL_READ,
//  191       (void *)&zclSampleSensorEnviroment_PowerSource
//  192     }
//  193   },
//  194   {
//  195     ZCL_CLUSTER_ID_GEN_BASIC,
//  196     { // Attribute record
//  197       ATTRID_BASIC_LOCATION_DESC,
//  198       ZCL_DATATYPE_CHAR_STR,
//  199       (ACCESS_CONTROL_READ | ACCESS_CONTROL_WRITE),
//  200       (void *)zclSampleSensorEnviroment_LocationDescription
//  201     }
//  202   },
//  203   {
//  204     ZCL_CLUSTER_ID_GEN_BASIC,
//  205     { // Attribute record
//  206       ATTRID_BASIC_PHYSICAL_ENV,
//  207       ZCL_DATATYPE_ENUM8,
//  208       (ACCESS_CONTROL_READ | ACCESS_CONTROL_WRITE),
//  209       (void *)&zclSampleSensorEnviroment_PhysicalEnvironment
//  210     }
//  211   },
//  212   {
//  213     ZCL_CLUSTER_ID_GEN_BASIC,
//  214     { // Attribute record
//  215       ATTRID_BASIC_DEVICE_ENABLED,
//  216       ZCL_DATATYPE_BOOLEAN,
//  217       (ACCESS_CONTROL_READ | ACCESS_CONTROL_WRITE),
//  218       (void *)&zclSampleSensorEnviroment_DeviceEnable
//  219     }
//  220   },
//  221   {
//  222     ZCL_CLUSTER_ID_GEN_BASIC,
//  223     {  // Attribute record
//  224       ATTRID_CLUSTER_REVISION,
//  225       ZCL_DATATYPE_UINT16,
//  226       ACCESS_CONTROL_READ,
//  227       (void *)&zclSampleSensorEnviroment_clusterRevision_all
//  228     }
//  229   },
//  230   // *** Identify Cluster Attribute ***
//  231   {
//  232     ZCL_CLUSTER_ID_GEN_IDENTIFY,
//  233     { // Attribute record
//  234       ATTRID_IDENTIFY_TIME,
//  235       ZCL_DATATYPE_UINT16,
//  236       (ACCESS_CONTROL_READ | ACCESS_CONTROL_WRITE),
//  237       (void *)&zclSampleSensorEnviroment_IdentifyTime
//  238     }
//  239   },
//  240   {
//  241     ZCL_CLUSTER_ID_GEN_IDENTIFY,
//  242     {  // Attribute record
//  243       ATTRID_CLUSTER_REVISION,
//  244       ZCL_DATATYPE_UINT16,
//  245       ACCESS_CONTROL_READ | ACCESS_GLOBAL,
//  246       (void *)&zclSampleSensorEnviroment_clusterRevision_all
//  247     }
//  248   },
//  249   // *** Light Measurement Attriubtes ***
//  250   {
//  251     ZCL_CLUSTER_ID_MS_ILLUMINANCE_MEASUREMENT,
//  252     { // Attribute record
//  253       ATTRID_MS_ILLUMINANCE_LEVEL_STATUS,
//  254       ZCL_DATATYPE_INT16,
//  255       ACCESS_CONTROL_READ | ACCESS_REPORTABLE,
//  256       (void *)&zclSampleSensorEnviroment_Light_MeasuredValue
//  257     }
//  258   },
//  259   
//  260   {
//  261     ZCL_CLUSTER_ID_MS_ILLUMINANCE_MEASUREMENT,
//  262     {  // Attribute record
//  263       ATTRID_CLUSTER_REVISION,
//  264       ZCL_DATATYPE_UINT16,
//  265       ACCESS_CONTROL_READ,
//  266       (void *)&zclSampleSensorEnviroment_clusterRevision_all
//  267     }
//  268   },
//  269    // *** Temperature Measurement Attriubtes ***
//  270   {
//  271     ZCL_CLUSTER_ID_MS_TEMPERATURE_MEASUREMENT,
//  272     { // Attribute record
//  273       ATTRID_MS_TEMPERATURE_MEASURED_VALUE,
//  274       ZCL_DATATYPE_INT16,
//  275       ACCESS_CONTROL_READ | ACCESS_REPORTABLE,
//  276       (void *)&zclSampleSensorEnviroment_Temperature_MeasuredValue
//  277     }
//  278   },
//  279   {
//  280     ZCL_CLUSTER_ID_MS_TEMPERATURE_MEASUREMENT,
//  281     { // Attribute record
//  282       ATTRID_MS_TEMPERATURE_MIN_MEASURED_VALUE,
//  283       ZCL_DATATYPE_INT16,
//  284       ACCESS_CONTROL_READ | ACCESS_REPORTABLE,
//  285       (void *)&zclSampleSensorEnviroment_Temperature_MinMeasuredValue
//  286     }
//  287   },
//  288   {
//  289     ZCL_CLUSTER_ID_MS_TEMPERATURE_MEASUREMENT,
//  290     { // Attribute record
//  291       ATTRID_MS_TEMPERATURE_MAX_MEASURED_VALUE,
//  292       ZCL_DATATYPE_INT16,
//  293       ACCESS_CONTROL_READ | ACCESS_REPORTABLE,
//  294       (void *)&zclSampleSensorEnviroment_Temperature_MaxMeasuredValue
//  295     }
//  296   },
//  297   {
//  298     ZCL_CLUSTER_ID_MS_TEMPERATURE_MEASUREMENT,
//  299     {  // Attribute record
//  300       ATTRID_CLUSTER_REVISION,
//  301       ZCL_DATATYPE_UINT16,
//  302       ACCESS_CONTROL_READ,
//  303       (void *)&zclSampleSensorEnviroment_clusterRevision_all
//  304     }
//  305   },
//  306   
//  307   
//  308   // *** Humidity Measurement Attriubtes ***
//  309   {
//  310     ZCL_CLUSTER_ID_MS_RELATIVE_HUMIDITY,
//  311     { // Attribute record
//  312       ATTRID_MS_RELATIVE_HUMIDITY_MEASURED_VALUE,
//  313       ZCL_DATATYPE_INT16,
//  314       ACCESS_CONTROL_READ | ACCESS_REPORTABLE,
//  315       (void *)&zclSampleSensorEnviroment_Humidity_MeasuredValue
//  316     }
//  317   },
//  318     {
//  319     ZCL_CLUSTER_ID_MS_RELATIVE_HUMIDITY,
//  320     { // Attribute record
//  321       ATTRID_MS_RELATIVE_HUMIDITY_MIN_MEASURED_VALUE,
//  322       ZCL_DATATYPE_INT16,
//  323       ACCESS_CONTROL_READ | ACCESS_REPORTABLE,
//  324       (void *)&zclSampleSensorEnviroment_Humidity_MinMeasuredValue
//  325     }
//  326   },
//  327     {
//  328     ZCL_CLUSTER_ID_MS_RELATIVE_HUMIDITY,
//  329     { // Attribute record
//  330       ATTRID_MS_RELATIVE_HUMIDITY_MAX_MEASURED_VALUE,
//  331       ZCL_DATATYPE_INT16,
//  332       ACCESS_CONTROL_READ | ACCESS_REPORTABLE,
//  333       (void *)&zclSampleSensorEnviroment_Humidity_MaxMeasuredValue
//  334     }
//  335   }, 
//  336   {
//  337     ZCL_CLUSTER_ID_MS_RELATIVE_HUMIDITY,
//  338     {  // Attribute record
//  339       ATTRID_CLUSTER_REVISION,
//  340       ZCL_DATATYPE_UINT16,
//  341       ACCESS_CONTROL_READ,
//  342       (void *)&zclSampleSensorEnviroment_clusterRevision_all
//  343     }
//  344   },
//  345     // *** PIR Attriubtes ***
//  346   {
//  347     ZCL_CLUSTER_ID_MS_OCCUPANCY_SENSING,
//  348     { // Attribute record
//  349       ATTRID_MS_OCCUPANCY_SENSING_CONFIG_OCCUPANCY,
//  350       ZCL_DATATYPE_BITMAP8,
//  351       ACCESS_CONTROL_READ | ACCESS_REPORTABLE,
//  352       (void *)&zclSampleSensorEnviroment_Pir_Status
//  353     }
//  354   },
//  355   
//  356   {
//  357     ZCL_CLUSTER_ID_MS_OCCUPANCY_SENSING,
//  358     { // Attribute record
//  359       ATTRID_MS_OCCUPANCY_SENSING_CONFIG_OCCUPANCY_SENSOR_TYPE,
//  360       ZCL_DATATYPE_UINT16,
//  361       ACCESS_CONTROL_READ,
//  362       (void *)&zclSampleSensorEnviroment_Pir_Type
//  363     }
//  364   },
//  365   
//  366   {
//  367     ZCL_CLUSTER_ID_MS_OCCUPANCY_SENSING,
//  368     {  // Attribute record
//  369       ATTRID_CLUSTER_REVISION,
//  370       ZCL_DATATYPE_UINT16,
//  371       ACCESS_CONTROL_READ,
//  372       (void *)&zclSampleSensorEnviroment_clusterRevision_all
//  373     }
//  374   },
//  375   
//  376       // *** TVOC Attriubtes ***
//  377   {
//  378     ZCL_CLUSTER_ID_MS_TVOC_MEASUREMENT,
//  379     { // Attribute record
//  380       ATTRID_MS_TVOC_MEASURED_VALUE,
//  381       ZCL_DATATYPE_INT16,
//  382       ACCESS_CONTROL_READ | ACCESS_REPORTABLE,
//  383       (void *)&zclSampleSensorEnviroment_TVOC_MeasuredValue
//  384     }
//  385   },
//  386   
//  387   {
//  388     ZCL_CLUSTER_ID_MS_TVOC_MEASUREMENT,
//  389     {  // Attribute record
//  390       ATTRID_CLUSTER_REVISION,
//  391       ZCL_DATATYPE_UINT16,
//  392       ACCESS_CONTROL_READ,
//  393       (void *)&zclSampleSensorEnviroment_clusterRevision_all
//  394     }
//  395   }, 
//  396   
//  397       // *** CO2 Attriubtes ***
//  398   {
//  399     ZCL_CLUSTER_ID_MS_CO2_MEASUREMENT,
//  400     { // Attribute record
//  401       ATTRID_MS_CO2_MEASURED_VALUE,
//  402       ZCL_DATATYPE_INT16,
//  403       ACCESS_CONTROL_READ | ACCESS_REPORTABLE,
//  404       (void *)&zclSampleSensorEnviroment_CO2_MeasuredValue
//  405     }
//  406   },
//  407   
//  408   {
//  409     ZCL_CLUSTER_ID_MS_CO2_MEASUREMENT,
//  410     {  // Attribute record
//  411       ATTRID_CLUSTER_REVISION,
//  412       ZCL_DATATYPE_UINT16,
//  413       ACCESS_CONTROL_READ,
//  414       (void *)&zclSampleSensorEnviroment_clusterRevision_all
//  415     }
//  416   }
//  417 };
//  418 
//  419 

        RSEG CODE_C:CODE:REORDER:NOROOT(0)
        DATA8
//  420 uint8 CONST zclSampleSensorEnviroment_NumAttributes = ( sizeof(zclSampleSensorEnviroment_Attrs) / sizeof(zclSampleSensorEnviroment_Attrs[0]) );
zclSampleSensorEnviroment_NumAttributes:
        DB 29
//  421 
//  422 /*********************************************************************
//  423 * SIMPLE DESCRIPTOR
//  424 */
//  425 // This is the Cluster ID List and should be filled with Application
//  426 // specific cluster IDs.
//  427 
//  428 /************************ Cluster List for Light Sensor Endpoint ********************************/

        RSEG XDATA_ROM_C:CONST:REORDER:NOROOT(0)
        DATA8
//  429 const cId_t zclSampleSensorEnviroment_InClusterList[ZCLSAMPLESENSORENVIROMENT_MAX_INCLUSTERS] =
zclSampleSensorEnviroment_InClusterList:
        DATA16
        DW 0
        DW 3
        DW 1024
        DW 1026
        DW 1029
        DW 1030
        DW 3072
        DW 3073
//  430 {
//  431   ZCL_CLUSTER_ID_GEN_BASIC,
//  432   ZCL_CLUSTER_ID_GEN_IDENTIFY,
//  433   ZCL_CLUSTER_ID_MS_ILLUMINANCE_MEASUREMENT,
//  434   ZCL_CLUSTER_ID_MS_TEMPERATURE_MEASUREMENT,
//  435   ZCL_CLUSTER_ID_MS_RELATIVE_HUMIDITY,
//  436   ZCL_CLUSTER_ID_MS_OCCUPANCY_SENSING,
//  437   ZCL_CLUSTER_ID_MS_TVOC_MEASUREMENT,
//  438   ZCL_CLUSTER_ID_MS_CO2_MEASUREMENT
//  439 };
//  440 

        RSEG XDATA_ROM_C:CONST:REORDER:NOROOT(0)
        DATA16
//  441 const cId_t zclSampleSensorEnviroment_OutClusterList[ZCLSAMPLESENSORENVIROMENT_MAX_OUTCLUSTERS] =
zclSampleSensorEnviroment_OutClusterList:
        DW 3
//  442 {
//  443   ZCL_CLUSTER_ID_GEN_IDENTIFY
//  444 };
//  445 
//  446 

        RSEG XDATA_I:XDATA:NOROOT(0)
//  447 SimpleDescriptionFormat_t zclSampleSensorEnviroment_SimpleDesc =
zclSampleSensorEnviroment_SimpleDesc:
        DATA8
        DS 12
        REQUIRE `?<Initializer for zclSampleSensorEnviroment_Si`
        REQUIRE __INIT_XDATA_I
//  448 {
//  449   
//  450   /************************ Simple Description for mux Sensor Endpoint **********************************/
//  451     SAMPLESENSORENVIROMENT_ENDPOINT_MUXSENSOR,                        //  int Endpoint;
//  452     ZCL_HA_PROFILE_ID,                                          //  uint16 AppProfId[2];
//  453     ZCL_HA_DEVICEID_MULTI_SENSOR,                           //  uint16 AppDeviceId[2];
//  454     SAMPLESENSORENVIROMENT_DEVICE_VERSION,                      //  int   AppDevVer:4;
//  455     SAMPLESENSORENVIROMENT_FLAGS,                               //  int   AppFlags:4;
//  456     ZCLSAMPLESENSORENVIROMENT_MAX_INCLUSTERS,               //  byte  AppNumInClusters;
//  457     (cId_t *)zclSampleSensorEnviroment_InClusterList,       //  byte *pAppInClusterList;
//  458     ZCLSAMPLESENSORENVIROMENT_MAX_OUTCLUSTERS,              //  byte  AppNumInClusters;
//  459     (cId_t *)zclSampleSensorEnviroment_OutClusterList       //  byte *pAppInClusterList;
//  460 };
//  461 

        RSEG XDATA_I:XDATA:NOROOT(0)
//  462 zclConfigReportRec_t zclSampleSensorEnviroment_ConfigReportRecs[]= 
zclSampleSensorEnviroment_ConfigReportRecs:
        DATA8
        DS 108
        REQUIRE `?<Initializer for zclSampleSensorEnviroment_Co`
        REQUIRE __INIT_XDATA_I
//  463 {
//  464   {
//  465     //********* Humidity measurement Attribute ****************
//  466     ZCL_CLUSTER_ID_MS_RELATIVE_HUMIDITY,
//  467     0xFFFF,
//  468     (void *)&zclSampleSensorEnviroment_Humidity_MeasuredValue,
//  469     {
//  470       ZCL_REPORT_SEND,
//  471       ATTRID_MS_RELATIVE_HUMIDITY_MEASURED_VALUE,
//  472       ZCL_DATATYPE_INT16,
//  473       0,
//  474       30,
//  475       0,
//  476       NULL
//  477     }
//  478   },
//  479   
//  480   {
//  481     //******** Light mesurement Attribute *********
//  482     ZCL_CLUSTER_ID_MS_ILLUMINANCE_MEASUREMENT,                    // Cluster ID
//  483     0xFFFF,                                                       // timeup
//  484     (void *)&zclSampleSensorEnviroment_Light_MeasuredValue,   // &lastReportValue
//  485     { //cdfReportRec
//  486       ZCL_REPORT_SEND,                            // Direction
//  487       ATTRID_MS_ILLUMINANCE_LEVEL_STATUS,         // Attribute ID
//  488       ZCL_DATATYPE_UINT16,                         // Data Type
//  489       0,                                          // min Report interval
//  490       30,                                     // max Report interval
//  491       0,                                          // timeout period
//  492       NULL                                        // reportable change
//  493     }
//  494   },
//  495   {
//  496     //********* Occupancy measurement Attribute ****************
//  497     ZCL_CLUSTER_ID_MS_OCCUPANCY_SENSING,
//  498     0xFFFF,
//  499     (void *)&zclSampleSensorEnviroment_Pir_Status,
//  500     {
//  501       ZCL_REPORT_SEND,
//  502       ATTRID_MS_OCCUPANCY_SENSING_CONFIG_OCCUPANCY,
//  503       ZCL_DATATYPE_INT16,
//  504       0,
//  505       30,
//  506       0,
//  507       NULL
//  508     }
//  509   },
//  510   
//  511   {
//  512     //******** Temperature measurement Attribute ***********
//  513     ZCL_CLUSTER_ID_MS_TEMPERATURE_MEASUREMENT,
//  514     0xFFFF,
//  515     (void *)&zclSampleSensorEnviroment_Temperature_MeasuredValue,
//  516     { 
//  517       ZCL_REPORT_SEND,
//  518       ATTRID_MS_TEMPERATURE_MEASURED_VALUE,
//  519       ZCL_DATATYPE_INT16,
//  520       0,
//  521       30,
//  522       0,
//  523       NULL
//  524     }
//  525   },
//  526   
//  527     {
//  528     //******** TVOC measurement Attribute ***********
//  529     ZCL_CLUSTER_ID_MS_TVOC_MEASUREMENT,
//  530     0xFFFF,
//  531     (void *)&zclSampleSensorEnviroment_TVOC_MeasuredValue,
//  532     { 
//  533       ZCL_REPORT_SEND,
//  534       ATTRID_MS_TVOC_MEASURED_VALUE,
//  535       ZCL_DATATYPE_INT16,
//  536       0,
//  537       30,
//  538       0,
//  539       NULL
//  540     }
//  541   },
//  542   
//  543     {
//  544     //******** CO2 measurement Attribute ***********
//  545     ZCL_CLUSTER_ID_MS_CO2_MEASUREMENT,
//  546     0xFFFF,
//  547     (void *)&zclSampleSensorEnviroment_CO2_MeasuredValue,
//  548     { 
//  549       ZCL_REPORT_SEND,
//  550       ATTRID_MS_CO2_MEASURED_VALUE,
//  551       ZCL_DATATYPE_INT16,
//  552       0,
//  553       30,
//  554       0,
//  555       NULL
//  556     }
//  557   }
//  558 };
//  559 

        RSEG CODE_C:CODE:REORDER:NOROOT(0)
        DATA8
//  560 uint8 CONST zclSampleSensorEnviroment_NumConfigReportRecs = ( sizeof(zclSampleSensorEnviroment_ConfigReportRecs) / sizeof(zclSampleSensorEnviroment_ConfigReportRecs[0]) );
zclSampleSensorEnviroment_NumConfigReportRecs:
        DB 6
//  561 
//  562 /*********************************************************************
//  563 * GLOBAL FUNCTIONS
//  564 */
//  565 
//  566 /*********************************************************************
//  567 * LOCAL FUNCTIONS
//  568 */
//  569 
//  570 /*********************************************************************
//  571 * @fn      zclSampleLight_ResetAttributesToDefaultValues
//  572 *
//  573 * @brief   Reset all writable attributes to their default values.
//  574 *
//  575 * @param   none
//  576 *
//  577 * @return  none
//  578 */

        RSEG BANKED_CODE:HUGECODE:NOROOT(0)
//  579 void zclSampleSensorEnviroment_ResetAttributesToDefaultValues(void)
zclSampleSensorEnviroment_ResetAttributesToDefaultValues:
          CFI Block cfiBlock0 Using cfiCommon0
          CFI Function zclSampleSensorEnviroment_ResetAttributesToDefaultValues
        CODE
//  580 {
        PUSH      DPL
          CFI DPL0 Frame(CFA_SP, 4)
          CFI CFA_SP SP+-4
        PUSH      DPH
          CFI DPH0 Frame(CFA_SP, 5)
          CFI CFA_SP SP+-5
        ; Saved register size: 2
        ; Auto size: 0
//  581   int i;
//  582   
//  583   zclSampleSensorEnviroment_LocationDescription[0] = 16;
        MOV       DPTR,#zclSampleSensorEnviroment_LocationDescription
        MOV       A,#0x10
        MOVX      @DPTR,A
//  584   for (i = 1; i <= 16; i++)
//  585   {
//  586     zclSampleSensorEnviroment_LocationDescription[i] = ' ';
        MOV       A,#0x20
        INC       DPTR
        MOV       R0,#0x10
??zclSampleSensorEnviroment_ResetAttributesToDe_1:
        MOVX      @DPTR,A
        INC       DPTR
        DJNZ      R0,??zclSampleSensorEnviroment_ResetAttributesToDe_1
//  587   }
//  588   
//  589   zclSampleSensorEnviroment_PhysicalEnvironment = PHY_UNSPECIFIED_ENV;
        MOV       DPTR,#zclSampleSensorEnviroment_PhysicalEnvironment
        CLR       A
        MOVX      @DPTR,A
//  590   zclSampleSensorEnviroment_DeviceEnable = DEVICE_ENABLED;
        MOV       DPTR,#zclSampleSensorEnviroment_DeviceEnable
        INC       A
        MOVX      @DPTR,A
//  591   
//  592 #ifdef ZCL_IDENTIFY
//  593   zclSampleSensorEnviroment_IdentifyTime = 0;
        MOV       DPTR,#zclSampleSensorEnviroment_IdentifyTime
        CLR       A
        MOVX      @DPTR,A
        INC       DPTR
        MOVX      @DPTR,A
//  594 #endif
//  595   
//  596   zclSampleSensorEnviroment_Temperature_MeasuredValue = SAMPLESENSORENVIROMENT_TEMPERATURE_MEASURED_VALUE;
        MOV       DPTR,#zclSampleSensorEnviroment_Temperature_MeasuredValue
        MOV       A,#-0x30
        MOVX      @DPTR,A
        INC       DPTR
        MOV       A,#0x7
        MOVX      @DPTR,A
//  597   zclSampleSensorEnviroment_Temperature_MinMeasuredValue = SAMPLESENSORENVIROMENT_TEMPERATURE_MIN_MEASURED_VALUE; 
        MOV       DPTR,#zclSampleSensorEnviroment_Temperature_MinMeasuredValue
        MOV       A,#-0x5c
        MOVX      @DPTR,A
        INC       DPTR
        MOV       A,#0x6
        MOVX      @DPTR,A
//  598   zclSampleSensorEnviroment_Temperature_MaxMeasuredValue = SAMPLESENSORENVIROMENT_TEMPERATURE_MAX_MEASURED_VALUE;
        MOV       DPTR,#zclSampleSensorEnviroment_Temperature_MaxMeasuredValue
        MOV       A,#-0x74
        MOVX      @DPTR,A
        INC       DPTR
        MOV       A,#0xa
        MOVX      @DPTR,A
//  599   
//  600   zclSampleSensorEnviroment_Light_MeasuredValue = SAMPLESENSORENVIROMENT_LIGHT_MEASURED_VALUE;
        MOV       DPTR,#zclSampleSensorEnviroment_Light_MeasuredValue
        MOV       A,#-0x44
        MOVX      @DPTR,A
        INC       DPTR
        MOV       A,#0x2
        MOVX      @DPTR,A
//  601   
//  602   zclSampleSensorEnviroment_Humidity_MeasuredValue = SAMPLESENSORENVIROMENT_HUMIDITY_MEASURED_VALUE;
        MOV       DPTR,#zclSampleSensorEnviroment_Humidity_MeasuredValue
        MOV       A,#-0x6a
        MOVX      @DPTR,A
        INC       DPTR
        CLR       A
        MOVX      @DPTR,A
//  603   zclSampleSensorEnviroment_Humidity_MinMeasuredValue = SAMPLESENSORENVIROMENT_HUMIDITY_MIN_MEASURED_VALUE;
        MOV       DPTR,#zclSampleSensorEnviroment_Humidity_MinMeasuredValue
        MOV       A,#0x32
        MOVX      @DPTR,A
        INC       DPTR
        CLR       A
        MOVX      @DPTR,A
//  604   zclSampleSensorEnviroment_Humidity_MaxMeasuredValue = SAMPLESENSORENVIROMENT_HUMIDITY_MAX_MEASURED_VALUE;
        MOV       DPTR,#zclSampleSensorEnviroment_Humidity_MaxMeasuredValue
        MOV       A,#0x2c
        MOVX      @DPTR,A
        INC       DPTR
        MOV       A,#0x1
        MOVX      @DPTR,A
//  605   
//  606   zclSampleSensorEnviroment_Pir_Status = 1;
        MOV       DPTR,#zclSampleSensorEnviroment_Pir_Status
        MOVX      @DPTR,A
//  607   zclSampleSensorEnviroment_Pir_Type = MS_OCCUPANCY_SENSOR_TYPE_PIR;   
        MOV       DPTR,#zclSampleSensorEnviroment_Pir_Type
        CLR       A
        MOVX      @DPTR,A
//  608   
//  609   zclSampleSensorEnviroment_TVOC_MeasuredValue = 150;
        MOV       DPTR,#zclSampleSensorEnviroment_TVOC_MeasuredValue
        MOV       A,#-0x6a
        MOVX      @DPTR,A
        INC       DPTR
        CLR       A
        MOVX      @DPTR,A
//  610   
//  611   zclSampleSensorEnviroment_CO2_MeasuredValue = 700;
        MOV       DPTR,#zclSampleSensorEnviroment_CO2_MeasuredValue
        MOV       A,#-0x44
        MOVX      @DPTR,A
        INC       DPTR
        MOV       A,#0x2
        MOVX      @DPTR,A
//  612 }
        POP       DPH
          CFI DPH0 SameValue
          CFI CFA_SP SP+-4
        POP       DPL
          CFI DPL0 SameValue
          CFI CFA_SP SP+-3
        LJMP      ?BRET
          CFI EndBlock cfiBlock0

        RSEG XDATA_ID:CODE:NOROOT(0)
`?<Initializer for zclSampleSensorEnviroment_Te`:
        DATA16
        DW 1700

        RSEG XDATA_ID:CODE:NOROOT(0)
`?<Initializer for zclSampleSensorEnviroment_Te_1`:
        DATA16
        DW 2700

        RSEG XDATA_ID:CODE:NOROOT(0)
`?<Initializer for zclSampleSensorEnviroment_Hu`:
        DATA16
        DW 50

        RSEG XDATA_ID:CODE:NOROOT(0)
`?<Initializer for zclSampleSensorEnviroment_Hu_1`:
        DATA16
        DW 300

        RSEG XDATA_ID:CODE:NOROOT(0)
`?<Initializer for zclSampleSensorEnviroment_Si`:
        DATA8
        DB 8
        DATA16
        DW 260
        DW 1280
        DATA8
        DB 0
        DB 8
        DATA16
        DW zclSampleSensorEnviroment_InClusterList
        DATA8
        DB 1
        DATA16
        DW zclSampleSensorEnviroment_OutClusterList

        RSEG XDATA_ID:CODE:NOROOT(0)
`?<Initializer for zclSampleSensorEnviroment_Co`:
        DATA16
        DW 1029
        DW 65535
        DW zclSampleSensorEnviroment_Humidity_MeasuredValue
        DATA8
        DB 0
        DATA16
        DW 0
        DATA8
        DB 41
        DATA16
        DW 0
        DW 30
        DW 0
        DW 0H
        DW 1024
        DW 65535
        DW zclSampleSensorEnviroment_Light_MeasuredValue
        DATA8
        DB 0
        DATA16
        DW 0
        DATA8
        DB 33
        DATA16
        DW 0
        DW 30
        DW 0
        DW 0H
        DW 1030
        DW 65535
        DW zclSampleSensorEnviroment_Pir_Status
        DATA8
        DB 0
        DATA16
        DW 0
        DATA8
        DB 41
        DATA16
        DW 0
        DW 30
        DW 0
        DW 0H
        DW 1026
        DW 65535
        DW zclSampleSensorEnviroment_Temperature_MeasuredValue
        DATA8
        DB 0
        DATA16
        DW 0
        DATA8
        DB 41
        DATA16
        DW 0
        DW 30
        DW 0
        DW 0H
        DW 3072
        DW 65535
        DW zclSampleSensorEnviroment_TVOC_MeasuredValue
        DATA8
        DB 0
        DATA16
        DW 0
        DATA8
        DB 41
        DATA16
        DW 0
        DW 30
        DW 0
        DW 0H
        DW 3073
        DW 65535
        DW zclSampleSensorEnviroment_CO2_MeasuredValue
        DATA8
        DB 0
        DATA16
        DW 0
        DATA8
        DB 41
        DATA16
        DW 0
        DW 30
        DW 0
        DW 0H

        RSEG BANK_RELAYS:CODE:REORDER:NOROOT(0)
??zclSampleSensorEnviroment_ResetAttributesToDe:
        CODE
        LCALL   ?BDISPATCH
        DATA24
        DC24    zclSampleSensorEnviroment_ResetAttributesToDefaultValues

        END
//  613 
//  614 /****************************************************************************
//  615 ****************************************************************************/
//  616 
//  617 
// 
// 139 bytes in segment BANKED_CODE
//   6 bytes in segment BANK_RELAYS
// 234 bytes in segment CODE_C
// 128 bytes in segment XDATA_I
// 128 bytes in segment XDATA_ID
//  74 bytes in segment XDATA_ROM_C
//  33 bytes in segment XDATA_Z
// 
// 368 bytes of CODE     memory
//  74 bytes of CONST    memory
// 139 bytes of HUGECODE memory
// 161 bytes of XDATA    memory
//
//Errors: none
//Warnings: none
